EXPORTS
	?isValid@MediaNode@Phonon@@QBE_NXZ @ 1 NONAME ; bool Phonon::MediaNode::isValid(void) const
	?tr@VideoPlayer@Phonon@@SA?AVQString@@PBD0@Z @ 2 NONAME ; class QString Phonon::VideoPlayer::tr(char const *, char const *)
	?id@EffectParameter@Phonon@@QBEHXZ @ 3 NONAME ; int Phonon::EffectParameter::id(void) const
	?metaObject@MediaController@Phonon@@UBEPBUQMetaObject@@XZ @ 4 NONAME ; struct QMetaObject const * Phonon::MediaController::metaObject(void) const
	?qt_metacast@?$ObjectDescriptionModel@$01@Phonon@@UAEPAXPBD@Z @ 5 NONAME ; void * Phonon::ObjectDescriptionModel<2>::qt_metacast(char const *)
	?backendName@Factory@Phonon@@YA?AVQString@@XZ @ 6 NONAME ; class QString Phonon::Factory::backendName(void)
	?getStaticMetaObject@AbstractMediaStream@Phonon@@SAABUQMetaObject@@XZ @ 7 NONAME ; struct QMetaObject const & Phonon::AbstractMediaStream::getStaticMetaObject(void)
	?isValid@ObjectDescriptionData@Phonon@@QBE_NXZ @ 8 NONAME ; bool Phonon::ObjectDescriptionData::isValid(void) const
	??1MediaObject@Phonon@@UAE@XZ @ 9 NONAME ; Phonon::MediaObject::~MediaObject(void)
	?load@VideoPlayer@Phonon@@QAEXABVMediaSource@2@@Z @ 10 NONAME ; void Phonon::VideoPlayer::load(class Phonon::MediaSource const &)
	?setIconSize@SeekSlider@Phonon@@QAEXABVQSize@@@Z @ 11 NONAME ; void Phonon::SeekSlider::setIconSize(class QSize const &)
	?modelData@ObjectDescriptionModelData@Phonon@@QBE?AV?$QExplicitlySharedDataPointer@VObjectDescriptionData@Phonon@@@@ABVQModelIndex@@@Z @ 12 NONAME ; class QExplicitlySharedDataPointer<class Phonon::ObjectDescriptionData> Phonon::ObjectDescriptionModelData::modelData(class QModelIndex const &) const
	?mouseMoveEvent@VideoWidget@Phonon@@MAEXPAVQMouseEvent@@@Z @ 13 NONAME ; void Phonon::VideoWidget::mouseMoveEvent(class QMouseEvent *)
	??0Path@Phonon@@QAE@XZ @ 14 NONAME ; Phonon::Path::Path(void)
	??_EEffect@Phonon@@UAE@I@Z @ 15 NONAME ; Phonon::Effect::~Effect(unsigned int)
	?staticMetaObject@?$ObjectDescriptionModel@$01@Phonon@@2UQMetaObject@@B @ 16 NONAME ; struct QMetaObject const Phonon::ObjectDescriptionModel<2>::staticMetaObject
	?totalTimeChanged@MediaObject@Phonon@@IAEX_J@Z @ 17 NONAME ; void Phonon::MediaObject::totalTimeChanged(long long)
	?availableAudioCaptureDevices@BackendCapabilities@Phonon@@YA?AV?$QList@V?$ObjectDescription@$03@Phonon@@@@XZ @ 18 NONAME ; class QList<class Phonon::ObjectDescription<4> > Phonon::BackendCapabilities::availableAudioCaptureDevices(void)
	?getStaticMetaObject@VolumeSlider@Phonon@@SAABUQMetaObject@@XZ @ 19 NONAME ; struct QMetaObject const & Phonon::VolumeSlider::getStaticMetaObject(void)
	?qt_metacall@VideoWidget@Phonon@@UAEHW4Call@QMetaObject@@HPAPAX@Z @ 20 NONAME ; int Phonon::VideoWidget::qt_metacall(enum QMetaObject::Call, int, void * *)
	?staticMetaObject@?$ObjectDescriptionModel@$0A@@Phonon@@2UQMetaObject@@B @ 21 NONAME ; struct QMetaObject const Phonon::ObjectDescriptionModel<0>::staticMetaObject
	?fadeTo@VolumeFaderEffect@Phonon@@QAEXMH@Z @ 22 NONAME ; void Phonon::VolumeFaderEffect::fadeTo(float, int)
	?trUtf8@VideoWidget@Phonon@@SA?AVQString@@PBD0H@Z @ 23 NONAME ; class QString Phonon::VideoWidget::trUtf8(char const *, char const *, int)
	?rowCount@ObjectDescriptionModelData@Phonon@@QBEHABVQModelIndex@@@Z @ 24 NONAME ; int Phonon::ObjectDescriptionModelData::rowCount(class QModelIndex const &) const
	?tr@AudioOutput@Phonon@@SA?AVQString@@PBD0@Z @ 25 NONAME ; class QString Phonon::AudioOutput::tr(char const *, char const *)
	?audioCaptureDeviceFor@GlobalConfig@Phonon@@QBEHW4Category@2@H@Z @ 26 NONAME ; int Phonon::GlobalConfig::audioCaptureDeviceFor(enum Phonon::Category, int) const
	??0StreamInterface@Phonon@@IAE@XZ @ 27 NONAME ; Phonon::StreamInterface::StreamInterface(void)
	?totalTime@MediaObject@Phonon@@QBE_JXZ @ 28 NONAME ; long long Phonon::MediaObject::totalTime(void) const
	?previousTitle@MediaController@Phonon@@QAEXXZ @ 29 NONAME ; void Phonon::MediaController::previousTitle(void)
	?k_func@AudioOutput@Phonon@@ABEPBVAudioOutputPrivate@2@XZ @ 30 NONAME ; class Phonon::AudioOutputPrivate const * Phonon::AudioOutput::k_func(void) const
	?currentChapter@MediaController@Phonon@@QBEHXZ @ 31 NONAME ; int Phonon::MediaController::currentChapter(void) const
	?error@AbstractMediaStream@Phonon@@IAEXW4ErrorType@2@ABVQString@@@Z @ 32 NONAME ; void Phonon::AbstractMediaStream::error(enum Phonon::ErrorType, class QString const &)
	?play@MediaObject@Phonon@@QAEXXZ @ 33 NONAME ; void Phonon::MediaObject::play(void)
	?hasVideo@MediaObject@Phonon@@QBE_NXZ @ 34 NONAME ; bool Phonon::MediaObject::hasVideo(void) const
	?setTracking@SeekSlider@Phonon@@QAEX_N@Z @ 35 NONAME ; void Phonon::SeekSlider::setTracking(bool)
	?qt_metacall@AudioOutput@Phonon@@UAEHW4Call@QMetaObject@@HPAPAX@Z @ 36 NONAME ; int Phonon::AudioOutput::qt_metacall(enum QMetaObject::Call, int, void * *)
	?seek@MediaObject@Phonon@@QAEX_J@Z @ 37 NONAME ; void Phonon::MediaObject::seek(long long)
	?availableAudioChannels@MediaController@Phonon@@QBE?AV?$QList@V?$ObjectDescription@$01@Phonon@@@@XZ @ 38 NONAME ; class QList<class Phonon::ObjectDescription<2> > Phonon::MediaController::availableAudioChannels(void) const
	??1MediaController@Phonon@@UAE@XZ @ 39 NONAME ; Phonon::MediaController::~MediaController(void)
	??_EVolumeFaderEffect@Phonon@@UAE@I@Z @ 40 NONAME ; Phonon::VolumeFaderEffect::~VolumeFaderEffect(unsigned int)
	?qt_metacast@?$ObjectDescriptionModel@$0A@@Phonon@@UAEPAXPBD@Z @ 41 NONAME ; void * Phonon::ObjectDescriptionModel<0>::qt_metacast(char const *)
	?titleChanged@MediaController@Phonon@@IAEXH@Z @ 42 NONAME ; void Phonon::MediaController::titleChanged(int)
	?metaObject@Effect@Phonon@@UBEPBUQMetaObject@@XZ @ 43 NONAME ; struct QMetaObject const * Phonon::Effect::metaObject(void) const
	?mimeTypes@ObjectDescriptionModelData@Phonon@@QBE?AVQStringList@@W4ObjectDescriptionType@2@@Z @ 44 NONAME ; class QStringList Phonon::ObjectDescriptionModelData::mimeTypes(enum Phonon::ObjectDescriptionType) const
	?setFullScreen@VideoWidget@Phonon@@QAEX_N@Z @ 45 NONAME ; void Phonon::VideoWidget::setFullScreen(bool)
	??1AbstractMediaStreamPrivate@Phonon@@UAE@XZ @ 46 NONAME ; Phonon::AbstractMediaStreamPrivate::~AbstractMediaStreamPrivate(void)
	?sink@Path@Phonon@@QBEPAVMediaNode@2@XZ @ 47 NONAME ; class Phonon::MediaNode * Phonon::Path::sink(void) const
	?deregisterFrontendObject@Factory@Phonon@@YAXPAVMediaNodePrivate@2@@Z @ 48 NONAME ; void Phonon::Factory::deregisterFrontendObject(class Phonon::MediaNodePrivate *)
	?currentSource@MediaObject@Phonon@@QBE?AVMediaSource@2@XZ @ 49 NONAME ; class Phonon::MediaSource Phonon::MediaObject::currentSource(void) const
	?getStaticMetaObject@EffectWidget@Phonon@@SAABUQMetaObject@@XZ @ 50 NONAME ; struct QMetaObject const & Phonon::EffectWidget::getStaticMetaObject(void)
	?k_func@VolumeSlider@Phonon@@AAEPAVVolumeSliderPrivate@2@XZ @ 51 NONAME ; class Phonon::VolumeSliderPrivate * Phonon::VolumeSlider::k_func(void)
	?volume@VideoPlayer@Phonon@@QBEMXZ @ 52 NONAME ; float Phonon::VideoPlayer::volume(void) const
	?name@EffectParameter@Phonon@@QBEABVQString@@XZ @ 53 NONAME ; class QString const & Phonon::EffectParameter::name(void) const
	?trUtf8@VolumeFaderEffect@Phonon@@SA?AVQString@@PBD0H@Z @ 54 NONAME ; class QString Phonon::VolumeFaderEffect::trUtf8(char const *, char const *, int)
	?qt_metacast@AbstractMediaStream@Phonon@@UAEPAXPBD@Z @ 55 NONAME ; void * Phonon::AbstractMediaStream::qt_metacast(char const *)
	??1AbstractAudioOutput@Phonon@@UAE@XZ @ 56 NONAME ; Phonon::AbstractAudioOutput::~AbstractAudioOutput(void)
	??0VolumeFaderEffect@Phonon@@QAE@PAVQObject@@@Z @ 57 NONAME ; Phonon::VolumeFaderEffect::VolumeFaderEffect(class QObject *)
	?enoughData@StreamInterface@Phonon@@QAEXXZ @ 58 NONAME ; void Phonon::StreamInterface::enoughData(void)
	?audioCaptureDeviceListFor@GlobalConfig@Phonon@@QBE?AV?$QList@H@@W4Category@2@H@Z @ 59 NONAME ; class QList<int> Phonon::GlobalConfig::audioCaptureDeviceListFor(enum Phonon::Category, int) const
	?effects@Path@Phonon@@QBE?AV?$QList@PAVEffect@Phonon@@@@XZ @ 60 NONAME ; class QList<class Phonon::Effect *> Phonon::Path::effects(void) const
	?fromIndex@ObjectDescriptionData@Phonon@@SAPAV12@W4ObjectDescriptionType@2@H@Z @ 61 NONAME ; class Phonon::ObjectDescriptionData * Phonon::ObjectDescriptionData::fromIndex(enum Phonon::ObjectDescriptionType, int)
	??_EMediaNode@Phonon@@UAE@I@Z @ 62 NONAME ; Phonon::MediaNode::~MediaNode(unsigned int)
	??_EVolumeSlider@Phonon@@UAE@I@Z @ 63 NONAME ; Phonon::VolumeSlider::~VolumeSlider(unsigned int)
	?currentSourceChanged@MediaObject@Phonon@@IAEXABVMediaSource@2@@Z @ 64 NONAME ; void Phonon::MediaObject::currentSourceChanged(class Phonon::MediaSource const &)
	?qHash@Phonon@@YAIABVEffectParameter@1@@Z @ 65 NONAME ; unsigned int Phonon::qHash(class Phonon::EffectParameter const &)
	??1MediaSourcePrivate@Phonon@@UAE@XZ @ 66 NONAME ; Phonon::MediaSourcePrivate::~MediaSourcePrivate(void)
	?currentSubtitle@MediaController@Phonon@@QBE?AV?$ObjectDescription@$02@2@XZ @ 67 NONAME ; class Phonon::ObjectDescription<3> Phonon::MediaController::currentSubtitle(void) const
	?addInputPath@MediaNodePrivate@Phonon@@QAEXABVPath@2@@Z @ 68 NONAME ; void Phonon::MediaNodePrivate::addInputPath(class Phonon::Path const &)
	?autoplayTitles@MediaController@Phonon@@QBE_NXZ @ 69 NONAME ; bool Phonon::MediaController::autoplayTitles(void) const
	?trUtf8@AbstractMediaStream@Phonon@@SA?AVQString@@PBD0@Z @ 70 NONAME ; class QString Phonon::AbstractMediaStream::trUtf8(char const *, char const *)
	?trUtf8@AudioOutput@Phonon@@SA?AVQString@@PBD0H@Z @ 71 NONAME ; class QString Phonon::AudioOutput::trUtf8(char const *, char const *, int)
	??0VideoWidget@Phonon@@IAE@AAVVideoWidgetPrivate@1@PAVQWidget@@@Z @ 72 NONAME ; Phonon::VideoWidget::VideoWidget(class Phonon::VideoWidgetPrivate &, class QWidget *)
	?finished@VideoPlayer@Phonon@@IAEXXZ @ 73 NONAME ; void Phonon::VideoPlayer::finished(void)
	?name@ObjectDescriptionData@Phonon@@QBE?AVQString@@XZ @ 74 NONAME ; class QString Phonon::ObjectDescriptionData::name(void) const
	?tr@MediaObject@Phonon@@SA?AVQString@@PBD0H@Z @ 75 NONAME ; class QString Phonon::MediaObject::tr(char const *, char const *, int)
	?orientation@VolumeSlider@Phonon@@QBE?AW4Orientation@Qt@@XZ @ 76 NONAME ; enum Qt::Orientation Phonon::VolumeSlider::orientation(void) const
	?availableSubtitles@MediaController@Phonon@@QBE?AV?$QList@V?$ObjectDescription@$02@Phonon@@@@XZ @ 77 NONAME ; class QList<class Phonon::ObjectDescription<3> > Phonon::MediaController::availableSubtitles(void) const
	?qt_metacast@?$ObjectDescriptionModel@$03@Phonon@@UAEPAXPBD@Z @ 78 NONAME ; void * Phonon::ObjectDescriptionModel<4>::qt_metacast(char const *)
	?tr@VideoPlayer@Phonon@@SA?AVQString@@PBD0H@Z @ 79 NONAME ; class QString Phonon::VideoPlayer::tr(char const *, char const *, int)
	??_EVideoPlayer@Phonon@@UAE@I@Z @ 80 NONAME ; Phonon::VideoPlayer::~VideoPlayer(unsigned int)
	?staticMetaObject@AudioOutput@Phonon@@2UQMetaObject@@B @ 81 NONAME ; struct QMetaObject const Phonon::AudioOutput::staticMetaObject
	?setPageStep@VolumeSlider@Phonon@@QAEXH@Z @ 82 NONAME ; void Phonon::VolumeSlider::setPageStep(int)
	?setPageStep@SeekSlider@Phonon@@QAEXH@Z @ 83 NONAME ; void Phonon::SeekSlider::setPageStep(int)
	??_EStreamInterface@Phonon@@UAE@I@Z @ 84 NONAME ; Phonon::StreamInterface::~StreamInterface(unsigned int)
	?hasTracking@VolumeSlider@Phonon@@QBE_NXZ @ 85 NONAME ; bool Phonon::VolumeSlider::hasTracking(void) const
	?volumeDecibel@VolumeFaderEffect@Phonon@@QBENXZ @ 86 NONAME ; double Phonon::VolumeFaderEffect::volumeDecibel(void) const
	?flags@ObjectDescriptionModelData@Phonon@@QBE?AV?$QFlags@W4ItemFlag@Qt@@@@ABVQModelIndex@@@Z @ 87 NONAME ; class QFlags<enum Qt::ItemFlag> Phonon::ObjectDescriptionModelData::flags(class QModelIndex const &) const
	??0VolumeSlider@Phonon@@QAE@PAVAudioOutput@1@PAVQWidget@@@Z @ 88 NONAME ; Phonon::VolumeSlider::VolumeSlider(class Phonon::AudioOutput *, class QWidget *)
	??_EAbstractMediaStream@Phonon@@UAE@I@Z @ 89 NONAME ; Phonon::AbstractMediaStream::~AbstractMediaStream(unsigned int)
	?stop@MediaObject@Phonon@@QAEXXZ @ 90 NONAME ; void Phonon::MediaObject::stop(void)
	?setMuted@AudioOutput@Phonon@@QAEX_N@Z @ 91 NONAME ; void Phonon::AudioOutput::setMuted(bool)
	?setVolume@VolumeFaderEffect@Phonon@@QAEXM@Z @ 92 NONAME ; void Phonon::VolumeFaderEffect::setVolume(float)
	?setIconSize@VolumeSlider@Phonon@@QAEXABVQSize@@@Z @ 93 NONAME ; void Phonon::VolumeSlider::setIconSize(class QSize const &)
	?currentTime@VideoPlayer@Phonon@@QBE_JXZ @ 94 NONAME ; long long Phonon::VideoPlayer::currentTime(void) const
	?metaObject@?$ObjectDescriptionModel@$00@Phonon@@UBEPBUQMetaObject@@XZ @ 95 NONAME ; struct QMetaObject const * Phonon::ObjectDescriptionModel<1>::metaObject(void) const
	?metaObject@VideoWidget@Phonon@@UBEPBUQMetaObject@@XZ @ 96 NONAME ; struct QMetaObject const * Phonon::VideoWidget::metaObject(void) const
	?audioOutputDeviceListFor@GlobalConfig@Phonon@@QBE?AV?$QList@H@@W4Category@2@H@Z @ 97 NONAME ; class QList<int> Phonon::GlobalConfig::audioOutputDeviceListFor(enum Phonon::Category, int) const
	?staticMetaObject@?$ObjectDescriptionModel@$02@Phonon@@2UQMetaObject@@B @ 98 NONAME ; struct QMetaObject const Phonon::ObjectDescriptionModel<3>::staticMetaObject
	??1VideoWidget@Phonon@@UAE@XZ @ 99 NONAME ; Phonon::VideoWidget::~VideoWidget(void)
	?seekStream@AbstractMediaStream@Phonon@@MAEX_J@Z @ 100 NONAME ; void Phonon::AbstractMediaStream::seekStream(long long)
	?transitionTime@MediaObject@Phonon@@QBEHXZ @ 101 NONAME ; int Phonon::MediaObject::transitionTime(void) const
	?staticMetaObject@MediaObject@Phonon@@2UQMetaObject@@B @ 102 NONAME ; struct QMetaObject const Phonon::MediaObject::staticMetaObject
	?setMediaObject@SeekSlider@Phonon@@QAEXPAVMediaObject@2@@Z @ 103 NONAME ; void Phonon::SeekSlider::setMediaObject(class Phonon::MediaObject *)
	?type@EffectParameter@Phonon@@QBE?AW4Type@QVariant@@XZ @ 104 NONAME ; enum QVariant::Type Phonon::EffectParameter::type(void) const
	??0ObjectDescriptionData@Phonon@@QAE@HABV?$QHash@VQByteArray@@VQVariant@@@@@Z @ 105 NONAME ; Phonon::ObjectDescriptionData::ObjectDescriptionData(int, class QHash<class QByteArray, class QVariant> const &)
	??8EffectParameter@Phonon@@QBE_NABV01@@Z @ 106 NONAME ; bool Phonon::EffectParameter::operator==(class Phonon::EffectParameter const &) const
	??0MediaSource@Phonon@@IAE@AAVMediaSourcePrivate@1@@Z @ 107 NONAME ; Phonon::MediaSource::MediaSource(class Phonon::MediaSourcePrivate &)
	??0ObjectDescriptionModelData@Phonon@@QAE@PAVQAbstractListModel@@@Z @ 108 NONAME ; Phonon::ObjectDescriptionModelData::ObjectDescriptionModelData(class QAbstractListModel *)
	?clear@MediaObject@Phonon@@QAEXXZ @ 109 NONAME ; void Phonon::MediaObject::clear(void)
	??_EEffectParameter@Phonon@@QAE@I@Z @ 110 NONAME ; Phonon::EffectParameter::~EffectParameter(unsigned int)
	??4MediaSource@Phonon@@QAEAAV01@ABV01@@Z @ 111 NONAME ; class Phonon::MediaSource & Phonon::MediaSource::operator=(class Phonon::MediaSource const &)
	??0MediaSource@Phonon@@QAE@PAVQIODevice@@@Z @ 112 NONAME ; Phonon::MediaSource::MediaSource(class QIODevice *)
	?k_func@AbstractAudioOutput@Phonon@@AAEPAVAbstractAudioOutputPrivate@2@XZ @ 113 NONAME ; class Phonon::AbstractAudioOutputPrivate * Phonon::AbstractAudioOutput::k_func(void)
	?availableTitles@MediaController@Phonon@@QBEHXZ @ 114 NONAME ; int Phonon::MediaController::availableTitles(void) const
	?tr@VolumeSlider@Phonon@@SA?AVQString@@PBD0@Z @ 115 NONAME ; class QString Phonon::VolumeSlider::tr(char const *, char const *)
	?scaleMode@VideoWidget@Phonon@@QBE?AW4ScaleMode@12@XZ @ 116 NONAME ; enum Phonon::VideoWidget::ScaleMode Phonon::VideoWidget::scaleMode(void) const
	??_ESeekSlider@Phonon@@UAE@I@Z @ 117 NONAME ; Phonon::SeekSlider::~SeekSlider(unsigned int)
	?insertEffect@Path@Phonon@@QAE_NPAVEffect@2@0@Z @ 118 NONAME ; bool Phonon::Path::insertEffect(class Phonon::Effect *, class Phonon::Effect *)
	?state@MediaObject@Phonon@@QBE?AW4State@2@XZ @ 119 NONAME ; enum Phonon::State Phonon::MediaObject::state(void) const
	?outputDevice@AudioOutput@Phonon@@QBE?AV?$ObjectDescription@$0A@@2@XZ @ 120 NONAME ; class Phonon::ObjectDescription<0> Phonon::AudioOutput::outputDevice(void) const
	??8MediaSource@Phonon@@QBE_NABV01@@Z @ 121 NONAME ; bool Phonon::MediaSource::operator==(class Phonon::MediaSource const &) const
	??_EMediaNodePrivate@Phonon@@UAE@I@Z @ 122 NONAME ; Phonon::MediaNodePrivate::~MediaNodePrivate(unsigned int)
	?category@AudioOutput@Phonon@@QBE?AW4Category@2@XZ @ 123 NONAME ; enum Phonon::Category Phonon::AudioOutput::category(void) const
	?metaData@MediaObject@Phonon@@QBE?AVQStringList@@ABVQString@@@Z @ 124 NONAME ; class QStringList Phonon::MediaObject::metaData(class QString const &) const
	?setModelData@ObjectDescriptionModelData@Phonon@@QAEXABV?$QList@V?$QExplicitlySharedDataPointer@VObjectDescriptionData@Phonon@@@@@@@Z @ 125 NONAME ; void Phonon::ObjectDescriptionModelData::setModelData(class QList<class QExplicitlySharedDataPointer<class Phonon::ObjectDescriptionData> > const &)
	?connectToSource@StreamInterface@Phonon@@QAEXABVMediaSource@2@@Z @ 126 NONAME ; void Phonon::StreamInterface::connectToSource(class Phonon::MediaSource const &)
	?endOfData@AbstractMediaStream@Phonon@@IAEXXZ @ 127 NONAME ; void Phonon::AbstractMediaStream::endOfData(void)
	??0MediaNode@Phonon@@IAE@AAVMediaNodePrivate@1@@Z @ 128 NONAME ; Phonon::MediaNode::MediaNode(class Phonon::MediaNodePrivate &)
	?setVolumeDecibel@AudioOutput@Phonon@@QAEXM@Z @ 129 NONAME ; void Phonon::AudioOutput::setVolumeDecibel(float)
	?qt_metacall@Effect@Phonon@@UAEHW4Call@QMetaObject@@HPAPAX@Z @ 130 NONAME ; int Phonon::Effect::qt_metacall(enum QMetaObject::Call, int, void * *)
	?platformPlugin@Factory@Phonon@@YAPAVPlatformPlugin@2@XZ @ 131 NONAME ; class Phonon::PlatformPlugin * Phonon::Factory::platformPlugin(void)
	??1GlobalConfig@Phonon@@UAE@XZ @ 132 NONAME ; Phonon::GlobalConfig::~GlobalConfig(void)
	?orientation@SeekSlider@Phonon@@QBE?AW4Orientation@Qt@@XZ @ 133 NONAME ; enum Qt::Orientation Phonon::SeekSlider::orientation(void) const
	?setOrientation@SeekSlider@Phonon@@QAEXW4Orientation@Qt@@@Z @ 134 NONAME ; void Phonon::SeekSlider::setOrientation(enum Qt::Orientation)
	?q_func@MediaNodePrivate@Phonon@@AAEPAVMediaNode@2@XZ @ 135 NONAME ; class Phonon::MediaNode * Phonon::MediaNodePrivate::q_func(void)
	??0SeekSlider@Phonon@@QAE@PAVQWidget@@@Z @ 136 NONAME ; Phonon::SeekSlider::SeekSlider(class QWidget *)
	?qt_metacall@VolumeFaderEffect@Phonon@@UAEHW4Call@QMetaObject@@HPAPAX@Z @ 137 NONAME ; int Phonon::VolumeFaderEffect::qt_metacall(enum QMetaObject::Call, int, void * *)
	?d_func@AbstractMediaStream@Phonon@@AAEPAVAbstractMediaStreamPrivate@2@XZ @ 138 NONAME ; class Phonon::AbstractMediaStreamPrivate * Phonon::AbstractMediaStream::d_func(void)
	?metaData@MediaObject@Phonon@@QBE?AV?$QMultiMap@VQString@@V1@@@XZ @ 139 NONAME ; class QMultiMap<class QString, class QString> Phonon::MediaObject::metaData(void) const
	?setBrightness@VideoWidget@Phonon@@QAEXM@Z @ 140 NONAME ; void Phonon::VideoWidget::setBrightness(float)
	??_EAudioOutput@Phonon@@UAE@I@Z @ 141 NONAME ; Phonon::AudioOutput::~AudioOutput(unsigned int)
	?qt_metacall@SeekSlider@Phonon@@UAEHW4Call@QMetaObject@@HPAPAX@Z @ 142 NONAME ; int Phonon::SeekSlider::qt_metacall(enum QMetaObject::Call, int, void * *)
	?setStreamSeekable@AbstractMediaStream@Phonon@@IAEX_N@Z @ 143 NONAME ; void Phonon::AbstractMediaStream::setStreamSeekable(bool)
	?tr@Effect@Phonon@@SA?AVQString@@PBD0@Z @ 144 NONAME ; class QString Phonon::Effect::tr(char const *, char const *)
	?hasVideoChanged@MediaObject@Phonon@@IAEX_N@Z @ 145 NONAME ; void Phonon::MediaObject::hasVideoChanged(bool)
	??1StreamInterface@Phonon@@UAE@XZ @ 146 NONAME ; Phonon::StreamInterface::~StreamInterface(void)
	?availableAudioChannelsChanged@MediaController@Phonon@@IAEXXZ @ 147 NONAME ; void Phonon::MediaController::availableAudioChannelsChanged(void)
	?enterFullScreen@VideoWidget@Phonon@@QAEXXZ @ 148 NONAME ; void Phonon::VideoWidget::enterFullScreen(void)
	?description@EffectParameter@Phonon@@QBEABVQString@@XZ @ 149 NONAME ; class QString const & Phonon::EffectParameter::description(void) const
	?setMaximumVolume@VolumeSlider@Phonon@@QAEXM@Z @ 150 NONAME ; void Phonon::VolumeSlider::setMaximumVolume(float)
	?metaObject@AudioOutput@Phonon@@UBEPBUQMetaObject@@XZ @ 151 NONAME ; struct QMetaObject const * Phonon::AudioOutput::metaObject(void) const
	?qt_metacall@VolumeSlider@Phonon@@UAEHW4Call@QMetaObject@@HPAPAX@Z @ 152 NONAME ; int Phonon::VolumeSlider::qt_metacall(enum QMetaObject::Call, int, void * *)
	?createPath@Phonon@@YA?AVPath@1@PAVMediaNode@1@0@Z @ 153 NONAME ; class Phonon::Path Phonon::createPath(class Phonon::MediaNode *, class Phonon::MediaNode *)
	?isPlaying@VideoPlayer@Phonon@@QBE_NXZ @ 154 NONAME ; bool Phonon::VideoPlayer::isPlaying(void) const
	?tr@EffectWidget@Phonon@@SA?AVQString@@PBD0@Z @ 155 NONAME ; class QString Phonon::EffectWidget::tr(char const *, char const *)
	??1EffectWidget@Phonon@@UAE@XZ @ 156 NONAME ; Phonon::EffectWidget::~EffectWidget(void)
	??_EMediaObject@Phonon@@UAE@I@Z @ 157 NONAME ; Phonon::MediaObject::~MediaObject(unsigned int)
	?k_func@Effect@Phonon@@ABEPBVEffectPrivate@2@XZ @ 158 NONAME ; class Phonon::EffectPrivate const * Phonon::Effect::k_func(void) const
	?streamSize@AbstractMediaStream@Phonon@@IBE_JXZ @ 159 NONAME ; long long Phonon::AbstractMediaStream::streamSize(void) const
	?volume@AudioOutput@Phonon@@QBEMXZ @ 160 NONAME ; float Phonon::AudioOutput::volume(void) const
	?staticMetaObject@VideoPlayer@Phonon@@2UQMetaObject@@B @ 161 NONAME ; struct QMetaObject const Phonon::VideoPlayer::staticMetaObject
	?trUtf8@MediaController@Phonon@@SA?AVQString@@PBD0@Z @ 162 NONAME ; class QString Phonon::MediaController::trUtf8(char const *, char const *)
	?qt_metacast@VolumeFaderEffect@Phonon@@UAEPAXPBD@Z @ 163 NONAME ; void * Phonon::VolumeFaderEffect::qt_metacast(char const *)
	?queue@MediaObject@Phonon@@QBE?AV?$QList@VMediaSource@Phonon@@@@XZ @ 164 NONAME ; class QList<class Phonon::MediaSource> Phonon::MediaObject::queue(void) const
	?qt_metacast@VideoPlayer@Phonon@@UAEPAXPBD@Z @ 165 NONAME ; void * Phonon::VideoPlayer::qt_metacast(char const *)
	??_EPath@Phonon@@QAE@I@Z @ 166 NONAME ; Phonon::Path::~Path(unsigned int)
	??1ObjectDescriptionModelData@Phonon@@IAE@XZ @ 167 NONAME ; Phonon::ObjectDescriptionModelData::~ObjectDescriptionModelData(void)
	?qt_metacast@VolumeSlider@Phonon@@UAEPAXPBD@Z @ 168 NONAME ; void * Phonon::VolumeSlider::qt_metacast(char const *)
	?modelData@ObjectDescriptionModelData@Phonon@@QBE?AV?$QList@V?$QExplicitlySharedDataPointer@VObjectDescriptionData@Phonon@@@@@@XZ @ 169 NONAME ; class QList<class QExplicitlySharedDataPointer<class Phonon::ObjectDescriptionData> > Phonon::ObjectDescriptionModelData::modelData(void) const
	?staticMetaObject@EffectWidget@Phonon@@2UQMetaObject@@B @ 170 NONAME ; struct QMetaObject const Phonon::EffectWidget::staticMetaObject
	?metaObject@?$ObjectDescriptionModel@$02@Phonon@@UBEPBUQMetaObject@@XZ @ 171 NONAME ; struct QMetaObject const * Phonon::ObjectDescriptionModel<3>::metaObject(void) const
	?play@VideoPlayer@Phonon@@QAEXABVMediaSource@2@@Z @ 172 NONAME ; void Phonon::VideoPlayer::play(class Phonon::MediaSource const &)
	??0AbstractVideoOutput@Phonon@@IAE@AAVAbstractVideoOutputPrivate@1@@Z @ 173 NONAME ; Phonon::AbstractVideoOutput::AbstractVideoOutput(class Phonon::AbstractVideoOutputPrivate &)
	?trUtf8@VolumeFaderEffect@Phonon@@SA?AVQString@@PBD0@Z @ 174 NONAME ; class QString Phonon::VolumeFaderEffect::trUtf8(char const *, char const *)
	?k_func@SeekSlider@Phonon@@ABEPBVSeekSliderPrivate@2@XZ @ 175 NONAME ; class Phonon::SeekSliderPrivate const * Phonon::SeekSlider::k_func(void) const
	?qObject@MediaNodePrivate@Phonon@@UAEPAVQObject@@XZ @ 176 NONAME ; class QObject * Phonon::MediaNodePrivate::qObject(void)
	?qt_metacast@Effect@Phonon@@UAEPAXPBD@Z @ 177 NONAME ; void * Phonon::Effect::qt_metacast(char const *)
	?exitFullScreen@VideoWidget@Phonon@@QAEXXZ @ 178 NONAME ; void Phonon::VideoWidget::exitFullScreen(void)
	?qt_metacast@AbstractAudioOutput@Phonon@@UAEPAXPBD@Z @ 179 NONAME ; void * Phonon::AbstractAudioOutput::qt_metacast(char const *)
	?k_func@AbstractVideoOutput@Phonon@@AAEPAVAbstractVideoOutputPrivate@2@XZ @ 180 NONAME ; class Phonon::AbstractVideoOutputPrivate * Phonon::AbstractVideoOutput::k_func(void)
	?currentTime@MediaObject@Phonon@@QBE_JXZ @ 181 NONAME ; long long Phonon::MediaObject::currentTime(void) const
	?mediaObject@VideoPlayer@Phonon@@QBEPAVMediaObject@2@XZ @ 182 NONAME ; class Phonon::MediaObject * Phonon::VideoPlayer::mediaObject(void) const
	?isIconVisible@SeekSlider@Phonon@@QBE_NXZ @ 183 NONAME ; bool Phonon::SeekSlider::isIconVisible(void) const
	??MEffectParameter@Phonon@@QBE_NABV01@@Z @ 184 NONAME ; bool Phonon::EffectParameter::operator<(class Phonon::EffectParameter const &) const
	?url@MediaSource@Phonon@@QBE?AVQUrl@@XZ @ 185 NONAME ; class QUrl Phonon::MediaSource::url(void) const
	??0EffectParameter@Phonon@@QAE@XZ @ 186 NONAME ; Phonon::EffectParameter::EffectParameter(void)
	?mutedChanged@AudioOutput@Phonon@@IAEX_N@Z @ 187 NONAME ; void Phonon::AudioOutput::mutedChanged(bool)
	?k_func@MediaNode@Phonon@@AAEPAVMediaNodePrivate@2@XZ @ 188 NONAME ; class Phonon::MediaNodePrivate * Phonon::MediaNode::k_func(void)
	?outputPaths@MediaNode@Phonon@@QBE?AV?$QList@VPath@Phonon@@@@XZ @ 189 NONAME ; class QList<class Phonon::Path> Phonon::MediaNode::outputPaths(void) const
	?event@VideoWidget@Phonon@@MAE_NPAVQEvent@@@Z @ 190 NONAME ; bool Phonon::VideoWidget::event(class QEvent *)
	??0Effect@Phonon@@QAE@ABV?$ObjectDescription@$00@1@PAVQObject@@@Z @ 191 NONAME ; Phonon::Effect::Effect(class Phonon::ObjectDescription<1> const &, class QObject *)
	??0MediaSource@Phonon@@QAE@ABVQUrl@@@Z @ 192 NONAME ; Phonon::MediaSource::MediaSource(class QUrl const &)
	?endOfData@AbstractMediaStreamPrivate@Phonon@@MAEXXZ @ 193 NONAME ; void Phonon::AbstractMediaStreamPrivate::endOfData(void)
	??OEffectParameter@Phonon@@QBE_NABV01@@Z @ 194 NONAME ; bool Phonon::EffectParameter::operator>(class Phonon::EffectParameter const &) const
	?mediaObject@SeekSlider@Phonon@@QBEPAVMediaObject@2@XZ @ 195 NONAME ; class Phonon::MediaObject * Phonon::SeekSlider::mediaObject(void) const
	??0MediaSource@Phonon@@QAE@ABV01@@Z @ 196 NONAME ; Phonon::MediaSource::MediaSource(class Phonon::MediaSource const &)
	?outputDeviceChanged@AudioOutput@Phonon@@IAEXABV?$ObjectDescription@$0A@@2@@Z @ 197 NONAME ; void Phonon::AudioOutput::outputDeviceChanged(class Phonon::ObjectDescription<0> const &)
	??0MediaNodePrivate@Phonon@@IAE@W4CastId@01@@Z @ 198 NONAME ; Phonon::MediaNodePrivate::MediaNodePrivate(enum Phonon::MediaNodePrivate::CastId)
	?qt_metacall@AbstractMediaStream@Phonon@@UAEHW4Call@QMetaObject@@HPAPAX@Z @ 199 NONAME ; int Phonon::AbstractMediaStream::qt_metacall(enum QMetaObject::Call, int, void * *)
	?maximumVolume@VolumeSlider@Phonon@@QBEMXZ @ 200 NONAME ; float Phonon::VolumeSlider::maximumVolume(void) const
	?audioOutputDeviceFor@GlobalConfig@Phonon@@QBEHW4Category@2@H@Z @ 201 NONAME ; int Phonon::GlobalConfig::audioOutputDeviceFor(enum Phonon::Category, int) const
	?tr@AbstractAudioOutput@Phonon@@SA?AVQString@@PBD0@Z @ 202 NONAME ; class QString Phonon::AbstractAudioOutput::tr(char const *, char const *)
	?setCurrentAudioChannel@MediaController@Phonon@@QAEXABV?$ObjectDescription@$01@2@@Z @ 203 NONAME ; void Phonon::MediaController::setCurrentAudioChannel(class Phonon::ObjectDescription<2> const &)
	?saturation@VideoWidget@Phonon@@QBEMXZ @ 204 NONAME ; float Phonon::VideoWidget::saturation(void) const
	?videoWidget@VideoPlayer@Phonon@@QBEPAVVideoWidget@2@XZ @ 205 NONAME ; class Phonon::VideoWidget * Phonon::VideoPlayer::videoWidget(void) const
	?setAudioOutput@VolumeSlider@Phonon@@QAEXPAVAudioOutput@2@@Z @ 206 NONAME ; void Phonon::VolumeSlider::setAudioOutput(class Phonon::AudioOutput *)
	?setTracking@VolumeSlider@Phonon@@QAEX_N@Z @ 207 NONAME ; void Phonon::VolumeSlider::setTracking(bool)
	?setParameterValue@Effect@Phonon@@QAEXABVEffectParameter@2@ABVQVariant@@@Z @ 208 NONAME ; void Phonon::Effect::setParameterValue(class Phonon::EffectParameter const &, class QVariant const &)
	??4Path@Phonon@@QAEAAV01@ABV01@@Z @ 209 NONAME ; class Phonon::Path & Phonon::Path::operator=(class Phonon::Path const &)
	?setVolume@VideoPlayer@Phonon@@QAEXM@Z @ 210 NONAME ; void Phonon::VideoPlayer::setVolume(float)
	?setAutoplayTitles@MediaController@Phonon@@QAEX_N@Z @ 211 NONAME ; void Phonon::MediaController::setAutoplayTitles(bool)
	?staticMetaObject@?$ObjectDescriptionModel@$03@Phonon@@2UQMetaObject@@B @ 212 NONAME ; struct QMetaObject const Phonon::ObjectDescriptionModel<4>::staticMetaObject
	??0Path@Phonon@@QAE@ABV01@@Z @ 213 NONAME ; Phonon::Path::Path(class Phonon::Path const &)
	?k_func@EffectWidget@Phonon@@ABEPBVEffectWidgetPrivate@2@XZ @ 214 NONAME ; class Phonon::EffectWidgetPrivate const * Phonon::EffectWidget::k_func(void) const
	?parameterValue@Effect@Phonon@@QBE?AVQVariant@@ABVEffectParameter@2@@Z @ 215 NONAME ; class QVariant Phonon::Effect::parameterValue(class Phonon::EffectParameter const &) const
	?tr@EffectWidget@Phonon@@SA?AVQString@@PBD0H@Z @ 216 NONAME ; class QString Phonon::EffectWidget::tr(char const *, char const *, int)
	?brightness@VideoWidget@Phonon@@QBEMXZ @ 217 NONAME ; float Phonon::VideoWidget::brightness(void) const
	?finished@MediaObject@Phonon@@IAEXXZ @ 218 NONAME ; void Phonon::MediaObject::finished(void)
	?data@ObjectDescriptionModelData@Phonon@@QBE?AVQVariant@@ABVQModelIndex@@H@Z @ 219 NONAME ; class QVariant Phonon::ObjectDescriptionModelData::data(class QModelIndex const &, int) const
	?addDestructionHandler@MediaNodePrivate@Phonon@@QAEXPAVMediaNodeDestructionHandler@2@@Z @ 220 NONAME ; void Phonon::MediaNodePrivate::addDestructionHandler(class Phonon::MediaNodeDestructionHandler *)
	?_k_stateChanged@MediaObjectPrivate@Phonon@@IAEXW4State@2@0@Z @ 221 NONAME ; void Phonon::MediaObjectPrivate::_k_stateChanged(enum Phonon::State, enum Phonon::State)
	?q_func@MediaNodePrivate@Phonon@@ABEPBVMediaNode@2@XZ @ 222 NONAME ; class Phonon::MediaNode const * Phonon::MediaNodePrivate::q_func(void) const
	?nextTitle@MediaController@Phonon@@QAEXXZ @ 223 NONAME ; void Phonon::MediaController::nextTitle(void)
	?tupleIndexAtPositionIndex@ObjectDescriptionModelData@Phonon@@QBEHH@Z @ 224 NONAME ; int Phonon::ObjectDescriptionModelData::tupleIndexAtPositionIndex(int) const
	?audioOutput@VolumeSlider@Phonon@@QBEPAVAudioOutput@2@XZ @ 225 NONAME ; class Phonon::AudioOutput * Phonon::VolumeSlider::audioOutput(void) const
	?setOutputDevice@AudioOutput@Phonon@@QAE_NABV?$ObjectDescription@$0A@@2@@Z @ 226 NONAME ; bool Phonon::AudioOutput::setOutputDevice(class Phonon::ObjectDescription<0> const &)
	?qt_metacast@?$ObjectDescriptionModel@$00@Phonon@@UAEPAXPBD@Z @ 227 NONAME ; void * Phonon::ObjectDescriptionModel<1>::qt_metacast(char const *)
	??1AbstractVideoOutput@Phonon@@UAE@XZ @ 228 NONAME ; Phonon::AbstractVideoOutput::~AbstractVideoOutput(void)
	?setQueue@MediaObject@Phonon@@QAEXABV?$QList@VMediaSource@Phonon@@@@@Z @ 229 NONAME ; void Phonon::MediaObject::setQueue(class QList<class Phonon::MediaSource> const &)
	?k_func@Effect@Phonon@@AAEPAVEffectPrivate@2@XZ @ 230 NONAME ; class Phonon::EffectPrivate * Phonon::Effect::k_func(void)
	?availableChaptersChanged@MediaController@Phonon@@IAEXH@Z @ 231 NONAME ; void Phonon::MediaController::availableChaptersChanged(int)
	?setVolumeDecibel@VolumeFaderEffect@Phonon@@QAEXN@Z @ 232 NONAME ; void Phonon::VolumeFaderEffect::setVolumeDecibel(double)
	?setCurrentSubtitle@MediaController@Phonon@@QAEXABV?$ObjectDescription@$02@2@@Z @ 233 NONAME ; void Phonon::MediaController::setCurrentSubtitle(class Phonon::ObjectDescription<3> const &)
	?availableMimeTypes@BackendCapabilities@Phonon@@YA?AVQStringList@@XZ @ 234 NONAME ; class QStringList Phonon::BackendCapabilities::availableMimeTypes(void)
	??_EMediaSourcePrivate@Phonon@@UAE@I@Z @ 235 NONAME ; Phonon::MediaSourcePrivate::~MediaSourcePrivate(unsigned int)
	??_EMediaSource@Phonon@@QAE@I@Z @ 236 NONAME ; Phonon::MediaSource::~MediaSource(unsigned int)
	?trUtf8@SeekSlider@Phonon@@SA?AVQString@@PBD0@Z @ 237 NONAME ; class QString Phonon::SeekSlider::trUtf8(char const *, char const *)
	?availableAudioEffects@BackendCapabilities@Phonon@@YA?AV?$QList@V?$ObjectDescription@$00@Phonon@@@@XZ @ 238 NONAME ; class QList<class Phonon::ObjectDescription<1> > Phonon::BackendCapabilities::availableAudioEffects(void)
	?seek@VideoPlayer@Phonon@@QAEX_J@Z @ 239 NONAME ; void Phonon::VideoPlayer::seek(long long)
	?setCurrentChapter@MediaController@Phonon@@QAEXH@Z @ 240 NONAME ; void Phonon::MediaController::setCurrentChapter(int)
	??0AbstractMediaStreamPrivate@Phonon@@IAE@XZ @ 241 NONAME ; Phonon::AbstractMediaStreamPrivate::AbstractMediaStreamPrivate(void)
	?singleStep@VolumeSlider@Phonon@@QBEHXZ @ 242 NONAME ; int Phonon::VolumeSlider::singleStep(void) const
	?addOutputPath@MediaNodePrivate@Phonon@@QAEXABVPath@2@@Z @ 243 NONAME ; void Phonon::MediaNodePrivate::addOutputPath(class Phonon::Path const &)
	?backend@Factory@Phonon@@YAPAVQObject@@_N@Z @ 244 NONAME ; class QObject * Phonon::Factory::backend(bool)
	?defaultValue@EffectParameter@Phonon@@QBE?AVQVariant@@XZ @ 245 NONAME ; class QVariant Phonon::EffectParameter::defaultValue(void) const
	?k_func@MediaNode@Phonon@@ABEPBVMediaNodePrivate@2@XZ @ 246 NONAME ; class Phonon::MediaNodePrivate const * Phonon::MediaNode::k_func(void) const
	?remainingTime@MediaObject@Phonon@@QBE_JXZ @ 247 NONAME ; long long Phonon::MediaObject::remainingTime(void) const
	?moveUp@ObjectDescriptionModelData@Phonon@@QAEXABVQModelIndex@@@Z @ 248 NONAME ; void Phonon::ObjectDescriptionModelData::moveUp(class QModelIndex const &)
	??0AudioOutput@Phonon@@QAE@PAVQObject@@@Z @ 249 NONAME ; Phonon::AudioOutput::AudioOutput(class QObject *)
	?setPrefinishMark@MediaObject@Phonon@@QAEXH@Z @ 250 NONAME ; void Phonon::MediaObject::setPrefinishMark(int)
	?bufferStatus@MediaObject@Phonon@@IAEXH@Z @ 251 NONAME ; void Phonon::MediaObject::bufferStatus(int)
	?qt_metacall@VideoPlayer@Phonon@@UAEHW4Call@QMetaObject@@HPAPAX@Z @ 252 NONAME ; int Phonon::VideoPlayer::qt_metacall(enum QMetaObject::Call, int, void * *)
	?setCurrentTitle@MediaController@Phonon@@QAEXH@Z @ 253 NONAME ; void Phonon::MediaController::setCurrentTitle(int)
	?getStaticMetaObject@MediaObject@Phonon@@SAABUQMetaObject@@XZ @ 254 NONAME ; struct QMetaObject const & Phonon::MediaObject::getStaticMetaObject(void)
	?supportedFeatures@MediaController@Phonon@@QBE?AV?$QFlags@W4Feature@MediaController@Phonon@@@@XZ @ 255 NONAME ; class QFlags<enum Phonon::MediaController::Feature> Phonon::MediaController::supportedFeatures(void) const
	?metaData@MediaObject@Phonon@@QBE?AVQStringList@@W4MetaData@2@@Z @ 256 NONAME ; class QStringList Phonon::MediaObject::metaData(enum Phonon::MetaData) const
	?currentAudioChannel@MediaController@Phonon@@QBE?AV?$ObjectDescription@$01@2@XZ @ 257 NONAME ; class Phonon::ObjectDescription<2> Phonon::MediaController::currentAudioChannel(void) const
	?isMuteVisible@VolumeSlider@Phonon@@QBE_NXZ @ 258 NONAME ; bool Phonon::VolumeSlider::isMuteVisible(void) const
	?qObject@MediaNodePrivate@Phonon@@QBEPBVQObject@@XZ @ 259 NONAME ; class QObject const * Phonon::MediaNodePrivate::qObject(void) const
	?setStreamSize@AbstractMediaStreamPrivate@Phonon@@MAEX_J@Z @ 260 NONAME ; void Phonon::AbstractMediaStreamPrivate::setStreamSize(long long)
	?trUtf8@AbstractAudioOutput@Phonon@@SA?AVQString@@PBD0H@Z @ 261 NONAME ; class QString Phonon::AbstractAudioOutput::trUtf8(char const *, char const *, int)
	?getStaticMetaObject@SeekSlider@Phonon@@SAABUQMetaObject@@XZ @ 262 NONAME ; struct QMetaObject const & Phonon::SeekSlider::getStaticMetaObject(void)
	?currentTitle@MediaController@Phonon@@QBEHXZ @ 263 NONAME ; int Phonon::MediaController::currentTitle(void) const
	?k_func@VolumeFaderEffect@Phonon@@AAEPAVVolumeFaderEffectPrivate@2@XZ @ 264 NONAME ; class Phonon::VolumeFaderEffectPrivate * Phonon::VolumeFaderEffect::k_func(void)
	?volume@VolumeFaderEffect@Phonon@@QBEMXZ @ 265 NONAME ; float Phonon::VolumeFaderEffect::volume(void) const
	?k_func@EffectWidget@Phonon@@AAEPAVEffectWidgetPrivate@2@XZ @ 266 NONAME ; class Phonon::EffectWidgetPrivate * Phonon::EffectWidget::k_func(void)
	?isSeekable@MediaObject@Phonon@@QBE_NXZ @ 267 NONAME ; bool Phonon::MediaObject::isSeekable(void) const
	?k_func@AbstractAudioOutput@Phonon@@ABEPBVAbstractAudioOutputPrivate@2@XZ @ 268 NONAME ; class Phonon::AbstractAudioOutputPrivate const * Phonon::AbstractAudioOutput::k_func(void) const
	?parameters@Effect@Phonon@@QBE?AV?$QList@VEffectParameter@Phonon@@@@XZ @ 269 NONAME ; class QList<class Phonon::EffectParameter> Phonon::Effect::parameters(void) const
	?setVolume@AudioOutput@Phonon@@QAEXM@Z @ 270 NONAME ; void Phonon::AudioOutput::setVolume(float)
	?tr@VolumeSlider@Phonon@@SA?AVQString@@PBD0H@Z @ 271 NONAME ; class QString Phonon::VolumeSlider::tr(char const *, char const *, int)
	?setTickInterval@MediaObject@Phonon@@QAEXH@Z @ 272 NONAME ; void Phonon::MediaObject::setTickInterval(int)
	?tupleIndexOrder@ObjectDescriptionModelData@Phonon@@QBE?AV?$QList@H@@XZ @ 273 NONAME ; class QList<int> Phonon::ObjectDescriptionModelData::tupleIndexOrder(void) const
	?metaObject@SeekSlider@Phonon@@UBEPBUQMetaObject@@XZ @ 274 NONAME ; struct QMetaObject const * Phonon::SeekSlider::metaObject(void) const
	?k_func@MediaObject@Phonon@@AAEPAVMediaObjectPrivate@2@XZ @ 275 NONAME ; class Phonon::MediaObjectPrivate * Phonon::MediaObject::k_func(void)
	?singleStep@SeekSlider@Phonon@@QBEHXZ @ 276 NONAME ; int Phonon::SeekSlider::singleStep(void) const
	?getStaticMetaObject@Effect@Phonon@@SAABUQMetaObject@@XZ @ 277 NONAME ; struct QMetaObject const & Phonon::Effect::getStaticMetaObject(void)
	?qt_metacall@AbstractAudioOutput@Phonon@@UAEHW4Call@QMetaObject@@HPAPAX@Z @ 278 NONAME ; int Phonon::AbstractAudioOutput::qt_metacall(enum QMetaObject::Call, int, void * *)
	??_EMediaController@Phonon@@UAE@I@Z @ 279 NONAME ; Phonon::MediaController::~MediaController(unsigned int)
	??0AbstractAudioOutput@Phonon@@IAE@AAVAbstractAudioOutputPrivate@1@PAVQObject@@@Z @ 280 NONAME ; Phonon::AbstractAudioOutput::AbstractAudioOutput(class Phonon::AbstractAudioOutputPrivate &, class QObject *)
	?phononObjectDestroyed@AbstractMediaStreamPrivate@Phonon@@MAEXPAVMediaNodePrivate@2@@Z @ 281 NONAME ; void Phonon::AbstractMediaStreamPrivate::phononObjectDestroyed(class Phonon::MediaNodePrivate *)
	??_EAbstractAudioOutput@Phonon@@UAE@I@Z @ 282 NONAME ; Phonon::AbstractAudioOutput::~AbstractAudioOutput(unsigned int)
	??1MediaNode@Phonon@@UAE@XZ @ 283 NONAME ; Phonon::MediaNode::~MediaNode(void)
	?isMimeTypeAvailable@BackendCapabilities@Phonon@@YA_NABVQString@@@Z @ 284 NONAME ; bool Phonon::BackendCapabilities::isMimeTypeAvailable(class QString const &)
	?contrast@VideoWidget@Phonon@@QBEMXZ @ 285 NONAME ; float Phonon::VideoWidget::contrast(void) const
	??0GlobalConfig@Phonon@@QAE@XZ @ 286 NONAME ; Phonon::GlobalConfig::GlobalConfig(void)
	?tick@MediaObject@Phonon@@IAEX_J@Z @ 287 NONAME ; void Phonon::MediaObject::tick(long long)
	?d_func@AbstractMediaStream@Phonon@@ABEPBVAbstractMediaStreamPrivate@2@XZ @ 288 NONAME ; class Phonon::AbstractMediaStreamPrivate const * Phonon::AbstractMediaStream::d_func(void) const
	??8ObjectDescriptionData@Phonon@@QBE_NABV01@@Z @ 289 NONAME ; bool Phonon::ObjectDescriptionData::operator==(class Phonon::ObjectDescriptionData const &) const
	?hasTracking@SeekSlider@Phonon@@QBE_NXZ @ 290 NONAME ; bool Phonon::SeekSlider::hasTracking(void) const
	?writeData@AbstractMediaStream@Phonon@@IAEXABVQByteArray@@@Z @ 291 NONAME ; void Phonon::AbstractMediaStream::writeData(class QByteArray const &)
	?prefinishMark@MediaObject@Phonon@@QBEHXZ @ 292 NONAME ; int Phonon::MediaObject::prefinishMark(void) const
	?staticMetaObject@SeekSlider@Phonon@@2UQMetaObject@@B @ 293 NONAME ; struct QMetaObject const Phonon::SeekSlider::staticMetaObject
	?angleChanged@MediaController@Phonon@@IAEXH@Z @ 294 NONAME ; void Phonon::MediaController::angleChanged(int)
	?enoughData@AbstractMediaStream@Phonon@@MAEXXZ @ 295 NONAME ; void Phonon::AbstractMediaStream::enoughData(void)
	?seekableChanged@MediaObject@Phonon@@IAEX_N@Z @ 296 NONAME ; void Phonon::MediaObject::seekableChanged(bool)
	?hue@VideoWidget@Phonon@@QBEMXZ @ 297 NONAME ; float Phonon::VideoWidget::hue(void) const
	?currentAngle@MediaController@Phonon@@QBEHXZ @ 298 NONAME ; int Phonon::MediaController::currentAngle(void) const
	?fileName@MediaSource@Phonon@@QBE?AVQString@@XZ @ 299 NONAME ; class QString Phonon::MediaSource::fileName(void) const
	?metaObject@?$ObjectDescriptionModel@$0A@@Phonon@@UBEPBUQMetaObject@@XZ @ 300 NONAME ; struct QMetaObject const * Phonon::ObjectDescriptionModel<0>::metaObject(void) const
	?tr@AbstractMediaStream@Phonon@@SA?AVQString@@PBD0@Z @ 301 NONAME ; class QString Phonon::AbstractMediaStream::tr(char const *, char const *)
	??_EObjectDescriptionData@Phonon@@QAE@I@Z @ 302 NONAME ; Phonon::ObjectDescriptionData::~ObjectDescriptionData(unsigned int)
	?fadeIn@VolumeFaderEffect@Phonon@@QAEXH@Z @ 303 NONAME ; void Phonon::VolumeFaderEffect::fadeIn(int)
	?availableAngles@MediaController@Phonon@@QBEHXZ @ 304 NONAME ; int Phonon::MediaController::availableAngles(void) const
	?enqueue@MediaObject@Phonon@@QAEXABVMediaSource@2@@Z @ 305 NONAME ; void Phonon::MediaObject::enqueue(class Phonon::MediaSource const &)
	?metaObject@EffectWidget@Phonon@@UBEPBUQMetaObject@@XZ @ 306 NONAME ; struct QMetaObject const * Phonon::EffectWidget::metaObject(void) const
	?type@MediaSource@Phonon@@QBE?AW4Type@12@XZ @ 307 NONAME ; enum Phonon::MediaSource::Type Phonon::MediaSource::type(void) const
	?tr@VideoWidget@Phonon@@SA?AVQString@@PBD0H@Z @ 308 NONAME ; class QString Phonon::VideoWidget::tr(char const *, char const *, int)
	?isValid@Path@Phonon@@QBE_NXZ @ 309 NONAME ; bool Phonon::Path::isValid(void) const
	?qt_metacast@?$ObjectDescriptionModel@$02@Phonon@@UAEPAXPBD@Z @ 310 NONAME ; void * Phonon::ObjectDescriptionModel<3>::qt_metacast(char const *)
	?trUtf8@MediaController@Phonon@@SA?AVQString@@PBD0H@Z @ 311 NONAME ; class QString Phonon::MediaController::trUtf8(char const *, char const *, int)
	?setTransitionTime@MediaObject@Phonon@@QAEXH@Z @ 312 NONAME ; void Phonon::MediaObject::setTransitionTime(int)
	?sender@Factory@Phonon@@YAPAVSender@12@XZ @ 313 NONAME ; class Phonon::Factory::Sender * Phonon::Factory::sender(void)
	?trUtf8@SeekSlider@Phonon@@SA?AVQString@@PBD0H@Z @ 314 NONAME ; class QString Phonon::SeekSlider::trUtf8(char const *, char const *, int)
	?availableAudioOutputDevices@BackendCapabilities@Phonon@@YA?AV?$QList@V?$ObjectDescription@$0A@@Phonon@@@@XZ @ 315 NONAME ; class QList<class Phonon::ObjectDescription<0> > Phonon::BackendCapabilities::availableAudioOutputDevices(void)
	?tr@AbstractAudioOutput@Phonon@@SA?AVQString@@PBD0H@Z @ 316 NONAME ; class QString Phonon::AbstractAudioOutput::tr(char const *, char const *, int)
	?k_func@AbstractVideoOutput@Phonon@@ABEPBVAbstractVideoOutputPrivate@2@XZ @ 317 NONAME ; class Phonon::AbstractVideoOutputPrivate const * Phonon::AbstractVideoOutput::k_func(void) const
	?setSaturation@VideoWidget@Phonon@@QAEXM@Z @ 318 NONAME ; void Phonon::VideoWidget::setSaturation(float)
	?removeOutputPath@MediaNodePrivate@Phonon@@QAEXABVPath@2@@Z @ 319 NONAME ; void Phonon::MediaNodePrivate::removeOutputPath(class Phonon::Path const &)
	?fadeOut@VolumeFaderEffect@Phonon@@QAEXH@Z @ 320 NONAME ; void Phonon::VolumeFaderEffect::fadeOut(int)
	??0MediaSource@Phonon@@QAE@PAVAbstractMediaStream@1@@Z @ 321 NONAME ; Phonon::MediaSource::MediaSource(class Phonon::AbstractMediaStream *)
	??0MediaObject@Phonon@@QAE@PAVQObject@@@Z @ 322 NONAME ; Phonon::MediaObject::MediaObject(class QObject *)
	?setSingleStep@VolumeSlider@Phonon@@QAEXH@Z @ 323 NONAME ; void Phonon::VolumeSlider::setSingleStep(int)
	?setCurrentSource@MediaObject@Phonon@@QAEXABVMediaSource@2@@Z @ 324 NONAME ; void Phonon::MediaObject::setCurrentSource(class Phonon::MediaSource const &)
	??1VolumeFaderEffect@Phonon@@UAE@XZ @ 325 NONAME ; Phonon::VolumeFaderEffect::~VolumeFaderEffect(void)
	?errorType@MediaObject@Phonon@@QBE?AW4ErrorType@2@XZ @ 326 NONAME ; enum Phonon::ErrorType Phonon::MediaObject::errorType(void) const
	?k_func@VolumeFaderEffect@Phonon@@ABEPBVVolumeFaderEffectPrivate@2@XZ @ 327 NONAME ; class Phonon::VolumeFaderEffectPrivate const * Phonon::VolumeFaderEffect::k_func(void) const
	?setStreamSize@AbstractMediaStream@Phonon@@IAEX_J@Z @ 328 NONAME ; void Phonon::AbstractMediaStream::setStreamSize(long long)
	?trUtf8@Effect@Phonon@@SA?AVQString@@PBD0@Z @ 329 NONAME ; class QString Phonon::Effect::trUtf8(char const *, char const *)
	?trUtf8@MediaObject@Phonon@@SA?AVQString@@PBD0H@Z @ 330 NONAME ; class QString Phonon::MediaObject::trUtf8(char const *, char const *, int)
	?supportedDropActions@ObjectDescriptionModelData@Phonon@@QBE?AV?$QFlags@W4DropAction@Qt@@@@XZ @ 331 NONAME ; class QFlags<enum Qt::DropAction> Phonon::ObjectDescriptionModelData::supportedDropActions(void) const
	??0VideoPlayer@Phonon@@QAE@W4Category@1@PAVQWidget@@@Z @ 332 NONAME ; Phonon::VideoPlayer::VideoPlayer(enum Phonon::Category, class QWidget *)
	??0EffectWidget@Phonon@@QAE@PAVEffect@1@PAVQWidget@@@Z @ 333 NONAME ; Phonon::EffectWidget::EffectWidget(class Phonon::Effect *, class QWidget *)
	?trUtf8@VideoPlayer@Phonon@@SA?AVQString@@PBD0H@Z @ 334 NONAME ; class QString Phonon::VideoPlayer::trUtf8(char const *, char const *, int)
	?tr@VolumeFaderEffect@Phonon@@SA?AVQString@@PBD0H@Z @ 335 NONAME ; class QString Phonon::VolumeFaderEffect::tr(char const *, char const *, int)
	?setContrast@VideoWidget@Phonon@@QAEXM@Z @ 336 NONAME ; void Phonon::VideoWidget::setContrast(float)
	??1SeekSlider@Phonon@@UAE@XZ @ 337 NONAME ; Phonon::SeekSlider::~SeekSlider(void)
	?disconnect@Path@Phonon@@QAE_NXZ @ 338 NONAME ; bool Phonon::Path::disconnect(void)
	?trUtf8@EffectWidget@Phonon@@SA?AVQString@@PBD0H@Z @ 339 NONAME ; class QString Phonon::EffectWidget::trUtf8(char const *, char const *, int)
	?fadeCurve@VolumeFaderEffect@Phonon@@QBE?AW4FadeCurve@12@XZ @ 340 NONAME ; enum Phonon::VolumeFaderEffect::FadeCurve Phonon::VolumeFaderEffect::fadeCurve(void) const
	?errorString@MediaObject@Phonon@@QBE?AVQString@@XZ @ 341 NONAME ; class QString Phonon::MediaObject::errorString(void) const
	??_EAbstractVideoOutput@Phonon@@UAE@I@Z @ 342 NONAME ; Phonon::AbstractVideoOutput::~AbstractVideoOutput(unsigned int)
	?metaObject@AbstractAudioOutput@Phonon@@UBEPBUQMetaObject@@XZ @ 343 NONAME ; struct QMetaObject const * Phonon::AbstractAudioOutput::metaObject(void) const
	?pause@VideoPlayer@Phonon@@QAEXXZ @ 344 NONAME ; void Phonon::VideoPlayer::pause(void)
	?tr@MediaController@Phonon@@SA?AVQString@@PBD0H@Z @ 345 NONAME ; class QString Phonon::MediaController::tr(char const *, char const *, int)
	?seekStream@StreamInterface@Phonon@@QAEX_J@Z @ 346 NONAME ; void Phonon::StreamInterface::seekStream(long long)
	?enqueue@MediaObject@Phonon@@QAEXABV?$QList@VQUrl@@@@@Z @ 347 NONAME ; void Phonon::MediaObject::enqueue(class QList<class QUrl> const &)
	?getStaticMetaObject@VideoWidget@Phonon@@SAABUQMetaObject@@XZ @ 348 NONAME ; struct QMetaObject const & Phonon::VideoWidget::getStaticMetaObject(void)
	?isMuted@AudioOutput@Phonon@@QBE_NXZ @ 349 NONAME ; bool Phonon::AudioOutput::isMuted(void) const
	??1ObjectDescriptionData@Phonon@@QAE@XZ @ 350 NONAME ; Phonon::ObjectDescriptionData::~ObjectDescriptionData(void)
	?availableAnglesChanged@MediaController@Phonon@@IAEXH@Z @ 351 NONAME ; void Phonon::MediaController::availableAnglesChanged(int)
	?trUtf8@MediaObject@Phonon@@SA?AVQString@@PBD0@Z @ 352 NONAME ; class QString Phonon::MediaObject::trUtf8(char const *, char const *)
	??0AbstractMediaStream@Phonon@@IAE@AAVAbstractMediaStreamPrivate@1@PAVQObject@@@Z @ 353 NONAME ; Phonon::AbstractMediaStream::AbstractMediaStream(class Phonon::AbstractMediaStreamPrivate &, class QObject *)
	?index@ObjectDescriptionData@Phonon@@QBEHXZ @ 354 NONAME ; int Phonon::ObjectDescriptionData::index(void) const
	?stateChanged@MediaObject@Phonon@@IAEXW4State@2@0@Z @ 355 NONAME ; void Phonon::MediaObject::stateChanged(enum Phonon::State, enum Phonon::State)
	?tr@AudioOutput@Phonon@@SA?AVQString@@PBD0H@Z @ 356 NONAME ; class QString Phonon::AudioOutput::tr(char const *, char const *, int)
	?trUtf8@AbstractMediaStream@Phonon@@SA?AVQString@@PBD0H@Z @ 357 NONAME ; class QString Phonon::AbstractMediaStream::trUtf8(char const *, char const *, int)
	?metaObject@VolumeSlider@Phonon@@UBEPBUQMetaObject@@XZ @ 358 NONAME ; struct QMetaObject const * Phonon::VolumeSlider::metaObject(void) const
	?k_func@SeekSlider@Phonon@@AAEPAVSeekSliderPrivate@2@XZ @ 359 NONAME ; class Phonon::SeekSliderPrivate * Phonon::SeekSlider::k_func(void)
	?getStaticMetaObject@VideoPlayer@Phonon@@SAABUQMetaObject@@XZ @ 360 NONAME ; struct QMetaObject const & Phonon::VideoPlayer::getStaticMetaObject(void)
	?availableTitlesChanged@MediaController@Phonon@@IAEXH@Z @ 361 NONAME ; void Phonon::MediaController::availableTitlesChanged(int)
	?isLogarithmicControl@EffectParameter@Phonon@@QBE_NXZ @ 362 NONAME ; bool Phonon::EffectParameter::isLogarithmicControl(void) const
	?setStreamSeekable@AbstractMediaStreamPrivate@Phonon@@MAEX_N@Z @ 363 NONAME ; void Phonon::AbstractMediaStreamPrivate::setStreamSeekable(bool)
	??0VideoPlayer@Phonon@@QAE@PAVQWidget@@@Z @ 364 NONAME ; Phonon::VideoPlayer::VideoPlayer(class QWidget *)
	?tr@SeekSlider@Phonon@@SA?AVQString@@PBD0H@Z @ 365 NONAME ; class QString Phonon::SeekSlider::tr(char const *, char const *, int)
	?qt_metacast@SeekSlider@Phonon@@UAEPAXPBD@Z @ 366 NONAME ; void * Phonon::SeekSlider::qt_metacast(char const *)
	?metaDataChanged@MediaObject@Phonon@@IAEXXZ @ 367 NONAME ; void Phonon::MediaObject::metaDataChanged(void)
	?setIconVisible@SeekSlider@Phonon@@QAEX_N@Z @ 368 NONAME ; void Phonon::SeekSlider::setIconVisible(bool)
	??1AbstractMediaStream@Phonon@@UAE@XZ @ 369 NONAME ; Phonon::AbstractMediaStream::~AbstractMediaStream(void)
	?maximumValue@EffectParameter@Phonon@@QBE?AVQVariant@@XZ @ 370 NONAME ; class QVariant Phonon::EffectParameter::maximumValue(void) const
	?registerFrontendObject@Factory@Phonon@@YAXPAVMediaNodePrivate@2@@Z @ 371 NONAME ; void Phonon::Factory::registerFrontendObject(class Phonon::MediaNodePrivate *)
	?trUtf8@VolumeSlider@Phonon@@SA?AVQString@@PBD0@Z @ 372 NONAME ; class QString Phonon::VolumeSlider::trUtf8(char const *, char const *)
	?removeRows@ObjectDescriptionModelData@Phonon@@QAE_NHHABVQModelIndex@@@Z @ 373 NONAME ; bool Phonon::ObjectDescriptionModelData::removeRows(int, int, class QModelIndex const &)
	??1MediaNodePrivate@Phonon@@MAE@XZ @ 374 NONAME ; Phonon::MediaNodePrivate::~MediaNodePrivate(void)
	??0Effect@Phonon@@IAE@AAVEffectPrivate@1@PAVQObject@@@Z @ 375 NONAME ; Phonon::Effect::Effect(class Phonon::EffectPrivate &, class QObject *)
	?removeEffect@Path@Phonon@@QAE_NPAVEffect@2@@Z @ 376 NONAME ; bool Phonon::Path::removeEffect(class Phonon::Effect *)
	?deviceName@MediaSource@Phonon@@QBE?AVQString@@XZ @ 377 NONAME ; class QString Phonon::MediaSource::deviceName(void) const
	?reset@StreamInterface@Phonon@@QAEXXZ @ 378 NONAME ; void Phonon::StreamInterface::reset(void)
	?iconSize@SeekSlider@Phonon@@QBE?AVQSize@@XZ @ 379 NONAME ; class QSize Phonon::SeekSlider::iconSize(void) const
	?staticMetaObject@VolumeSlider@Phonon@@2UQMetaObject@@B @ 380 NONAME ; struct QMetaObject const Phonon::VolumeSlider::staticMetaObject
	?mimeData@ObjectDescriptionModelData@Phonon@@QBEPAVQMimeData@@W4ObjectDescriptionType@2@ABV?$QList@VQModelIndex@@@@@Z @ 381 NONAME ; class QMimeData * Phonon::ObjectDescriptionModelData::mimeData(enum Phonon::ObjectDescriptionType, class QList<class QModelIndex> const &) const
	?discType@MediaSource@Phonon@@QBE?AW4DiscType@2@XZ @ 382 NONAME ; enum Phonon::DiscType Phonon::MediaSource::discType(void) const
	?dropMimeData@ObjectDescriptionModelData@Phonon@@QAE_NW4ObjectDescriptionType@2@PBVQMimeData@@W4DropAction@Qt@@HHABVQModelIndex@@@Z @ 383 NONAME ; bool Phonon::ObjectDescriptionModelData::dropMimeData(enum Phonon::ObjectDescriptionType, class QMimeData const *, enum Qt::DropAction, int, int, class QModelIndex const &)
	?description@Effect@Phonon@@QBE?AV?$ObjectDescription@$00@2@XZ @ 384 NONAME ; class Phonon::ObjectDescription<1> Phonon::Effect::description(void) const
	?getStaticMetaObject@AudioOutput@Phonon@@SAABUQMetaObject@@XZ @ 385 NONAME ; struct QMetaObject const & Phonon::AudioOutput::getStaticMetaObject(void)
	?removeDestructionHandler@MediaNodePrivate@Phonon@@QAEXPAVMediaNodeDestructionHandler@2@@Z @ 386 NONAME ; void Phonon::MediaNodePrivate::removeDestructionHandler(class Phonon::MediaNodeDestructionHandler *)
	?tickInterval@MediaObject@Phonon@@QBEHXZ @ 387 NONAME ; int Phonon::MediaObject::tickInterval(void) const
	?prefinishMarkReached@MediaObject@Phonon@@IAEXH@Z @ 388 NONAME ; void Phonon::MediaObject::prefinishMarkReached(int)
	?pageStep@VolumeSlider@Phonon@@QBEHXZ @ 389 NONAME ; int Phonon::VolumeSlider::pageStep(void) const
	??1VolumeSlider@Phonon@@UAE@XZ @ 390 NONAME ; Phonon::VolumeSlider::~VolumeSlider(void)
	?minimumValue@EffectParameter@Phonon@@QBE?AVQVariant@@XZ @ 391 NONAME ; class QVariant Phonon::EffectParameter::minimumValue(void) const
	?tr@VolumeFaderEffect@Phonon@@SA?AVQString@@PBD0@Z @ 392 NONAME ; class QString Phonon::VolumeFaderEffect::tr(char const *, char const *)
	?reconnect@Path@Phonon@@QAE_NPAVMediaNode@2@0@Z @ 393 NONAME ; bool Phonon::Path::reconnect(class Phonon::MediaNode *, class Phonon::MediaNode *)
	?k_func@VideoWidget@Phonon@@AAEPAVVideoWidgetPrivate@2@XZ @ 394 NONAME ; class Phonon::VideoWidgetPrivate * Phonon::VideoWidget::k_func(void)
	?qt_metacall@EffectWidget@Phonon@@UAEHW4Call@QMetaObject@@HPAPAX@Z @ 395 NONAME ; int Phonon::EffectWidget::qt_metacall(enum QMetaObject::Call, int, void * *)
	?qt_metacast@AudioOutput@Phonon@@UAEPAXPBD@Z @ 396 NONAME ; void * Phonon::AudioOutput::qt_metacast(char const *)
	?autoDelete@MediaSource@Phonon@@QBE_NXZ @ 397 NONAME ; bool Phonon::MediaSource::autoDelete(void) const
	?k_func@MediaObject@Phonon@@ABEPBVMediaObjectPrivate@2@XZ @ 398 NONAME ; class Phonon::MediaObjectPrivate const * Phonon::MediaObject::k_func(void) const
	?createPlayer@Phonon@@YAPAVMediaObject@1@W4Category@1@ABVMediaSource@1@@Z @ 399 NONAME ; class Phonon::MediaObject * Phonon::createPlayer(enum Phonon::Category, class Phonon::MediaSource const &)
	?aboutToFinish@MediaObject@Phonon@@IAEXXZ @ 400 NONAME ; void Phonon::MediaObject::aboutToFinish(void)
	?setSingleStep@SeekSlider@Phonon@@QAEXH@Z @ 401 NONAME ; void Phonon::SeekSlider::setSingleStep(int)
	?trUtf8@VolumeSlider@Phonon@@SA?AVQString@@PBD0H@Z @ 402 NONAME ; class QString Phonon::VolumeSlider::trUtf8(char const *, char const *, int)
	??1VideoPlayer@Phonon@@UAE@XZ @ 403 NONAME ; Phonon::VideoPlayer::~VideoPlayer(void)
	??9Path@Phonon@@QBE_NABV01@@Z @ 404 NONAME ; bool Phonon::Path::operator!=(class Phonon::Path const &) const
	?metaObject@?$ObjectDescriptionModel@$01@Phonon@@UBEPBUQMetaObject@@XZ @ 405 NONAME ; struct QMetaObject const * Phonon::ObjectDescriptionModel<2>::metaObject(void) const
	?backendObject@MediaNodePrivate@Phonon@@QAEPAVQObject@@XZ @ 406 NONAME ; class QObject * Phonon::MediaNodePrivate::backendObject(void)
	??8Path@Phonon@@QBE_NABV01@@Z @ 407 NONAME ; bool Phonon::Path::operator==(class Phonon::Path const &) const
	??1MediaSource@Phonon@@QAE@XZ @ 408 NONAME ; Phonon::MediaSource::~MediaSource(void)
	?setBackend@Factory@Phonon@@YAXPAVQObject@@@Z @ 409 NONAME ; void Phonon::Factory::setBackend(class QObject *)
	?staticMetaObject@VideoWidget@Phonon@@2UQMetaObject@@B @ 410 NONAME ; struct QMetaObject const Phonon::VideoWidget::staticMetaObject
	?staticMetaObject@MediaController@Phonon@@2UQMetaObject@@B @ 411 NONAME ; struct QMetaObject const Phonon::MediaController::staticMetaObject
	?trUtf8@EffectWidget@Phonon@@SA?AVQString@@PBD0@Z @ 412 NONAME ; class QString Phonon::EffectWidget::trUtf8(char const *, char const *)
	??0MediaSource@Phonon@@QAE@XZ @ 413 NONAME ; Phonon::MediaSource::MediaSource(void)
	?trUtf8@Effect@Phonon@@SA?AVQString@@PBD0H@Z @ 414 NONAME ; class QString Phonon::Effect::trUtf8(char const *, char const *, int)
	?registerQObject@Factory@Phonon@@YAPAVQObject@@PAV3@@Z @ 415 NONAME ; class QObject * Phonon::Factory::registerQObject(class QObject *)
	?metaObject@MediaObject@Phonon@@UBEPBUQMetaObject@@XZ @ 416 NONAME ; struct QMetaObject const * Phonon::MediaObject::metaObject(void) const
	?qt_metacast@VideoWidget@Phonon@@UAEPAXPBD@Z @ 417 NONAME ; void * Phonon::VideoWidget::qt_metacast(char const *)
	?tr@MediaObject@Phonon@@SA?AVQString@@PBD0@Z @ 418 NONAME ; class QString Phonon::MediaObject::tr(char const *, char const *)
	?tr@AbstractMediaStream@Phonon@@SA?AVQString@@PBD0H@Z @ 419 NONAME ; class QString Phonon::AbstractMediaStream::tr(char const *, char const *, int)
	?metaObject@VideoPlayer@Phonon@@UBEPBUQMetaObject@@XZ @ 420 NONAME ; struct QMetaObject const * Phonon::VideoPlayer::metaObject(void) const
	??0MediaSource@Phonon@@QAE@ABVQString@@@Z @ 421 NONAME ; Phonon::MediaSource::MediaSource(class QString const &)
	?setCurrentAngle@MediaController@Phonon@@QAEXH@Z @ 422 NONAME ; void Phonon::MediaController::setCurrentAngle(int)
	?setOrientation@VolumeSlider@Phonon@@QAEXW4Orientation@Qt@@@Z @ 423 NONAME ; void Phonon::VolumeSlider::setOrientation(enum Qt::Orientation)
	?volumeDecibel@AudioOutput@Phonon@@QBEMXZ @ 424 NONAME ; float Phonon::AudioOutput::volumeDecibel(void) const
	?removeInputPath@MediaNodePrivate@Phonon@@QAEXABVPath@2@@Z @ 425 NONAME ; void Phonon::MediaNodePrivate::removeInputPath(class Phonon::Path const &)
	?k_func@AudioOutput@Phonon@@AAEPAVAudioOutputPrivate@2@XZ @ 426 NONAME ; class Phonon::AudioOutputPrivate * Phonon::AudioOutput::k_func(void)
	?qt_metacast@EffectWidget@Phonon@@UAEPAXPBD@Z @ 427 NONAME ; void * Phonon::EffectWidget::qt_metacast(char const *)
	?getStaticMetaObject@AbstractAudioOutput@Phonon@@SAABUQMetaObject@@XZ @ 428 NONAME ; struct QMetaObject const & Phonon::AbstractAudioOutput::getStaticMetaObject(void)
	?availableChapters@MediaController@Phonon@@QBEHXZ @ 429 NONAME ; int Phonon::MediaController::availableChapters(void) const
	?play@VideoPlayer@Phonon@@QAEXXZ @ 430 NONAME ; void Phonon::VideoPlayer::play(void)
	?name@AudioOutput@Phonon@@QBE?AVQString@@XZ @ 431 NONAME ; class QString Phonon::AudioOutput::name(void) const
	?staticMetaObject@Effect@Phonon@@2UQMetaObject@@B @ 432 NONAME ; struct QMetaObject const Phonon::Effect::staticMetaObject
	??0AbstractMediaStream@Phonon@@IAE@PAVQObject@@@Z @ 433 NONAME ; Phonon::AbstractMediaStream::AbstractMediaStream(class QObject *)
	?tr@MediaController@Phonon@@SA?AVQString@@PBD0@Z @ 434 NONAME ; class QString Phonon::MediaController::tr(char const *, char const *)
	?metaObject@VolumeFaderEffect@Phonon@@UBEPBUQMetaObject@@XZ @ 435 NONAME ; struct QMetaObject const * Phonon::VolumeFaderEffect::metaObject(void) const
	?setAutoDelete@MediaSource@Phonon@@QAEX_N@Z @ 436 NONAME ; void Phonon::MediaSource::setAutoDelete(bool)
	?pageStep@SeekSlider@Phonon@@QBEHXZ @ 437 NONAME ; int Phonon::SeekSlider::pageStep(void) const
	?staticMetaObject@?$ObjectDescriptionModel@$00@Phonon@@2UQMetaObject@@B @ 438 NONAME ; struct QMetaObject const Phonon::ObjectDescriptionModel<1>::staticMetaObject
	?propertyNames@ObjectDescriptionData@Phonon@@QBE?AV?$QList@VQByteArray@@@@XZ @ 439 NONAME ; class QList<class QByteArray> Phonon::ObjectDescriptionData::propertyNames(void) const
	?metaObject@AbstractMediaStream@Phonon@@UBEPBUQMetaObject@@XZ @ 440 NONAME ; struct QMetaObject const * Phonon::AbstractMediaStream::metaObject(void) const
	??0AudioOutput@Phonon@@QAE@W4Category@1@PAVQObject@@@Z @ 441 NONAME ; Phonon::AudioOutput::AudioOutput(enum Phonon::Category, class QObject *)
	??0EffectParameter@Phonon@@QAE@HABVQString@@V?$QFlags@W4Hint@EffectParameter@Phonon@@@@ABVQVariant@@22ABV?$QList@VQVariant@@@@0@Z @ 442 NONAME ; Phonon::EffectParameter::EffectParameter(int, class QString const &, class QFlags<enum Phonon::EffectParameter::Hint>, class QVariant const &, class QVariant const &, class QVariant const &, class QList<class QVariant> const &, class QString const &)
	??4EffectParameter@Phonon@@QAEAAV01@ABV01@@Z @ 443 NONAME ; class Phonon::EffectParameter & Phonon::EffectParameter::operator=(class Phonon::EffectParameter const &)
	?audioOutput@VideoPlayer@Phonon@@QBEPAVAudioOutput@2@XZ @ 444 NONAME ; class Phonon::AudioOutput * Phonon::VideoPlayer::audioOutput(void) const
	?q_func@AbstractMediaStreamPrivate@Phonon@@ABEPBVAbstractMediaStream@2@XZ @ 445 NONAME ; class Phonon::AbstractMediaStream const * Phonon::AbstractMediaStreamPrivate::q_func(void) const
	?setMuteVisible@VolumeSlider@Phonon@@QAEX_N@Z @ 446 NONAME ; void Phonon::VolumeSlider::setMuteVisible(bool)
	?qt_metacall@MediaController@Phonon@@UAEHW4Call@QMetaObject@@HPAPAX@Z @ 447 NONAME ; int Phonon::MediaController::qt_metacall(enum QMetaObject::Call, int, void * *)
	?source@Path@Phonon@@QBEPAVMediaNode@2@XZ @ 448 NONAME ; class Phonon::MediaNode * Phonon::Path::source(void) const
	?deviceAccessListFor@AudioOutputInterface42@Phonon@@QBE?AV?$QList@U?$QPair@VQByteArray@@VQString@@@@@@ABV?$ObjectDescription@$0A@@2@@Z @ 449 NONAME ; class QList<struct QPair<class QByteArray, class QString> > Phonon::AudioOutputInterface42::deviceAccessListFor(class Phonon::ObjectDescription<0> const &) const
	?aspectRatio@VideoWidget@Phonon@@QBE?AW4AspectRatio@12@XZ @ 450 NONAME ; enum Phonon::VideoWidget::AspectRatio Phonon::VideoWidget::aspectRatio(void) const
	?trUtf8@VideoWidget@Phonon@@SA?AVQString@@PBD0@Z @ 451 NONAME ; class QString Phonon::VideoWidget::trUtf8(char const *, char const *)
	?setupBackendObject@MediaObjectPrivate@Phonon@@IAEXXZ @ 452 NONAME ; void Phonon::MediaObjectPrivate::setupBackendObject(void)
	?iconSize@VolumeSlider@Phonon@@QBE?AVQSize@@XZ @ 453 NONAME ; class QSize Phonon::VolumeSlider::iconSize(void) const
	??0MediaSourcePrivate@Phonon@@QAE@W4Type@MediaSource@1@@Z @ 454 NONAME ; Phonon::MediaSourcePrivate::MediaSourcePrivate(enum Phonon::MediaSource::Type)
	?metaObject@?$ObjectDescriptionModel@$03@Phonon@@UBEPBUQMetaObject@@XZ @ 455 NONAME ; struct QMetaObject const * Phonon::ObjectDescriptionModel<4>::metaObject(void) const
	?setName@AudioOutput@Phonon@@QAEXABVQString@@@Z @ 456 NONAME ; void Phonon::AudioOutput::setName(class QString const &)
	?setStreamInterface@AbstractMediaStreamPrivate@Phonon@@QAEXPAVStreamInterface@2@@Z @ 457 NONAME ; void Phonon::AbstractMediaStreamPrivate::setStreamInterface(class Phonon::StreamInterface *)
	?clearQueue@MediaObject@Phonon@@QAEXXZ @ 458 NONAME ; void Phonon::MediaObject::clearQueue(void)
	?phononVersion@Phonon@@YAPBDXZ @ 459 NONAME ; char const * Phonon::phononVersion(void)
	?trUtf8@VideoPlayer@Phonon@@SA?AVQString@@PBD0@Z @ 460 NONAME ; class QString Phonon::VideoPlayer::trUtf8(char const *, char const *)
	?staticMetaObject@AbstractMediaStream@Phonon@@2UQMetaObject@@B @ 461 NONAME ; struct QMetaObject const Phonon::AbstractMediaStream::staticMetaObject
	?tr@SeekSlider@Phonon@@SA?AVQString@@PBD0@Z @ 462 NONAME ; class QString Phonon::SeekSlider::tr(char const *, char const *)
	??_EGlobalConfig@Phonon@@UAE@I@Z @ 463 NONAME ; Phonon::GlobalConfig::~GlobalConfig(unsigned int)
	?getStaticMetaObject@MediaController@Phonon@@SAABUQMetaObject@@XZ @ 464 NONAME ; struct QMetaObject const & Phonon::MediaController::getStaticMetaObject(void)
	?possibleValues@EffectParameter@Phonon@@QBE?AV?$QList@VQVariant@@@@XZ @ 465 NONAME ; class QList<class QVariant> Phonon::EffectParameter::possibleValues(void) const
	?pause@MediaObject@Phonon@@QAEXXZ @ 466 NONAME ; void Phonon::MediaObject::pause(void)
	??_EEffectWidget@Phonon@@UAE@I@Z @ 467 NONAME ; Phonon::EffectWidget::~EffectWidget(unsigned int)
	?totalTime@VideoPlayer@Phonon@@QBE_JXZ @ 468 NONAME ; long long Phonon::VideoPlayer::totalTime(void) const
	?inputPaths@MediaNode@Phonon@@QBE?AV?$QList@VPath@Phonon@@@@XZ @ 469 NONAME ; class QList<class Phonon::Path> Phonon::MediaNode::inputPaths(void) const
	??0VolumeSlider@Phonon@@QAE@PAVQWidget@@@Z @ 470 NONAME ; Phonon::VolumeSlider::VolumeSlider(class QWidget *)
	??1EffectParameter@Phonon@@QAE@XZ @ 471 NONAME ; Phonon::EffectParameter::~EffectParameter(void)
	?availableSubtitlesChanged@MediaController@Phonon@@IAEXXZ @ 472 NONAME ; void Phonon::MediaController::availableSubtitlesChanged(void)
	??1Effect@Phonon@@UAE@XZ @ 473 NONAME ; Phonon::Effect::~Effect(void)
	?qt_metacall@MediaObject@Phonon@@UAEHW4Call@QMetaObject@@HPAPAX@Z @ 474 NONAME ; int Phonon::MediaObject::qt_metacall(enum QMetaObject::Call, int, void * *)
	??0MediaSource@Phonon@@QAE@W4DiscType@1@ABVQString@@@Z @ 475 NONAME ; Phonon::MediaSource::MediaSource(enum Phonon::DiscType, class QString const &)
	?needData@StreamInterface@Phonon@@QAEXXZ @ 476 NONAME ; void Phonon::StreamInterface::needData(void)
	?staticMetaObject@AbstractAudioOutput@Phonon@@2UQMetaObject@@B @ 477 NONAME ; struct QMetaObject const Phonon::AbstractAudioOutput::staticMetaObject
	?enqueue@MediaObject@Phonon@@QAEXABV?$QList@VMediaSource@Phonon@@@@@Z @ 478 NONAME ; void Phonon::MediaObject::enqueue(class QList<class Phonon::MediaSource> const &)
	?qt_metacast@MediaController@Phonon@@UAEPAXPBD@Z @ 479 NONAME ; void * Phonon::MediaController::qt_metacast(char const *)
	?moveDown@ObjectDescriptionModelData@Phonon@@QAEXABVQModelIndex@@@Z @ 480 NONAME ; void Phonon::ObjectDescriptionModelData::moveDown(class QModelIndex const &)
	??0SeekSlider@Phonon@@QAE@PAVMediaObject@1@PAVQWidget@@@Z @ 481 NONAME ; Phonon::SeekSlider::SeekSlider(class Phonon::MediaObject *, class QWidget *)
	?trUtf8@AudioOutput@Phonon@@SA?AVQString@@PBD0@Z @ 482 NONAME ; class QString Phonon::AudioOutput::trUtf8(char const *, char const *)
	??0ObjectDescriptionData@Phonon@@QAE@PAVObjectDescriptionPrivate@1@@Z @ 483 NONAME ; Phonon::ObjectDescriptionData::ObjectDescriptionData(class Phonon::ObjectDescriptionPrivate *)
	?stream@MediaSource@Phonon@@QBEPAVAbstractMediaStream@2@XZ @ 484 NONAME ; class Phonon::AbstractMediaStream * Phonon::MediaSource::stream(void) const
	?setStream@MediaSourcePrivate@Phonon@@QAEXPAVAbstractMediaStream@2@@Z @ 485 NONAME ; void Phonon::MediaSourcePrivate::setStream(class Phonon::AbstractMediaStream *)
	?trUtf8@AbstractAudioOutput@Phonon@@SA?AVQString@@PBD0@Z @ 486 NONAME ; class QString Phonon::AbstractAudioOutput::trUtf8(char const *, char const *)
	??0EffectParameter@Phonon@@QAE@ABV01@@Z @ 487 NONAME ; Phonon::EffectParameter::EffectParameter(class Phonon::EffectParameter const &)
	?stop@VideoPlayer@Phonon@@QAEXXZ @ 488 NONAME ; void Phonon::VideoPlayer::stop(void)
	?categoryToString@Phonon@@YA?AVQString@@W4Category@1@@Z @ 489 NONAME ; class QString Phonon::categoryToString(enum Phonon::Category)
	?chapterChanged@MediaController@Phonon@@IAEXH@Z @ 490 NONAME ; void Phonon::MediaController::chapterChanged(int)
	?setScaleMode@VideoWidget@Phonon@@QAEXW4ScaleMode@12@@Z @ 491 NONAME ; void Phonon::VideoWidget::setScaleMode(enum Phonon::VideoWidget::ScaleMode)
	?streamSeekable@AbstractMediaStream@Phonon@@IBE_NXZ @ 492 NONAME ; bool Phonon::AbstractMediaStream::streamSeekable(void) const
	?qt_metacast@MediaObject@Phonon@@UAEPAXPBD@Z @ 493 NONAME ; void * Phonon::MediaObject::qt_metacast(char const *)
	?setMediaObjectPrivate@AbstractMediaStreamPrivate@Phonon@@QAEXPAVMediaObjectPrivate@2@@Z @ 494 NONAME ; void Phonon::AbstractMediaStreamPrivate::setMediaObjectPrivate(class Phonon::MediaObjectPrivate *)
	?setQueue@MediaObject@Phonon@@QAEXABV?$QList@VQUrl@@@@@Z @ 495 NONAME ; void Phonon::MediaObject::setQueue(class QList<class QUrl> const &)
	?q_func@AbstractMediaStreamPrivate@Phonon@@AAEPAVAbstractMediaStream@2@XZ @ 496 NONAME ; class Phonon::AbstractMediaStream * Phonon::AbstractMediaStreamPrivate::q_func(void)
	?setHue@VideoWidget@Phonon@@QAEXM@Z @ 497 NONAME ; void Phonon::VideoWidget::setHue(float)
	?description@ObjectDescriptionData@Phonon@@QBE?AVQString@@XZ @ 498 NONAME ; class QString Phonon::ObjectDescriptionData::description(void) const
	??1Path@Phonon@@QAE@XZ @ 499 NONAME ; Phonon::Path::~Path(void)
	?setAspectRatio@VideoWidget@Phonon@@QAEXW4AspectRatio@12@@Z @ 500 NONAME ; void Phonon::VideoWidget::setAspectRatio(enum Phonon::VideoWidget::AspectRatio)
	?tr@Effect@Phonon@@SA?AVQString@@PBD0H@Z @ 501 NONAME ; class QString Phonon::Effect::tr(char const *, char const *, int)
	?isPaused@VideoPlayer@Phonon@@QBE_NXZ @ 502 NONAME ; bool Phonon::VideoPlayer::isPaused(void) const
	??0VideoWidget@Phonon@@QAE@PAVQWidget@@@Z @ 503 NONAME ; Phonon::VideoWidget::VideoWidget(class QWidget *)
	??1AudioOutput@Phonon@@UAE@XZ @ 504 NONAME ; Phonon::AudioOutput::~AudioOutput(void)
	?setFadeCurve@VolumeFaderEffect@Phonon@@QAEXW4FadeCurve@12@@Z @ 505 NONAME ; void Phonon::VolumeFaderEffect::setFadeCurve(enum Phonon::VolumeFaderEffect::FadeCurve)
	?insertEffect@Path@Phonon@@QAEPAVEffect@2@ABV?$ObjectDescription@$00@2@PAV32@@Z @ 506 NONAME ; class Phonon::Effect * Phonon::Path::insertEffect(class Phonon::ObjectDescription<1> const &, class Phonon::Effect *)
	?volumeChanged@AudioOutput@Phonon@@IAEXM@Z @ 507 NONAME ; void Phonon::AudioOutput::volumeChanged(float)
	?staticMetaObject@VolumeFaderEffect@Phonon@@2UQMetaObject@@B @ 508 NONAME ; struct QMetaObject const Phonon::VolumeFaderEffect::staticMetaObject
	?notifier@BackendCapabilities@Phonon@@YAPAVNotifier@12@XZ @ 509 NONAME ; class Phonon::BackendCapabilities::Notifier * Phonon::BackendCapabilities::notifier(void)
	?tr@VideoWidget@Phonon@@SA?AVQString@@PBD0@Z @ 510 NONAME ; class QString Phonon::VideoWidget::tr(char const *, char const *)
	??_EVideoWidget@Phonon@@UAE@I@Z @ 511 NONAME ; Phonon::VideoWidget::~VideoWidget(unsigned int)
	??_EAbstractMediaStreamPrivate@Phonon@@UAE@I@Z @ 512 NONAME ; Phonon::AbstractMediaStreamPrivate::~AbstractMediaStreamPrivate(unsigned int)
	?deleteBackendObject@MediaNodePrivate@Phonon@@IAEXXZ @ 513 NONAME ; void Phonon::MediaNodePrivate::deleteBackendObject(void)
	?k_func@VideoWidget@Phonon@@ABEPBVVideoWidgetPrivate@2@XZ @ 514 NONAME ; class Phonon::VideoWidgetPrivate const * Phonon::VideoWidget::k_func(void) const
	??0MediaController@Phonon@@QAE@PAVMediaObject@1@@Z @ 515 NONAME ; Phonon::MediaController::MediaController(class Phonon::MediaObject *)
	?property@ObjectDescriptionData@Phonon@@QBE?AVQVariant@@PBD@Z @ 516 NONAME ; class QVariant Phonon::ObjectDescriptionData::property(char const *) const
	?getStaticMetaObject@VolumeFaderEffect@Phonon@@SAABUQMetaObject@@XZ @ 517 NONAME ; struct QMetaObject const & Phonon::VolumeFaderEffect::getStaticMetaObject(void)
	?writeData@AbstractMediaStreamPrivate@Phonon@@MAEXABVQByteArray@@@Z @ 518 NONAME ; void Phonon::AbstractMediaStreamPrivate::writeData(class QByteArray const &)
	?k_func@VolumeSlider@Phonon@@ABEPBVVolumeSliderPrivate@2@XZ @ 519 NONAME ; class Phonon::VolumeSliderPrivate const * Phonon::VolumeSlider::k_func(void) const

