EXPORTS
	??0QDeclarativeAction@@QAE@ABV0@@Z @ 1 NONAME ; QDeclarativeAction::QDeclarativeAction(class QDeclarativeAction const &)
	??0QDeclarativeAction@@QAE@PAVQObject@@ABVQString@@ABVQVariant@@@Z @ 2 NONAME ; QDeclarativeAction::QDeclarativeAction(class QObject *, class QString const &, class QVariant const &)
	??0QDeclarativeAction@@QAE@XZ @ 3 NONAME ; QDeclarativeAction::QDeclarativeAction(void)
	??0QDeclarativeAnchorChanges@@QAE@PAVQObject@@@Z @ 4 NONAME ; QDeclarativeAnchorChanges::QDeclarativeAnchorChanges(class QObject *)
	??0QDeclarativeAnchors@@QAE@PAVQDeclarativeItem@@PAVQObject@@@Z @ 5 NONAME ABSENT ; QDeclarativeAnchors::QDeclarativeAnchors(class QDeclarativeItem *, class QObject *)
	??0QDeclarativeAnchors@@QAE@PAVQObject@@@Z @ 6 NONAME ; QDeclarativeAnchors::QDeclarativeAnchors(class QObject *)
	??0QDeclarativeAnimatedImage@@QAE@PAVQDeclarativeItem@@@Z @ 7 NONAME ; QDeclarativeAnimatedImage::QDeclarativeAnimatedImage(class QDeclarativeItem *)
	??0QDeclarativeBasePositioner@@IAE@AAVQDeclarativeBasePositionerPrivate@@W4PositionerType@0@PAVQDeclarativeItem@@@Z @ 8 NONAME ; QDeclarativeBasePositioner::QDeclarativeBasePositioner(class QDeclarativeBasePositionerPrivate &, enum QDeclarativeBasePositioner::PositionerType, class QDeclarativeItem *)
	??0QDeclarativeBasePositioner@@QAE@W4PositionerType@0@PAVQDeclarativeItem@@@Z @ 9 NONAME ; QDeclarativeBasePositioner::QDeclarativeBasePositioner(enum QDeclarativeBasePositioner::PositionerType, class QDeclarativeItem *)
	??0QDeclarativeBehavior@@QAE@PAVQObject@@@Z @ 10 NONAME ; QDeclarativeBehavior::QDeclarativeBehavior(class QObject *)
	??0QDeclarativeBind@@QAE@PAVQObject@@@Z @ 11 NONAME ; QDeclarativeBind::QDeclarativeBind(class QObject *)
	??0QDeclarativeBorderImage@@QAE@PAVQDeclarativeItem@@@Z @ 12 NONAME ; QDeclarativeBorderImage::QDeclarativeBorderImage(class QDeclarativeItem *)
	??0QDeclarativeColumn@@QAE@PAVQDeclarativeItem@@@Z @ 13 NONAME ; QDeclarativeColumn::QDeclarativeColumn(class QDeclarativeItem *)
	??0QDeclarativeCompiler@@QAE@XZ @ 14 NONAME ; QDeclarativeCompiler::QDeclarativeCompiler(void)
	??0QDeclarativeComponent@@AAE@PAVQDeclarativeEngine@@PAVQDeclarativeCompiledData@@HHPAVQObject@@@Z @ 15 NONAME ; QDeclarativeComponent::QDeclarativeComponent(class QDeclarativeEngine *, class QDeclarativeCompiledData *, int, int, class QObject *)
	??0QDeclarativeComponent@@IAE@AAVQDeclarativeComponentPrivate@@PAVQObject@@@Z @ 16 NONAME ; QDeclarativeComponent::QDeclarativeComponent(class QDeclarativeComponentPrivate &, class QObject *)
	??0QDeclarativeComponent@@QAE@PAVQDeclarativeEngine@@ABVQString@@PAVQObject@@@Z @ 17 NONAME ; QDeclarativeComponent::QDeclarativeComponent(class QDeclarativeEngine *, class QString const &, class QObject *)
	??0QDeclarativeComponent@@QAE@PAVQDeclarativeEngine@@ABVQUrl@@PAVQObject@@@Z @ 18 NONAME ; QDeclarativeComponent::QDeclarativeComponent(class QDeclarativeEngine *, class QUrl const &, class QObject *)
	??0QDeclarativeComponent@@QAE@PAVQDeclarativeEngine@@PAVQObject@@@Z @ 19 NONAME ; QDeclarativeComponent::QDeclarativeComponent(class QDeclarativeEngine *, class QObject *)
	??0QDeclarativeComponent@@QAE@PAVQObject@@@Z @ 20 NONAME ; QDeclarativeComponent::QDeclarativeComponent(class QObject *)
	??0QDeclarativeConnections@@QAE@PAVQObject@@@Z @ 21 NONAME ; QDeclarativeConnections::QDeclarativeConnections(class QObject *)
	??0QDeclarativeContext@@AAE@PAV0@PAVQObject@@_N@Z @ 22 NONAME ABSENT ; QDeclarativeContext::QDeclarativeContext(class QDeclarativeContext *, class QObject *, bool)
	??0QDeclarativeContext@@AAE@PAVQDeclarativeEngine@@_N@Z @ 23 NONAME ; QDeclarativeContext::QDeclarativeContext(class QDeclarativeEngine *, bool)
	??0QDeclarativeContext@@QAE@PAV0@PAVQObject@@@Z @ 24 NONAME ; QDeclarativeContext::QDeclarativeContext(class QDeclarativeContext *, class QObject *)
	??0QDeclarativeContext@@QAE@PAVQDeclarativeEngine@@PAVQObject@@@Z @ 25 NONAME ; QDeclarativeContext::QDeclarativeContext(class QDeclarativeEngine *, class QObject *)
	??0QDeclarativeContextPrivate@@QAE@XZ @ 26 NONAME ABSENT ; QDeclarativeContextPrivate::QDeclarativeContextPrivate(void)
	??0QDeclarativeCurve@@QAE@PAVQObject@@@Z @ 27 NONAME ; QDeclarativeCurve::QDeclarativeCurve(class QObject *)
	??0QDeclarativeCustomParserNode@@QAE@ABV0@@Z @ 28 NONAME ; QDeclarativeCustomParserNode::QDeclarativeCustomParserNode(class QDeclarativeCustomParserNode const &)
	??0QDeclarativeCustomParserNode@@QAE@XZ @ 29 NONAME ; QDeclarativeCustomParserNode::QDeclarativeCustomParserNode(void)
	??0QDeclarativeCustomParserProperty@@QAE@ABV0@@Z @ 30 NONAME ; QDeclarativeCustomParserProperty::QDeclarativeCustomParserProperty(class QDeclarativeCustomParserProperty const &)
	??0QDeclarativeCustomParserProperty@@QAE@XZ @ 31 NONAME ; QDeclarativeCustomParserProperty::QDeclarativeCustomParserProperty(void)
	??0QDeclarativeDateTimeFormatter@@QAE@PAVQObject@@@Z @ 32 NONAME ABSENT ; QDeclarativeDateTimeFormatter::QDeclarativeDateTimeFormatter(class QObject *)
	??0QDeclarativeDebugClient@@QAE@ABVQString@@PAVQDeclarativeDebugConnection@@@Z @ 33 NONAME ; QDeclarativeDebugClient::QDeclarativeDebugClient(class QString const &, class QDeclarativeDebugConnection *)
	??0QDeclarativeDebugConnection@@QAE@PAVQObject@@@Z @ 34 NONAME ; QDeclarativeDebugConnection::QDeclarativeDebugConnection(class QObject *)
	??0QDeclarativeDebugContextReference@@QAE@ABV0@@Z @ 35 NONAME ; QDeclarativeDebugContextReference::QDeclarativeDebugContextReference(class QDeclarativeDebugContextReference const &)
	??0QDeclarativeDebugContextReference@@QAE@XZ @ 36 NONAME ; QDeclarativeDebugContextReference::QDeclarativeDebugContextReference(void)
	??0QDeclarativeDebugEngineReference@@QAE@ABV0@@Z @ 37 NONAME ; QDeclarativeDebugEngineReference::QDeclarativeDebugEngineReference(class QDeclarativeDebugEngineReference const &)
	??0QDeclarativeDebugEngineReference@@QAE@H@Z @ 38 NONAME ; QDeclarativeDebugEngineReference::QDeclarativeDebugEngineReference(int)
	??0QDeclarativeDebugEngineReference@@QAE@XZ @ 39 NONAME ; QDeclarativeDebugEngineReference::QDeclarativeDebugEngineReference(void)
	??0QDeclarativeDebugEnginesQuery@@AAE@PAVQObject@@@Z @ 40 NONAME ; QDeclarativeDebugEnginesQuery::QDeclarativeDebugEnginesQuery(class QObject *)
	??0QDeclarativeDebugExpressionQuery@@AAE@PAVQObject@@@Z @ 41 NONAME ; QDeclarativeDebugExpressionQuery::QDeclarativeDebugExpressionQuery(class QObject *)
	??0QDeclarativeDebugFileReference@@QAE@ABV0@@Z @ 42 NONAME ; QDeclarativeDebugFileReference::QDeclarativeDebugFileReference(class QDeclarativeDebugFileReference const &)
	??0QDeclarativeDebugFileReference@@QAE@XZ @ 43 NONAME ; QDeclarativeDebugFileReference::QDeclarativeDebugFileReference(void)
	??0QDeclarativeDebugObjectExpressionWatch@@QAE@PAVQObject@@@Z @ 44 NONAME ; QDeclarativeDebugObjectExpressionWatch::QDeclarativeDebugObjectExpressionWatch(class QObject *)
	??0QDeclarativeDebugObjectQuery@@AAE@PAVQObject@@@Z @ 45 NONAME ; QDeclarativeDebugObjectQuery::QDeclarativeDebugObjectQuery(class QObject *)
	??0QDeclarativeDebugObjectReference@@QAE@ABV0@@Z @ 46 NONAME ; QDeclarativeDebugObjectReference::QDeclarativeDebugObjectReference(class QDeclarativeDebugObjectReference const &)
	??0QDeclarativeDebugObjectReference@@QAE@H@Z @ 47 NONAME ; QDeclarativeDebugObjectReference::QDeclarativeDebugObjectReference(int)
	??0QDeclarativeDebugObjectReference@@QAE@XZ @ 48 NONAME ; QDeclarativeDebugObjectReference::QDeclarativeDebugObjectReference(void)
	??0QDeclarativeDebugPropertyReference@@QAE@ABV0@@Z @ 49 NONAME ; QDeclarativeDebugPropertyReference::QDeclarativeDebugPropertyReference(class QDeclarativeDebugPropertyReference const &)
	??0QDeclarativeDebugPropertyReference@@QAE@XZ @ 50 NONAME ; QDeclarativeDebugPropertyReference::QDeclarativeDebugPropertyReference(void)
	??0QDeclarativeDebugPropertyWatch@@QAE@PAVQObject@@@Z @ 51 NONAME ; QDeclarativeDebugPropertyWatch::QDeclarativeDebugPropertyWatch(class QObject *)
	??0QDeclarativeDebugQuery@@IAE@PAVQObject@@@Z @ 52 NONAME ; QDeclarativeDebugQuery::QDeclarativeDebugQuery(class QObject *)
	??0QDeclarativeDebugRootContextQuery@@AAE@PAVQObject@@@Z @ 53 NONAME ; QDeclarativeDebugRootContextQuery::QDeclarativeDebugRootContextQuery(class QObject *)
	??0QDeclarativeDebugService@@QAE@ABVQString@@PAVQObject@@@Z @ 54 NONAME ; QDeclarativeDebugService::QDeclarativeDebugService(class QString const &, class QObject *)
	??0QDeclarativeDebugWatch@@QAE@PAVQObject@@@Z @ 55 NONAME ; QDeclarativeDebugWatch::QDeclarativeDebugWatch(class QObject *)
	??0QDeclarativeDomComponent@@QAE@ABV0@@Z @ 56 NONAME ; QDeclarativeDomComponent::QDeclarativeDomComponent(class QDeclarativeDomComponent const &)
	??0QDeclarativeDomComponent@@QAE@XZ @ 57 NONAME ; QDeclarativeDomComponent::QDeclarativeDomComponent(void)
	??0QDeclarativeDomDocument@@QAE@ABV0@@Z @ 58 NONAME ; QDeclarativeDomDocument::QDeclarativeDomDocument(class QDeclarativeDomDocument const &)
	??0QDeclarativeDomDocument@@QAE@XZ @ 59 NONAME ; QDeclarativeDomDocument::QDeclarativeDomDocument(void)
	??0QDeclarativeDomDynamicProperty@@QAE@ABV0@@Z @ 60 NONAME ; QDeclarativeDomDynamicProperty::QDeclarativeDomDynamicProperty(class QDeclarativeDomDynamicProperty const &)
	??0QDeclarativeDomDynamicProperty@@QAE@XZ @ 61 NONAME ; QDeclarativeDomDynamicProperty::QDeclarativeDomDynamicProperty(void)
	??0QDeclarativeDomImport@@QAE@ABV0@@Z @ 62 NONAME ; QDeclarativeDomImport::QDeclarativeDomImport(class QDeclarativeDomImport const &)
	??0QDeclarativeDomImport@@QAE@XZ @ 63 NONAME ; QDeclarativeDomImport::QDeclarativeDomImport(void)
	??0QDeclarativeDomList@@QAE@ABV0@@Z @ 64 NONAME ; QDeclarativeDomList::QDeclarativeDomList(class QDeclarativeDomList const &)
	??0QDeclarativeDomList@@QAE@XZ @ 65 NONAME ; QDeclarativeDomList::QDeclarativeDomList(void)
	??0QDeclarativeDomObject@@QAE@ABV0@@Z @ 66 NONAME ; QDeclarativeDomObject::QDeclarativeDomObject(class QDeclarativeDomObject const &)
	??0QDeclarativeDomObject@@QAE@XZ @ 67 NONAME ; QDeclarativeDomObject::QDeclarativeDomObject(void)
	??0QDeclarativeDomProperty@@QAE@ABV0@@Z @ 68 NONAME ; QDeclarativeDomProperty::QDeclarativeDomProperty(class QDeclarativeDomProperty const &)
	??0QDeclarativeDomProperty@@QAE@XZ @ 69 NONAME ; QDeclarativeDomProperty::QDeclarativeDomProperty(void)
	??0QDeclarativeDomValue@@QAE@ABV0@@Z @ 70 NONAME ; QDeclarativeDomValue::QDeclarativeDomValue(class QDeclarativeDomValue const &)
	??0QDeclarativeDomValue@@QAE@XZ @ 71 NONAME ; QDeclarativeDomValue::QDeclarativeDomValue(void)
	??0QDeclarativeDomValueBinding@@QAE@ABV0@@Z @ 72 NONAME ; QDeclarativeDomValueBinding::QDeclarativeDomValueBinding(class QDeclarativeDomValueBinding const &)
	??0QDeclarativeDomValueBinding@@QAE@XZ @ 73 NONAME ; QDeclarativeDomValueBinding::QDeclarativeDomValueBinding(void)
	??0QDeclarativeDomValueLiteral@@QAE@ABV0@@Z @ 74 NONAME ; QDeclarativeDomValueLiteral::QDeclarativeDomValueLiteral(class QDeclarativeDomValueLiteral const &)
	??0QDeclarativeDomValueLiteral@@QAE@XZ @ 75 NONAME ; QDeclarativeDomValueLiteral::QDeclarativeDomValueLiteral(void)
	??0QDeclarativeDomValueValueInterceptor@@QAE@ABV0@@Z @ 76 NONAME ; QDeclarativeDomValueValueInterceptor::QDeclarativeDomValueValueInterceptor(class QDeclarativeDomValueValueInterceptor const &)
	??0QDeclarativeDomValueValueInterceptor@@QAE@XZ @ 77 NONAME ; QDeclarativeDomValueValueInterceptor::QDeclarativeDomValueValueInterceptor(void)
	??0QDeclarativeDomValueValueSource@@QAE@ABV0@@Z @ 78 NONAME ; QDeclarativeDomValueValueSource::QDeclarativeDomValueValueSource(class QDeclarativeDomValueValueSource const &)
	??0QDeclarativeDomValueValueSource@@QAE@XZ @ 79 NONAME ; QDeclarativeDomValueValueSource::QDeclarativeDomValueValueSource(void)
	??0QDeclarativeDrag@@QAE@PAVQObject@@@Z @ 80 NONAME ; QDeclarativeDrag::QDeclarativeDrag(class QObject *)
	??0QDeclarativeEaseFollow@@QAE@PAVQObject@@@Z @ 81 NONAME ABSENT ; QDeclarativeEaseFollow::QDeclarativeEaseFollow(class QObject *)
	??0QDeclarativeEngine@@QAE@PAVQObject@@@Z @ 82 NONAME ; QDeclarativeEngine::QDeclarativeEngine(class QObject *)
	??0QDeclarativeEngineDebug@@QAE@PAVQDeclarativeDebugConnection@@PAVQObject@@@Z @ 83 NONAME ; QDeclarativeEngineDebug::QDeclarativeEngineDebug(class QDeclarativeDebugConnection *, class QObject *)
	??0QDeclarativeError@@QAE@ABV0@@Z @ 84 NONAME ; QDeclarativeError::QDeclarativeError(class QDeclarativeError const &)
	??0QDeclarativeError@@QAE@XZ @ 85 NONAME ; QDeclarativeError::QDeclarativeError(void)
	??0QDeclarativeExpression@@IAE@PAVQDeclarativeContext@@ABVQString@@PAVQObject@@AAVQDeclarativeExpressionPrivate@@@Z @ 86 NONAME ABSENT ; QDeclarativeExpression::QDeclarativeExpression(class QDeclarativeContext *, class QString const &, class QObject *, class QDeclarativeExpressionPrivate &)
	??0QDeclarativeExpression@@IAE@PAVQDeclarativeContext@@PAXPAVQDeclarativeRefCount@@PAVQObject@@ABVQString@@HAAVQDeclarativeExpressionPrivate@@@Z @ 87 NONAME ABSENT ; QDeclarativeExpression::QDeclarativeExpression(class QDeclarativeContext *, void *, class QDeclarativeRefCount *, class QObject *, class QString const &, int, class QDeclarativeExpressionPrivate &)
	??0QDeclarativeExpression@@QAE@PAVQDeclarativeContext@@ABVQString@@PAVQObject@@@Z @ 88 NONAME ABSENT ; QDeclarativeExpression::QDeclarativeExpression(class QDeclarativeContext *, class QString const &, class QObject *)
	??0QDeclarativeExpression@@QAE@XZ @ 89 NONAME ; QDeclarativeExpression::QDeclarativeExpression(void)
	??0QDeclarativeExtensionPlugin@@QAE@PAVQObject@@@Z @ 90 NONAME ; QDeclarativeExtensionPlugin::QDeclarativeExtensionPlugin(class QObject *)
	??0QDeclarativeFlickable@@IAE@AAVQDeclarativeFlickablePrivate@@PAVQDeclarativeItem@@@Z @ 91 NONAME ; QDeclarativeFlickable::QDeclarativeFlickable(class QDeclarativeFlickablePrivate &, class QDeclarativeItem *)
	??0QDeclarativeFlickable@@QAE@PAVQDeclarativeItem@@@Z @ 92 NONAME ; QDeclarativeFlickable::QDeclarativeFlickable(class QDeclarativeItem *)
	??0QDeclarativeFlipable@@QAE@PAVQDeclarativeItem@@@Z @ 93 NONAME ; QDeclarativeFlipable::QDeclarativeFlipable(class QDeclarativeItem *)
	??0QDeclarativeFlow@@QAE@PAVQDeclarativeItem@@@Z @ 94 NONAME ; QDeclarativeFlow::QDeclarativeFlow(class QDeclarativeItem *)
	??0QDeclarativeFocusPanel@@QAE@PAVQDeclarativeItem@@@Z @ 95 NONAME ; QDeclarativeFocusPanel::QDeclarativeFocusPanel(class QDeclarativeItem *)
	??0QDeclarativeFocusScope@@QAE@PAVQDeclarativeItem@@@Z @ 96 NONAME ; QDeclarativeFocusScope::QDeclarativeFocusScope(class QDeclarativeItem *)
	??0QDeclarativeFontLoader@@QAE@PAVQObject@@@Z @ 97 NONAME ; QDeclarativeFontLoader::QDeclarativeFontLoader(class QObject *)
	??0QDeclarativeGradient@@QAE@PAVQObject@@@Z @ 98 NONAME ; QDeclarativeGradient::QDeclarativeGradient(class QObject *)
	??0QDeclarativeGradientStop@@QAE@PAVQObject@@@Z @ 99 NONAME ; QDeclarativeGradientStop::QDeclarativeGradientStop(class QObject *)
	??0QDeclarativeGraphicsObjectContainer@@QAE@PAVQDeclarativeItem@@@Z @ 100 NONAME ABSENT ; QDeclarativeGraphicsObjectContainer::QDeclarativeGraphicsObjectContainer(class QDeclarativeItem *)
	??0QDeclarativeGrid@@QAE@PAVQDeclarativeItem@@@Z @ 101 NONAME ; QDeclarativeGrid::QDeclarativeGrid(class QDeclarativeItem *)
	??0QDeclarativeGridScaledImage@@QAE@ABV0@@Z @ 102 NONAME ; QDeclarativeGridScaledImage::QDeclarativeGridScaledImage(class QDeclarativeGridScaledImage const &)
	??0QDeclarativeGridScaledImage@@QAE@PAVQIODevice@@@Z @ 103 NONAME ; QDeclarativeGridScaledImage::QDeclarativeGridScaledImage(class QIODevice *)
	??0QDeclarativeGridScaledImage@@QAE@XZ @ 104 NONAME ; QDeclarativeGridScaledImage::QDeclarativeGridScaledImage(void)
	??0QDeclarativeGridView@@QAE@PAVQDeclarativeItem@@@Z @ 105 NONAME ; QDeclarativeGridView::QDeclarativeGridView(class QDeclarativeItem *)
	??0QDeclarativeImage@@IAE@AAVQDeclarativeImagePrivate@@PAVQDeclarativeItem@@@Z @ 106 NONAME ; QDeclarativeImage::QDeclarativeImage(class QDeclarativeImagePrivate &, class QDeclarativeItem *)
	??0QDeclarativeImage@@QAE@PAVQDeclarativeItem@@@Z @ 107 NONAME ; QDeclarativeImage::QDeclarativeImage(class QDeclarativeItem *)
	??0QDeclarativeImageBase@@IAE@AAVQDeclarativeImageBasePrivate@@PAVQDeclarativeItem@@@Z @ 108 NONAME ; QDeclarativeImageBase::QDeclarativeImageBase(class QDeclarativeImageBasePrivate &, class QDeclarativeItem *)
	??0QDeclarativeInfo@@QAE@PBVQObject@@@Z @ 109 NONAME ABSENT ; QDeclarativeInfo::QDeclarativeInfo(class QObject const *)
	??0QDeclarativeInstruction@@QAE@XZ @ 110 NONAME ; QDeclarativeInstruction::QDeclarativeInstruction(void)
	??0QDeclarativeItem@@IAE@AAVQDeclarativeItemPrivate@@PAV0@@Z @ 111 NONAME ; QDeclarativeItem::QDeclarativeItem(class QDeclarativeItemPrivate &, class QDeclarativeItem *)
	??0QDeclarativeItem@@QAE@PAV0@@Z @ 112 NONAME ; QDeclarativeItem::QDeclarativeItem(class QDeclarativeItem *)
	??0QDeclarativeListAccessor@@QAE@XZ @ 113 NONAME ; QDeclarativeListAccessor::QDeclarativeListAccessor(void)
	??0QDeclarativeListModel@@QAE@PAVQObject@@@Z @ 114 NONAME ; QDeclarativeListModel::QDeclarativeListModel(class QObject *)
	??0QDeclarativeListReference@@QAE@ABV0@@Z @ 115 NONAME ; QDeclarativeListReference::QDeclarativeListReference(class QDeclarativeListReference const &)
	??0QDeclarativeListReference@@QAE@PAVQObject@@PBDPAVQDeclarativeEngine@@@Z @ 116 NONAME ; QDeclarativeListReference::QDeclarativeListReference(class QObject *, char const *, class QDeclarativeEngine *)
	??0QDeclarativeListReference@@QAE@XZ @ 117 NONAME ; QDeclarativeListReference::QDeclarativeListReference(void)
	??0QDeclarativeListView@@QAE@PAVQDeclarativeItem@@@Z @ 118 NONAME ; QDeclarativeListView::QDeclarativeListView(class QDeclarativeItem *)
	??0QDeclarativeLoader@@QAE@PAVQDeclarativeItem@@@Z @ 119 NONAME ; QDeclarativeLoader::QDeclarativeLoader(class QDeclarativeItem *)
	??0QDeclarativeMouseArea@@QAE@PAVQDeclarativeItem@@@Z @ 120 NONAME ; QDeclarativeMouseArea::QDeclarativeMouseArea(class QDeclarativeItem *)
	??0QDeclarativeNumberFormatter@@QAE@PAVQObject@@@Z @ 121 NONAME ABSENT ; QDeclarativeNumberFormatter::QDeclarativeNumberFormatter(class QObject *)
	??0QDeclarativeOpenMetaObject@@QAE@PAVQObject@@PAVQDeclarativeOpenMetaObjectType@@_N@Z @ 122 NONAME ; QDeclarativeOpenMetaObject::QDeclarativeOpenMetaObject(class QObject *, class QDeclarativeOpenMetaObjectType *, bool)
	??0QDeclarativeOpenMetaObject@@QAE@PAVQObject@@_N@Z @ 123 NONAME ; QDeclarativeOpenMetaObject::QDeclarativeOpenMetaObject(class QObject *, bool)
	??0QDeclarativeOpenMetaObjectType@@QAE@PBUQMetaObject@@PAVQDeclarativeEngine@@@Z @ 124 NONAME ; QDeclarativeOpenMetaObjectType::QDeclarativeOpenMetaObjectType(struct QMetaObject const *, class QDeclarativeEngine *)
	??0QDeclarativePaintedItem@@IAE@AAVQDeclarativePaintedItemPrivate@@PAVQDeclarativeItem@@@Z @ 125 NONAME ; QDeclarativePaintedItem::QDeclarativePaintedItem(class QDeclarativePaintedItemPrivate &, class QDeclarativeItem *)
	??0QDeclarativePaintedItem@@QAE@PAVQDeclarativeItem@@@Z @ 126 NONAME ; QDeclarativePaintedItem::QDeclarativePaintedItem(class QDeclarativeItem *)
	??0QDeclarativeParentChange@@QAE@PAVQObject@@@Z @ 127 NONAME ; QDeclarativeParentChange::QDeclarativeParentChange(class QObject *)
	??0QDeclarativeParserStatus@@QAE@XZ @ 128 NONAME ; QDeclarativeParserStatus::QDeclarativeParserStatus(void)
	??0QDeclarativeParticleMotion@@QAE@PAVQObject@@@Z @ 129 NONAME ABSENT ; QDeclarativeParticleMotion::QDeclarativeParticleMotion(class QObject *)
	??0QDeclarativeParticleMotionGravity@@QAE@PAVQObject@@@Z @ 130 NONAME ABSENT ; QDeclarativeParticleMotionGravity::QDeclarativeParticleMotionGravity(class QObject *)
	??0QDeclarativeParticleMotionLinear@@QAE@PAVQObject@@@Z @ 131 NONAME ABSENT ; QDeclarativeParticleMotionLinear::QDeclarativeParticleMotionLinear(class QObject *)
	??0QDeclarativeParticleMotionWander@@QAE@XZ @ 132 NONAME ABSENT ; QDeclarativeParticleMotionWander::QDeclarativeParticleMotionWander(void)
	??0QDeclarativeParticles@@QAE@PAVQDeclarativeItem@@@Z @ 133 NONAME ABSENT ; QDeclarativeParticles::QDeclarativeParticles(class QDeclarativeItem *)
	??0QDeclarativePath@@QAE@PAVQObject@@@Z @ 134 NONAME ; QDeclarativePath::QDeclarativePath(class QObject *)
	??0QDeclarativePathAttribute@@QAE@PAVQObject@@@Z @ 135 NONAME ; QDeclarativePathAttribute::QDeclarativePathAttribute(class QObject *)
	??0QDeclarativePathCubic@@QAE@PAVQObject@@@Z @ 136 NONAME ; QDeclarativePathCubic::QDeclarativePathCubic(class QObject *)
	??0QDeclarativePathElement@@QAE@PAVQObject@@@Z @ 137 NONAME ; QDeclarativePathElement::QDeclarativePathElement(class QObject *)
	??0QDeclarativePathLine@@QAE@PAVQObject@@@Z @ 138 NONAME ; QDeclarativePathLine::QDeclarativePathLine(class QObject *)
	??0QDeclarativePathPercent@@QAE@PAVQObject@@@Z @ 139 NONAME ; QDeclarativePathPercent::QDeclarativePathPercent(class QObject *)
	??0QDeclarativePathQuad@@QAE@PAVQObject@@@Z @ 140 NONAME ; QDeclarativePathQuad::QDeclarativePathQuad(class QObject *)
	??0QDeclarativePathView@@QAE@PAVQDeclarativeItem@@@Z @ 141 NONAME ; QDeclarativePathView::QDeclarativePathView(class QDeclarativeItem *)
	??0QDeclarativePen@@QAE@PAVQObject@@@Z @ 142 NONAME ; QDeclarativePen::QDeclarativePen(class QObject *)
	??0QDeclarativePixmapReply@@AAE@PAVQDeclarativeImageReader@@ABVQUrl@@@Z @ 143 NONAME ABSENT ; QDeclarativePixmapReply::QDeclarativePixmapReply(class QDeclarativeImageReader *, class QUrl const &)
	??0QDeclarativeProperty@@QAE@ABV0@@Z @ 144 NONAME ; QDeclarativeProperty::QDeclarativeProperty(class QDeclarativeProperty const &)
	??0QDeclarativeProperty@@QAE@PAVQObject@@@Z @ 145 NONAME ; QDeclarativeProperty::QDeclarativeProperty(class QObject *)
	??0QDeclarativeProperty@@QAE@PAVQObject@@ABVQString@@@Z @ 146 NONAME ; QDeclarativeProperty::QDeclarativeProperty(class QObject *, class QString const &)
	??0QDeclarativeProperty@@QAE@PAVQObject@@ABVQString@@PAVQDeclarativeContext@@@Z @ 147 NONAME ; QDeclarativeProperty::QDeclarativeProperty(class QObject *, class QString const &, class QDeclarativeContext *)
	??0QDeclarativeProperty@@QAE@PAVQObject@@ABVQString@@PAVQDeclarativeEngine@@@Z @ 148 NONAME ; QDeclarativeProperty::QDeclarativeProperty(class QObject *, class QString const &, class QDeclarativeEngine *)
	??0QDeclarativeProperty@@QAE@PAVQObject@@PAVQDeclarativeContext@@@Z @ 149 NONAME ; QDeclarativeProperty::QDeclarativeProperty(class QObject *, class QDeclarativeContext *)
	??0QDeclarativeProperty@@QAE@PAVQObject@@PAVQDeclarativeEngine@@@Z @ 150 NONAME ; QDeclarativeProperty::QDeclarativeProperty(class QObject *, class QDeclarativeEngine *)
	??0QDeclarativeProperty@@QAE@XZ @ 151 NONAME ; QDeclarativeProperty::QDeclarativeProperty(void)
	??0QDeclarativePropertyChanges@@QAE@XZ @ 152 NONAME ; QDeclarativePropertyChanges::QDeclarativePropertyChanges(void)
	??0QDeclarativePropertyMap@@QAE@PAVQObject@@@Z @ 153 NONAME ; QDeclarativePropertyMap::QDeclarativePropertyMap(class QObject *)
	??0QDeclarativePropertyValueInterceptor@@QAE@XZ @ 154 NONAME ; QDeclarativePropertyValueInterceptor::QDeclarativePropertyValueInterceptor(void)
	??0QDeclarativePropertyValueSource@@QAE@XZ @ 155 NONAME ; QDeclarativePropertyValueSource::QDeclarativePropertyValueSource(void)
	??0QDeclarativeRectangle@@QAE@PAVQDeclarativeItem@@@Z @ 156 NONAME ; QDeclarativeRectangle::QDeclarativeRectangle(class QDeclarativeItem *)
	??0QDeclarativeRepeater@@QAE@PAVQDeclarativeItem@@@Z @ 157 NONAME ; QDeclarativeRepeater::QDeclarativeRepeater(class QDeclarativeItem *)
	??0QDeclarativeRow@@QAE@PAVQDeclarativeItem@@@Z @ 158 NONAME ; QDeclarativeRow::QDeclarativeRow(class QDeclarativeItem *)
	??0QDeclarativeScaleGrid@@QAE@PAVQObject@@@Z @ 159 NONAME ; QDeclarativeScaleGrid::QDeclarativeScaleGrid(class QObject *)
	??0QDeclarativeScriptString@@QAE@ABV0@@Z @ 160 NONAME ; QDeclarativeScriptString::QDeclarativeScriptString(class QDeclarativeScriptString const &)
	??0QDeclarativeScriptString@@QAE@XZ @ 161 NONAME ; QDeclarativeScriptString::QDeclarativeScriptString(void)
	??0QDeclarativeSpringFollow@@QAE@PAVQObject@@@Z @ 162 NONAME ; QDeclarativeSpringFollow::QDeclarativeSpringFollow(class QObject *)
	??0QDeclarativeState@@QAE@PAVQObject@@@Z @ 163 NONAME ; QDeclarativeState::QDeclarativeState(class QObject *)
	??0QDeclarativeStateChangeScript@@QAE@PAVQObject@@@Z @ 164 NONAME ; QDeclarativeStateChangeScript::QDeclarativeStateChangeScript(class QObject *)
	??0QDeclarativeStateGroup@@QAE@PAVQObject@@@Z @ 165 NONAME ; QDeclarativeStateGroup::QDeclarativeStateGroup(class QObject *)
	??0QDeclarativeStateOperation@@IAE@AAVQObjectPrivate@@PAVQObject@@@Z @ 166 NONAME ; QDeclarativeStateOperation::QDeclarativeStateOperation(class QObjectPrivate &, class QObject *)
	??0QDeclarativeStateOperation@@QAE@PAVQObject@@@Z @ 167 NONAME ; QDeclarativeStateOperation::QDeclarativeStateOperation(class QObject *)
	??0QDeclarativeStyledText@@AAE@ABVQString@@AAVQTextLayout@@@Z @ 168 NONAME ; QDeclarativeStyledText::QDeclarativeStyledText(class QString const &, class QTextLayout &)
	??0QDeclarativeSystemPalette@@QAE@PAVQObject@@@Z @ 169 NONAME ; QDeclarativeSystemPalette::QDeclarativeSystemPalette(class QObject *)
	??0QDeclarativeText@@QAE@PAVQDeclarativeItem@@@Z @ 170 NONAME ; QDeclarativeText::QDeclarativeText(class QDeclarativeItem *)
	??0QDeclarativeTextEdit@@QAE@PAVQDeclarativeItem@@@Z @ 171 NONAME ; QDeclarativeTextEdit::QDeclarativeTextEdit(class QDeclarativeItem *)
	??0QDeclarativeTextInput@@QAE@PAVQDeclarativeItem@@@Z @ 172 NONAME ; QDeclarativeTextInput::QDeclarativeTextInput(class QDeclarativeItem *)
	??0QDeclarativeTimer@@QAE@PAVQObject@@@Z @ 173 NONAME ; QDeclarativeTimer::QDeclarativeTimer(class QObject *)
	??0QDeclarativeTransition@@QAE@PAVQObject@@@Z @ 174 NONAME ; QDeclarativeTransition::QDeclarativeTransition(class QObject *)
	??0QDeclarativeType@@AAE@HABURegisterInterface@QDeclarativePrivate@@@Z @ 175 NONAME ; QDeclarativeType::QDeclarativeType(int, struct QDeclarativePrivate::RegisterInterface const &)
	??0QDeclarativeType@@AAE@HABURegisterType@QDeclarativePrivate@@@Z @ 176 NONAME ; QDeclarativeType::QDeclarativeType(int, struct QDeclarativePrivate::RegisterType const &)
	??0QDeclarativeValueType@@QAE@PAVQObject@@@Z @ 177 NONAME ; QDeclarativeValueType::QDeclarativeValueType(class QObject *)
	??0QDeclarativeValueTypeFactory@@QAE@XZ @ 178 NONAME ; QDeclarativeValueTypeFactory::QDeclarativeValueTypeFactory(void)
	??0QDeclarativeView@@QAE@ABVQUrl@@PAVQWidget@@@Z @ 179 NONAME ; QDeclarativeView::QDeclarativeView(class QUrl const &, class QWidget *)
	??0QDeclarativeView@@QAE@PAVQWidget@@@Z @ 180 NONAME ; QDeclarativeView::QDeclarativeView(class QWidget *)
	??0QDeclarativeViewSection@@QAE@PAVQObject@@@Z @ 181 NONAME ; QDeclarativeViewSection::QDeclarativeViewSection(class QObject *)
	??0QDeclarativeVisualDataModel@@QAE@PAVQDeclarativeContext@@@Z @ 182 NONAME ABSENT ; QDeclarativeVisualDataModel::QDeclarativeVisualDataModel(class QDeclarativeContext *)
	??0QDeclarativeVisualDataModel@@QAE@XZ @ 183 NONAME ; QDeclarativeVisualDataModel::QDeclarativeVisualDataModel(void)
	??0QDeclarativeVisualItemModel@@QAE@XZ @ 184 NONAME ABSENT ; QDeclarativeVisualItemModel::QDeclarativeVisualItemModel(void)
	??0QDeclarativeVisualModel@@IAE@AAVQObjectPrivate@@PAVQObject@@@Z @ 185 NONAME ; QDeclarativeVisualModel::QDeclarativeVisualModel(class QObjectPrivate &, class QObject *)
	??0QDeclarativeVisualModel@@QAE@XZ @ 186 NONAME ABSENT ; QDeclarativeVisualModel::QDeclarativeVisualModel(void)
	??0QDeclarativeWebPage@@QAE@PAVQDeclarativeWebView@@@Z @ 187 NONAME ABSENT ; QDeclarativeWebPage::QDeclarativeWebPage(class QDeclarativeWebView *)
	??0QDeclarativeWebView@@QAE@PAVQDeclarativeItem@@@Z @ 188 NONAME ABSENT ; QDeclarativeWebView::QDeclarativeWebView(class QDeclarativeItem *)
	??0QDeclarativeXmlListModel@@QAE@PAVQObject@@@Z @ 189 NONAME ; QDeclarativeXmlListModel::QDeclarativeXmlListModel(class QObject *)
	??0QDeclarativeXmlListModelRole@@QAE@XZ @ 190 NONAME ; QDeclarativeXmlListModelRole::QDeclarativeXmlListModelRole(void)
	??0QListModelInterface@@IAE@AAVQObjectPrivate@@PAVQObject@@@Z @ 191 NONAME ; QListModelInterface::QListModelInterface(class QObjectPrivate &, class QObject *)
	??0QListModelInterface@@QAE@PAVQObject@@@Z @ 192 NONAME ; QListModelInterface::QListModelInterface(class QObject *)
	??0QMetaEnumBuilder@@AAE@PBVQMetaObjectBuilder@@H@Z @ 193 NONAME ; QMetaEnumBuilder::QMetaEnumBuilder(class QMetaObjectBuilder const *, int)
	??0QMetaEnumBuilder@@QAE@XZ @ 194 NONAME ; QMetaEnumBuilder::QMetaEnumBuilder(void)
	??0QMetaMethodBuilder@@AAE@PBVQMetaObjectBuilder@@H@Z @ 195 NONAME ; QMetaMethodBuilder::QMetaMethodBuilder(class QMetaObjectBuilder const *, int)
	??0QMetaMethodBuilder@@QAE@XZ @ 196 NONAME ; QMetaMethodBuilder::QMetaMethodBuilder(void)
	??0QMetaObjectBuilder@@QAE@PBUQMetaObject@@V?$QFlags@W4AddMember@QMetaObjectBuilder@@@@@Z @ 197 NONAME ; QMetaObjectBuilder::QMetaObjectBuilder(struct QMetaObject const *, class QFlags<enum QMetaObjectBuilder::AddMember>)
	??0QMetaObjectBuilder@@QAE@XZ @ 198 NONAME ; QMetaObjectBuilder::QMetaObjectBuilder(void)
	??0QMetaPropertyBuilder@@AAE@PBVQMetaObjectBuilder@@H@Z @ 199 NONAME ; QMetaPropertyBuilder::QMetaPropertyBuilder(class QMetaObjectBuilder const *, int)
	??0QMetaPropertyBuilder@@QAE@XZ @ 200 NONAME ; QMetaPropertyBuilder::QMetaPropertyBuilder(void)
	??0QPacket@@IAE@ABVQByteArray@@@Z @ 201 NONAME ; QPacket::QPacket(class QByteArray const &)
	??0QPacket@@QAE@ABV0@@Z @ 202 NONAME ; QPacket::QPacket(class QPacket const &)
	??0QPacket@@QAE@XZ @ 203 NONAME ; QPacket::QPacket(void)
	??0QPacketAutoSend@@AAE@PAVQPacketProtocol@@@Z @ 204 NONAME ; QPacketAutoSend::QPacketAutoSend(class QPacketProtocol *)
	??0QPacketProtocol@@QAE@PAVQIODevice@@PAVQObject@@@Z @ 205 NONAME ; QPacketProtocol::QPacketProtocol(class QIODevice *, class QObject *)
	??1QDeclarativeAction@@QAE@XZ @ 206 NONAME ; QDeclarativeAction::~QDeclarativeAction(void)
	??1QDeclarativeAnchorChanges@@UAE@XZ @ 207 NONAME ; QDeclarativeAnchorChanges::~QDeclarativeAnchorChanges(void)
	??1QDeclarativeAnchors@@UAE@XZ @ 208 NONAME ; QDeclarativeAnchors::~QDeclarativeAnchors(void)
	??1QDeclarativeAnimatedImage@@UAE@XZ @ 209 NONAME ; QDeclarativeAnimatedImage::~QDeclarativeAnimatedImage(void)
	??1QDeclarativeBasePositioner@@UAE@XZ @ 210 NONAME ; QDeclarativeBasePositioner::~QDeclarativeBasePositioner(void)
	??1QDeclarativeBehavior@@UAE@XZ @ 211 NONAME ; QDeclarativeBehavior::~QDeclarativeBehavior(void)
	??1QDeclarativeBind@@UAE@XZ @ 212 NONAME ; QDeclarativeBind::~QDeclarativeBind(void)
	??1QDeclarativeBorderImage@@UAE@XZ @ 213 NONAME ; QDeclarativeBorderImage::~QDeclarativeBorderImage(void)
	??1QDeclarativeColumn@@UAE@XZ @ 214 NONAME ; QDeclarativeColumn::~QDeclarativeColumn(void)
	??1QDeclarativeCompiler@@QAE@XZ @ 215 NONAME ; QDeclarativeCompiler::~QDeclarativeCompiler(void)
	??1QDeclarativeComponent@@UAE@XZ @ 216 NONAME ; QDeclarativeComponent::~QDeclarativeComponent(void)
	??1QDeclarativeConnections@@UAE@XZ @ 217 NONAME ; QDeclarativeConnections::~QDeclarativeConnections(void)
	??1QDeclarativeContext@@UAE@XZ @ 218 NONAME ; QDeclarativeContext::~QDeclarativeContext(void)
	??1QDeclarativeContextPrivate@@UAE@XZ @ 219 NONAME ABSENT ; QDeclarativeContextPrivate::~QDeclarativeContextPrivate(void)
	??1QDeclarativeCurve@@UAE@XZ @ 220 NONAME ; QDeclarativeCurve::~QDeclarativeCurve(void)
	??1QDeclarativeCustomParser@@UAE@XZ @ 221 NONAME ; QDeclarativeCustomParser::~QDeclarativeCustomParser(void)
	??1QDeclarativeCustomParserNode@@QAE@XZ @ 222 NONAME ; QDeclarativeCustomParserNode::~QDeclarativeCustomParserNode(void)
	??1QDeclarativeCustomParserProperty@@QAE@XZ @ 223 NONAME ; QDeclarativeCustomParserProperty::~QDeclarativeCustomParserProperty(void)
	??1QDeclarativeDateTimeFormatter@@UAE@XZ @ 224 NONAME ABSENT ; QDeclarativeDateTimeFormatter::~QDeclarativeDateTimeFormatter(void)
	??1QDeclarativeDebugClient@@UAE@XZ @ 225 NONAME ; QDeclarativeDebugClient::~QDeclarativeDebugClient(void)
	??1QDeclarativeDebugConnection@@UAE@XZ @ 226 NONAME ; QDeclarativeDebugConnection::~QDeclarativeDebugConnection(void)
	??1QDeclarativeDebugContextReference@@QAE@XZ @ 227 NONAME ; QDeclarativeDebugContextReference::~QDeclarativeDebugContextReference(void)
	??1QDeclarativeDebugEngineReference@@QAE@XZ @ 228 NONAME ; QDeclarativeDebugEngineReference::~QDeclarativeDebugEngineReference(void)
	??1QDeclarativeDebugEnginesQuery@@UAE@XZ @ 229 NONAME ; QDeclarativeDebugEnginesQuery::~QDeclarativeDebugEnginesQuery(void)
	??1QDeclarativeDebugExpressionQuery@@UAE@XZ @ 230 NONAME ; QDeclarativeDebugExpressionQuery::~QDeclarativeDebugExpressionQuery(void)
	??1QDeclarativeDebugFileReference@@QAE@XZ @ 231 NONAME ; QDeclarativeDebugFileReference::~QDeclarativeDebugFileReference(void)
	??1QDeclarativeDebugObjectExpressionWatch@@UAE@XZ @ 232 NONAME ; QDeclarativeDebugObjectExpressionWatch::~QDeclarativeDebugObjectExpressionWatch(void)
	??1QDeclarativeDebugObjectQuery@@UAE@XZ @ 233 NONAME ; QDeclarativeDebugObjectQuery::~QDeclarativeDebugObjectQuery(void)
	??1QDeclarativeDebugObjectReference@@QAE@XZ @ 234 NONAME ; QDeclarativeDebugObjectReference::~QDeclarativeDebugObjectReference(void)
	??1QDeclarativeDebugPropertyReference@@QAE@XZ @ 235 NONAME ; QDeclarativeDebugPropertyReference::~QDeclarativeDebugPropertyReference(void)
	??1QDeclarativeDebugPropertyWatch@@UAE@XZ @ 236 NONAME ; QDeclarativeDebugPropertyWatch::~QDeclarativeDebugPropertyWatch(void)
	??1QDeclarativeDebugQuery@@UAE@XZ @ 237 NONAME ; QDeclarativeDebugQuery::~QDeclarativeDebugQuery(void)
	??1QDeclarativeDebugRootContextQuery@@UAE@XZ @ 238 NONAME ; QDeclarativeDebugRootContextQuery::~QDeclarativeDebugRootContextQuery(void)
	??1QDeclarativeDebugService@@UAE@XZ @ 239 NONAME ; QDeclarativeDebugService::~QDeclarativeDebugService(void)
	??1QDeclarativeDebugWatch@@UAE@XZ @ 240 NONAME ; QDeclarativeDebugWatch::~QDeclarativeDebugWatch(void)
	??1QDeclarativeDebuggerStatus@@UAE@XZ @ 241 NONAME ; QDeclarativeDebuggerStatus::~QDeclarativeDebuggerStatus(void)
	??1QDeclarativeDomComponent@@QAE@XZ @ 242 NONAME ; QDeclarativeDomComponent::~QDeclarativeDomComponent(void)
	??1QDeclarativeDomDocument@@QAE@XZ @ 243 NONAME ; QDeclarativeDomDocument::~QDeclarativeDomDocument(void)
	??1QDeclarativeDomDynamicProperty@@QAE@XZ @ 244 NONAME ; QDeclarativeDomDynamicProperty::~QDeclarativeDomDynamicProperty(void)
	??1QDeclarativeDomImport@@QAE@XZ @ 245 NONAME ; QDeclarativeDomImport::~QDeclarativeDomImport(void)
	??1QDeclarativeDomList@@QAE@XZ @ 246 NONAME ; QDeclarativeDomList::~QDeclarativeDomList(void)
	??1QDeclarativeDomObject@@QAE@XZ @ 247 NONAME ; QDeclarativeDomObject::~QDeclarativeDomObject(void)
	??1QDeclarativeDomProperty@@QAE@XZ @ 248 NONAME ; QDeclarativeDomProperty::~QDeclarativeDomProperty(void)
	??1QDeclarativeDomValue@@QAE@XZ @ 249 NONAME ; QDeclarativeDomValue::~QDeclarativeDomValue(void)
	??1QDeclarativeDomValueBinding@@QAE@XZ @ 250 NONAME ; QDeclarativeDomValueBinding::~QDeclarativeDomValueBinding(void)
	??1QDeclarativeDomValueLiteral@@QAE@XZ @ 251 NONAME ; QDeclarativeDomValueLiteral::~QDeclarativeDomValueLiteral(void)
	??1QDeclarativeDomValueValueInterceptor@@QAE@XZ @ 252 NONAME ; QDeclarativeDomValueValueInterceptor::~QDeclarativeDomValueValueInterceptor(void)
	??1QDeclarativeDomValueValueSource@@QAE@XZ @ 253 NONAME ; QDeclarativeDomValueValueSource::~QDeclarativeDomValueValueSource(void)
	??1QDeclarativeDrag@@UAE@XZ @ 254 NONAME ; QDeclarativeDrag::~QDeclarativeDrag(void)
	??1QDeclarativeEaseFollow@@UAE@XZ @ 255 NONAME ABSENT ; QDeclarativeEaseFollow::~QDeclarativeEaseFollow(void)
	??1QDeclarativeEngine@@UAE@XZ @ 256 NONAME ; QDeclarativeEngine::~QDeclarativeEngine(void)
	??1QDeclarativeEngineDebug@@UAE@XZ @ 257 NONAME ; QDeclarativeEngineDebug::~QDeclarativeEngineDebug(void)
	??1QDeclarativeError@@QAE@XZ @ 258 NONAME ; QDeclarativeError::~QDeclarativeError(void)
	??1QDeclarativeExpression@@UAE@XZ @ 259 NONAME ; QDeclarativeExpression::~QDeclarativeExpression(void)
	??1QDeclarativeExtensionInterface@@UAE@XZ @ 260 NONAME ; QDeclarativeExtensionInterface::~QDeclarativeExtensionInterface(void)
	??1QDeclarativeExtensionPlugin@@UAE@XZ @ 261 NONAME ; QDeclarativeExtensionPlugin::~QDeclarativeExtensionPlugin(void)
	??1QDeclarativeFlickable@@UAE@XZ @ 262 NONAME ; QDeclarativeFlickable::~QDeclarativeFlickable(void)
	??1QDeclarativeFlipable@@UAE@XZ @ 263 NONAME ; QDeclarativeFlipable::~QDeclarativeFlipable(void)
	??1QDeclarativeFlow@@UAE@XZ @ 264 NONAME ; QDeclarativeFlow::~QDeclarativeFlow(void)
	??1QDeclarativeFocusPanel@@UAE@XZ @ 265 NONAME ; QDeclarativeFocusPanel::~QDeclarativeFocusPanel(void)
	??1QDeclarativeFocusScope@@UAE@XZ @ 266 NONAME ; QDeclarativeFocusScope::~QDeclarativeFocusScope(void)
	??1QDeclarativeFontLoader@@UAE@XZ @ 267 NONAME ; QDeclarativeFontLoader::~QDeclarativeFontLoader(void)
	??1QDeclarativeGradient@@UAE@XZ @ 268 NONAME ; QDeclarativeGradient::~QDeclarativeGradient(void)
	??1QDeclarativeGradientStop@@UAE@XZ @ 269 NONAME ; QDeclarativeGradientStop::~QDeclarativeGradientStop(void)
	??1QDeclarativeGraphicsObjectContainer@@UAE@XZ @ 270 NONAME ABSENT ; QDeclarativeGraphicsObjectContainer::~QDeclarativeGraphicsObjectContainer(void)
	??1QDeclarativeGrid@@UAE@XZ @ 271 NONAME ; QDeclarativeGrid::~QDeclarativeGrid(void)
	??1QDeclarativeGridScaledImage@@QAE@XZ @ 272 NONAME ; QDeclarativeGridScaledImage::~QDeclarativeGridScaledImage(void)
	??1QDeclarativeGridView@@UAE@XZ @ 273 NONAME ; QDeclarativeGridView::~QDeclarativeGridView(void)
	??1QDeclarativeImage@@UAE@XZ @ 274 NONAME ; QDeclarativeImage::~QDeclarativeImage(void)
	??1QDeclarativeImageBase@@UAE@XZ @ 275 NONAME ; QDeclarativeImageBase::~QDeclarativeImageBase(void)
	??1QDeclarativeImageProvider@@UAE@XZ @ 276 NONAME ; QDeclarativeImageProvider::~QDeclarativeImageProvider(void)
	??1QDeclarativeInfo@@QAE@XZ @ 277 NONAME ; QDeclarativeInfo::~QDeclarativeInfo(void)
	??1QDeclarativeItem@@UAE@XZ @ 278 NONAME ; QDeclarativeItem::~QDeclarativeItem(void)
	??1QDeclarativeListAccessor@@QAE@XZ @ 279 NONAME ; QDeclarativeListAccessor::~QDeclarativeListAccessor(void)
	??1QDeclarativeListModel@@UAE@XZ @ 280 NONAME ; QDeclarativeListModel::~QDeclarativeListModel(void)
	??1QDeclarativeListReference@@QAE@XZ @ 281 NONAME ; QDeclarativeListReference::~QDeclarativeListReference(void)
	??1QDeclarativeListView@@UAE@XZ @ 282 NONAME ; QDeclarativeListView::~QDeclarativeListView(void)
	??1QDeclarativeLoader@@UAE@XZ @ 283 NONAME ; QDeclarativeLoader::~QDeclarativeLoader(void)
	??1QDeclarativeMouseArea@@UAE@XZ @ 284 NONAME ; QDeclarativeMouseArea::~QDeclarativeMouseArea(void)
	??1QDeclarativeNetworkAccessManagerFactory@@UAE@XZ @ 285 NONAME ; QDeclarativeNetworkAccessManagerFactory::~QDeclarativeNetworkAccessManagerFactory(void)
	??1QDeclarativeNumberFormatter@@UAE@XZ @ 286 NONAME ABSENT ; QDeclarativeNumberFormatter::~QDeclarativeNumberFormatter(void)
	??1QDeclarativeOpenMetaObject@@UAE@XZ @ 287 NONAME ; QDeclarativeOpenMetaObject::~QDeclarativeOpenMetaObject(void)
	??1QDeclarativeOpenMetaObjectType@@UAE@XZ @ 288 NONAME ; QDeclarativeOpenMetaObjectType::~QDeclarativeOpenMetaObjectType(void)
	??1QDeclarativePaintedItem@@UAE@XZ @ 289 NONAME ; QDeclarativePaintedItem::~QDeclarativePaintedItem(void)
	??1QDeclarativeParentChange@@UAE@XZ @ 290 NONAME ; QDeclarativeParentChange::~QDeclarativeParentChange(void)
	??1QDeclarativeParserStatus@@UAE@XZ @ 291 NONAME ; QDeclarativeParserStatus::~QDeclarativeParserStatus(void)
	??1QDeclarativeParticleMotion@@UAE@XZ @ 292 NONAME ABSENT ; QDeclarativeParticleMotion::~QDeclarativeParticleMotion(void)
	??1QDeclarativeParticleMotionGravity@@UAE@XZ @ 293 NONAME ABSENT ; QDeclarativeParticleMotionGravity::~QDeclarativeParticleMotionGravity(void)
	??1QDeclarativeParticleMotionLinear@@UAE@XZ @ 294 NONAME ABSENT ; QDeclarativeParticleMotionLinear::~QDeclarativeParticleMotionLinear(void)
	??1QDeclarativeParticleMotionWander@@UAE@XZ @ 295 NONAME ABSENT ; QDeclarativeParticleMotionWander::~QDeclarativeParticleMotionWander(void)
	??1QDeclarativeParticles@@UAE@XZ @ 296 NONAME ABSENT ; QDeclarativeParticles::~QDeclarativeParticles(void)
	??1QDeclarativePath@@UAE@XZ @ 297 NONAME ; QDeclarativePath::~QDeclarativePath(void)
	??1QDeclarativePathAttribute@@UAE@XZ @ 298 NONAME ; QDeclarativePathAttribute::~QDeclarativePathAttribute(void)
	??1QDeclarativePathCubic@@UAE@XZ @ 299 NONAME ; QDeclarativePathCubic::~QDeclarativePathCubic(void)
	??1QDeclarativePathElement@@UAE@XZ @ 300 NONAME ; QDeclarativePathElement::~QDeclarativePathElement(void)
	??1QDeclarativePathLine@@UAE@XZ @ 301 NONAME ; QDeclarativePathLine::~QDeclarativePathLine(void)
	??1QDeclarativePathPercent@@UAE@XZ @ 302 NONAME ; QDeclarativePathPercent::~QDeclarativePathPercent(void)
	??1QDeclarativePathQuad@@UAE@XZ @ 303 NONAME ; QDeclarativePathQuad::~QDeclarativePathQuad(void)
	??1QDeclarativePathView@@UAE@XZ @ 304 NONAME ; QDeclarativePathView::~QDeclarativePathView(void)
	??1QDeclarativePen@@UAE@XZ @ 305 NONAME ; QDeclarativePen::~QDeclarativePen(void)
	??1QDeclarativePixmapReply@@UAE@XZ @ 306 NONAME ; QDeclarativePixmapReply::~QDeclarativePixmapReply(void)
	??1QDeclarativeProperty@@QAE@XZ @ 307 NONAME ; QDeclarativeProperty::~QDeclarativeProperty(void)
	??1QDeclarativePropertyChanges@@UAE@XZ @ 308 NONAME ; QDeclarativePropertyChanges::~QDeclarativePropertyChanges(void)
	??1QDeclarativePropertyMap@@UAE@XZ @ 309 NONAME ; QDeclarativePropertyMap::~QDeclarativePropertyMap(void)
	??1QDeclarativePropertyValueInterceptor@@UAE@XZ @ 310 NONAME ; QDeclarativePropertyValueInterceptor::~QDeclarativePropertyValueInterceptor(void)
	??1QDeclarativePropertyValueSource@@UAE@XZ @ 311 NONAME ; QDeclarativePropertyValueSource::~QDeclarativePropertyValueSource(void)
	??1QDeclarativeRectangle@@UAE@XZ @ 312 NONAME ; QDeclarativeRectangle::~QDeclarativeRectangle(void)
	??1QDeclarativeRepeater@@UAE@XZ @ 313 NONAME ; QDeclarativeRepeater::~QDeclarativeRepeater(void)
	??1QDeclarativeRow@@UAE@XZ @ 314 NONAME ; QDeclarativeRow::~QDeclarativeRow(void)
	??1QDeclarativeScaleGrid@@UAE@XZ @ 315 NONAME ; QDeclarativeScaleGrid::~QDeclarativeScaleGrid(void)
	??1QDeclarativeScriptString@@QAE@XZ @ 316 NONAME ; QDeclarativeScriptString::~QDeclarativeScriptString(void)
	??1QDeclarativeSpringFollow@@UAE@XZ @ 317 NONAME ; QDeclarativeSpringFollow::~QDeclarativeSpringFollow(void)
	??1QDeclarativeState@@UAE@XZ @ 318 NONAME ; QDeclarativeState::~QDeclarativeState(void)
	??1QDeclarativeStateChangeScript@@UAE@XZ @ 319 NONAME ; QDeclarativeStateChangeScript::~QDeclarativeStateChangeScript(void)
	??1QDeclarativeStateGroup@@UAE@XZ @ 320 NONAME ; QDeclarativeStateGroup::~QDeclarativeStateGroup(void)
	??1QDeclarativeStateOperation@@UAE@XZ @ 321 NONAME ; QDeclarativeStateOperation::~QDeclarativeStateOperation(void)
	??1QDeclarativeStyledText@@AAE@XZ @ 322 NONAME ; QDeclarativeStyledText::~QDeclarativeStyledText(void)
	??1QDeclarativeSystemPalette@@UAE@XZ @ 323 NONAME ; QDeclarativeSystemPalette::~QDeclarativeSystemPalette(void)
	??1QDeclarativeText@@UAE@XZ @ 324 NONAME ; QDeclarativeText::~QDeclarativeText(void)
	??1QDeclarativeTextEdit@@UAE@XZ @ 325 NONAME ; QDeclarativeTextEdit::~QDeclarativeTextEdit(void)
	??1QDeclarativeTextInput@@UAE@XZ @ 326 NONAME ; QDeclarativeTextInput::~QDeclarativeTextInput(void)
	??1QDeclarativeTimer@@UAE@XZ @ 327 NONAME ; QDeclarativeTimer::~QDeclarativeTimer(void)
	??1QDeclarativeTransition@@UAE@XZ @ 328 NONAME ; QDeclarativeTransition::~QDeclarativeTransition(void)
	??1QDeclarativeType@@AAE@XZ @ 329 NONAME ; QDeclarativeType::~QDeclarativeType(void)
	??1QDeclarativeValueType@@UAE@XZ @ 330 NONAME ; QDeclarativeValueType::~QDeclarativeValueType(void)
	??1QDeclarativeValueTypeFactory@@QAE@XZ @ 331 NONAME ; QDeclarativeValueTypeFactory::~QDeclarativeValueTypeFactory(void)
	??1QDeclarativeView@@UAE@XZ @ 332 NONAME ; QDeclarativeView::~QDeclarativeView(void)
	??1QDeclarativeViewSection@@UAE@XZ @ 333 NONAME ; QDeclarativeViewSection::~QDeclarativeViewSection(void)
	??1QDeclarativeVisualDataModel@@UAE@XZ @ 334 NONAME ; QDeclarativeVisualDataModel::~QDeclarativeVisualDataModel(void)
	??1QDeclarativeVisualItemModel@@UAE@XZ @ 335 NONAME ; QDeclarativeVisualItemModel::~QDeclarativeVisualItemModel(void)
	??1QDeclarativeVisualModel@@UAE@XZ @ 336 NONAME ; QDeclarativeVisualModel::~QDeclarativeVisualModel(void)
	??1QDeclarativeWebPage@@UAE@XZ @ 337 NONAME ABSENT ; QDeclarativeWebPage::~QDeclarativeWebPage(void)
	??1QDeclarativeWebView@@UAE@XZ @ 338 NONAME ABSENT ; QDeclarativeWebView::~QDeclarativeWebView(void)
	??1QDeclarativeXmlListModel@@UAE@XZ @ 339 NONAME ; QDeclarativeXmlListModel::~QDeclarativeXmlListModel(void)
	??1QDeclarativeXmlListModelRole@@UAE@XZ @ 340 NONAME ; QDeclarativeXmlListModelRole::~QDeclarativeXmlListModelRole(void)
	??1QListModelInterface@@UAE@XZ @ 341 NONAME ; QListModelInterface::~QListModelInterface(void)
	??1QMetaObjectBuilder@@UAE@XZ @ 342 NONAME ; QMetaObjectBuilder::~QMetaObjectBuilder(void)
	??1QPacket@@UAE@XZ @ 343 NONAME ; QPacket::~QPacket(void)
	??1QPacketAutoSend@@UAE@XZ @ 344 NONAME ; QPacketAutoSend::~QPacketAutoSend(void)
	??1QPacketProtocol@@UAE@XZ @ 345 NONAME ; QPacketProtocol::~QPacketProtocol(void)
	??4QDeclarativeCustomParserNode@@QAEAAV0@ABV0@@Z @ 346 NONAME ; class QDeclarativeCustomParserNode & QDeclarativeCustomParserNode::operator=(class QDeclarativeCustomParserNode const &)
	??4QDeclarativeCustomParserProperty@@QAEAAV0@ABV0@@Z @ 347 NONAME ; class QDeclarativeCustomParserProperty & QDeclarativeCustomParserProperty::operator=(class QDeclarativeCustomParserProperty const &)
	??4QDeclarativeDebugContextReference@@QAEAAV0@ABV0@@Z @ 348 NONAME ; class QDeclarativeDebugContextReference & QDeclarativeDebugContextReference::operator=(class QDeclarativeDebugContextReference const &)
	??4QDeclarativeDebugEngineReference@@QAEAAV0@ABV0@@Z @ 349 NONAME ; class QDeclarativeDebugEngineReference & QDeclarativeDebugEngineReference::operator=(class QDeclarativeDebugEngineReference const &)
	??4QDeclarativeDebugFileReference@@QAEAAV0@ABV0@@Z @ 350 NONAME ; class QDeclarativeDebugFileReference & QDeclarativeDebugFileReference::operator=(class QDeclarativeDebugFileReference const &)
	??4QDeclarativeDebugObjectReference@@QAEAAV0@ABV0@@Z @ 351 NONAME ; class QDeclarativeDebugObjectReference & QDeclarativeDebugObjectReference::operator=(class QDeclarativeDebugObjectReference const &)
	??4QDeclarativeDebugPropertyReference@@QAEAAV0@ABV0@@Z @ 352 NONAME ; class QDeclarativeDebugPropertyReference & QDeclarativeDebugPropertyReference::operator=(class QDeclarativeDebugPropertyReference const &)
	??4QDeclarativeDomComponent@@QAEAAV0@ABV0@@Z @ 353 NONAME ; class QDeclarativeDomComponent & QDeclarativeDomComponent::operator=(class QDeclarativeDomComponent const &)
	??4QDeclarativeDomDocument@@QAEAAV0@ABV0@@Z @ 354 NONAME ; class QDeclarativeDomDocument & QDeclarativeDomDocument::operator=(class QDeclarativeDomDocument const &)
	??4QDeclarativeDomDynamicProperty@@QAEAAV0@ABV0@@Z @ 355 NONAME ; class QDeclarativeDomDynamicProperty & QDeclarativeDomDynamicProperty::operator=(class QDeclarativeDomDynamicProperty const &)
	??4QDeclarativeDomImport@@QAEAAV0@ABV0@@Z @ 356 NONAME ; class QDeclarativeDomImport & QDeclarativeDomImport::operator=(class QDeclarativeDomImport const &)
	??4QDeclarativeDomList@@QAEAAV0@ABV0@@Z @ 357 NONAME ; class QDeclarativeDomList & QDeclarativeDomList::operator=(class QDeclarativeDomList const &)
	??4QDeclarativeDomObject@@QAEAAV0@ABV0@@Z @ 358 NONAME ; class QDeclarativeDomObject & QDeclarativeDomObject::operator=(class QDeclarativeDomObject const &)
	??4QDeclarativeDomProperty@@QAEAAV0@ABV0@@Z @ 359 NONAME ; class QDeclarativeDomProperty & QDeclarativeDomProperty::operator=(class QDeclarativeDomProperty const &)
	??4QDeclarativeDomValue@@QAEAAV0@ABV0@@Z @ 360 NONAME ; class QDeclarativeDomValue & QDeclarativeDomValue::operator=(class QDeclarativeDomValue const &)
	??4QDeclarativeDomValueBinding@@QAEAAV0@ABV0@@Z @ 361 NONAME ; class QDeclarativeDomValueBinding & QDeclarativeDomValueBinding::operator=(class QDeclarativeDomValueBinding const &)
	??4QDeclarativeDomValueLiteral@@QAEAAV0@ABV0@@Z @ 362 NONAME ; class QDeclarativeDomValueLiteral & QDeclarativeDomValueLiteral::operator=(class QDeclarativeDomValueLiteral const &)
	??4QDeclarativeDomValueValueInterceptor@@QAEAAV0@ABV0@@Z @ 363 NONAME ; class QDeclarativeDomValueValueInterceptor & QDeclarativeDomValueValueInterceptor::operator=(class QDeclarativeDomValueValueInterceptor const &)
	??4QDeclarativeDomValueValueSource@@QAEAAV0@ABV0@@Z @ 364 NONAME ; class QDeclarativeDomValueValueSource & QDeclarativeDomValueValueSource::operator=(class QDeclarativeDomValueValueSource const &)
	??4QDeclarativeError@@QAEAAV0@ABV0@@Z @ 365 NONAME ; class QDeclarativeError & QDeclarativeError::operator=(class QDeclarativeError const &)
	??4QDeclarativeGridScaledImage@@QAEAAV0@ABV0@@Z @ 366 NONAME ; class QDeclarativeGridScaledImage & QDeclarativeGridScaledImage::operator=(class QDeclarativeGridScaledImage const &)
	??4QDeclarativeListReference@@QAEAAV0@ABV0@@Z @ 367 NONAME ; class QDeclarativeListReference & QDeclarativeListReference::operator=(class QDeclarativeListReference const &)
	??4QDeclarativeProperty@@QAEAAV0@ABV0@@Z @ 368 NONAME ; class QDeclarativeProperty & QDeclarativeProperty::operator=(class QDeclarativeProperty const &)
	??4QDeclarativeScriptString@@QAEAAV0@ABV0@@Z @ 369 NONAME ; class QDeclarativeScriptString & QDeclarativeScriptString::operator=(class QDeclarativeScriptString const &)
	??5@YAAAVQDataStream@@AAV0@AAUQDeclarativeObjectData@QDeclarativeEngineDebugServer@@@Z @ 370 NONAME ; class QDataStream & operator>>(class QDataStream &, struct QDeclarativeEngineDebugServer::QDeclarativeObjectData &)
	??5@YAAAVQDataStream@@AAV0@AAUQDeclarativeObjectProperty@QDeclarativeEngineDebugServer@@@Z @ 371 NONAME ; class QDataStream & operator>>(class QDataStream &, struct QDeclarativeEngineDebugServer::QDeclarativeObjectProperty &)
	??6@YA?AVQDebug@@V0@ABVQDeclarativeError@@@Z @ 372 NONAME ; class QDebug operator<<(class QDebug, class QDeclarativeError const &)
	??6@YA?AVQDebug@@V0@PAVQDeclarativeItem@@@Z @ 373 NONAME ; class QDebug operator<<(class QDebug, class QDeclarativeItem *)
	??6@YAAAVQDataStream@@AAV0@ABUQDeclarativeObjectData@QDeclarativeEngineDebugServer@@@Z @ 374 NONAME ; class QDataStream & operator<<(class QDataStream &, struct QDeclarativeEngineDebugServer::QDeclarativeObjectData const &)
	??6@YAAAVQDataStream@@AAV0@ABUQDeclarativeObjectProperty@QDeclarativeEngineDebugServer@@@Z @ 375 NONAME ; class QDataStream & operator<<(class QDataStream &, struct QDeclarativeEngineDebugServer::QDeclarativeObjectProperty const &)
	??6QDeclarativeInfo@@QAEAAV0@ABVQByteArray@@@Z @ 376 NONAME ; class QDeclarativeInfo & QDeclarativeInfo::operator<<(class QByteArray const &)
	??6QDeclarativeInfo@@QAEAAV0@ABVQLatin1String@@@Z @ 377 NONAME ; class QDeclarativeInfo & QDeclarativeInfo::operator<<(class QLatin1String const &)
	??6QDeclarativeInfo@@QAEAAV0@ABVQString@@@Z @ 378 NONAME ; class QDeclarativeInfo & QDeclarativeInfo::operator<<(class QString const &)
	??6QDeclarativeInfo@@QAEAAV0@ABVQStringRef@@@Z @ 379 NONAME ; class QDeclarativeInfo & QDeclarativeInfo::operator<<(class QStringRef const &)
	??6QDeclarativeInfo@@QAEAAV0@D@Z @ 380 NONAME ; class QDeclarativeInfo & QDeclarativeInfo::operator<<(char)
	??6QDeclarativeInfo@@QAEAAV0@F@Z @ 381 NONAME ; class QDeclarativeInfo & QDeclarativeInfo::operator<<(short)
	??6QDeclarativeInfo@@QAEAAV0@G@Z @ 382 NONAME ; class QDeclarativeInfo & QDeclarativeInfo::operator<<(unsigned short)
	??6QDeclarativeInfo@@QAEAAV0@H@Z @ 383 NONAME ; class QDeclarativeInfo & QDeclarativeInfo::operator<<(int)
	??6QDeclarativeInfo@@QAEAAV0@I@Z @ 384 NONAME ; class QDeclarativeInfo & QDeclarativeInfo::operator<<(unsigned int)
	??6QDeclarativeInfo@@QAEAAV0@J@Z @ 385 NONAME ; class QDeclarativeInfo & QDeclarativeInfo::operator<<(long)
	??6QDeclarativeInfo@@QAEAAV0@K@Z @ 386 NONAME ; class QDeclarativeInfo & QDeclarativeInfo::operator<<(unsigned long)
	??6QDeclarativeInfo@@QAEAAV0@M@Z @ 387 NONAME ; class QDeclarativeInfo & QDeclarativeInfo::operator<<(float)
	??6QDeclarativeInfo@@QAEAAV0@N@Z @ 388 NONAME ; class QDeclarativeInfo & QDeclarativeInfo::operator<<(double)
	??6QDeclarativeInfo@@QAEAAV0@P6AAAVQTextStream@@AAV1@@Z@Z @ 389 NONAME ; class QDeclarativeInfo & QDeclarativeInfo::operator<<(class QTextStream & (*)(class QTextStream &))
	??6QDeclarativeInfo@@QAEAAV0@PBD@Z @ 390 NONAME ; class QDeclarativeInfo & QDeclarativeInfo::operator<<(char const *)
	??6QDeclarativeInfo@@QAEAAV0@PBX@Z @ 391 NONAME ; class QDeclarativeInfo & QDeclarativeInfo::operator<<(void const *)
	??6QDeclarativeInfo@@QAEAAV0@VQBool@@@Z @ 392 NONAME ; class QDeclarativeInfo & QDeclarativeInfo::operator<<(class QBool)
	??6QDeclarativeInfo@@QAEAAV0@VQChar@@@Z @ 393 NONAME ; class QDeclarativeInfo & QDeclarativeInfo::operator<<(class QChar)
	??6QDeclarativeInfo@@QAEAAV0@VQTextStreamManipulator@@@Z @ 394 NONAME ; class QDeclarativeInfo & QDeclarativeInfo::operator<<(class QTextStreamManipulator)
	??6QDeclarativeInfo@@QAEAAV0@_J@Z @ 395 NONAME ; class QDeclarativeInfo & QDeclarativeInfo::operator<<(long long)
	??6QDeclarativeInfo@@QAEAAV0@_K@Z @ 396 NONAME ; class QDeclarativeInfo & QDeclarativeInfo::operator<<(unsigned long long)
	??6QDeclarativeInfo@@QAEAAV0@_N@Z @ 397 NONAME ; class QDeclarativeInfo & QDeclarativeInfo::operator<<(bool)
	??6QDeclarativeState@@QAEAAV0@PAVQDeclarativeStateOperation@@@Z @ 398 NONAME ; class QDeclarativeState & QDeclarativeState::operator<<(class QDeclarativeStateOperation *)
	??8QDeclarativeProperty@@QBE_NABV0@@Z @ 399 NONAME ; bool QDeclarativeProperty::operator==(class QDeclarativeProperty const &) const
	??AQDeclarativeOpenMetaObject@@QAEAAVQVariant@@ABVQByteArray@@@Z @ 400 NONAME ; class QVariant & QDeclarativeOpenMetaObject::operator[](class QByteArray const &)
	??AQDeclarativePropertyMap@@QAEAAVQVariant@@ABVQString@@@Z @ 401 NONAME ; class QVariant & QDeclarativePropertyMap::operator[](class QString const &)
	??AQDeclarativePropertyMap@@QBE?BVQVariant@@ABVQString@@@Z @ 402 NONAME ABSENT ; class QVariant const QDeclarativePropertyMap::operator[](class QString const &) const
	??AQDeclarativeValueTypeFactory@@QBEPAVQDeclarativeValueType@@H@Z @ 403 NONAME ; class QDeclarativeValueType * QDeclarativeValueTypeFactory::operator[](int) const
	??_EQDeclarativeAction@@QAE@I@Z @ 404 NONAME ; QDeclarativeAction::~QDeclarativeAction(unsigned int)
	??_EQDeclarativeAnchorChanges@@UAE@I@Z @ 405 NONAME ; QDeclarativeAnchorChanges::~QDeclarativeAnchorChanges(unsigned int)
	??_EQDeclarativeAnchors@@UAE@I@Z @ 406 NONAME ; QDeclarativeAnchors::~QDeclarativeAnchors(unsigned int)
	??_EQDeclarativeAnimatedImage@@UAE@I@Z @ 407 NONAME ; QDeclarativeAnimatedImage::~QDeclarativeAnimatedImage(unsigned int)
	??_EQDeclarativeBasePositioner@@UAE@I@Z @ 408 NONAME ; QDeclarativeBasePositioner::~QDeclarativeBasePositioner(unsigned int)
	??_EQDeclarativeBehavior@@UAE@I@Z @ 409 NONAME ; QDeclarativeBehavior::~QDeclarativeBehavior(unsigned int)
	??_EQDeclarativeBind@@UAE@I@Z @ 410 NONAME ; QDeclarativeBind::~QDeclarativeBind(unsigned int)
	??_EQDeclarativeBorderImage@@UAE@I@Z @ 411 NONAME ; QDeclarativeBorderImage::~QDeclarativeBorderImage(unsigned int)
	??_EQDeclarativeColumn@@UAE@I@Z @ 412 NONAME ; QDeclarativeColumn::~QDeclarativeColumn(unsigned int)
	??_EQDeclarativeComponent@@UAE@I@Z @ 413 NONAME ; QDeclarativeComponent::~QDeclarativeComponent(unsigned int)
	??_EQDeclarativeConnections@@UAE@I@Z @ 414 NONAME ; QDeclarativeConnections::~QDeclarativeConnections(unsigned int)
	??_EQDeclarativeContext@@UAE@I@Z @ 415 NONAME ; QDeclarativeContext::~QDeclarativeContext(unsigned int)
	??_EQDeclarativeContextPrivate@@UAE@I@Z @ 416 NONAME ABSENT ; QDeclarativeContextPrivate::~QDeclarativeContextPrivate(unsigned int)
	??_EQDeclarativeCurve@@UAE@I@Z @ 417 NONAME ; QDeclarativeCurve::~QDeclarativeCurve(unsigned int)
	??_EQDeclarativeCustomParser@@UAE@I@Z @ 418 NONAME ; QDeclarativeCustomParser::~QDeclarativeCustomParser(unsigned int)
	??_EQDeclarativeDateTimeFormatter@@UAE@I@Z @ 419 NONAME ABSENT ; QDeclarativeDateTimeFormatter::~QDeclarativeDateTimeFormatter(unsigned int)
	??_EQDeclarativeDebugClient@@UAE@I@Z @ 420 NONAME ; QDeclarativeDebugClient::~QDeclarativeDebugClient(unsigned int)
	??_EQDeclarativeDebugConnection@@UAE@I@Z @ 421 NONAME ; QDeclarativeDebugConnection::~QDeclarativeDebugConnection(unsigned int)
	??_EQDeclarativeDebugContextReference@@QAE@I@Z @ 422 NONAME ; QDeclarativeDebugContextReference::~QDeclarativeDebugContextReference(unsigned int)
	??_EQDeclarativeDebugEngineReference@@QAE@I@Z @ 423 NONAME ; QDeclarativeDebugEngineReference::~QDeclarativeDebugEngineReference(unsigned int)
	??_EQDeclarativeDebugEnginesQuery@@UAE@I@Z @ 424 NONAME ; QDeclarativeDebugEnginesQuery::~QDeclarativeDebugEnginesQuery(unsigned int)
	??_EQDeclarativeDebugExpressionQuery@@UAE@I@Z @ 425 NONAME ; QDeclarativeDebugExpressionQuery::~QDeclarativeDebugExpressionQuery(unsigned int)
	??_EQDeclarativeDebugObjectExpressionWatch@@UAE@I@Z @ 426 NONAME ; QDeclarativeDebugObjectExpressionWatch::~QDeclarativeDebugObjectExpressionWatch(unsigned int)
	??_EQDeclarativeDebugObjectQuery@@UAE@I@Z @ 427 NONAME ; QDeclarativeDebugObjectQuery::~QDeclarativeDebugObjectQuery(unsigned int)
	??_EQDeclarativeDebugObjectReference@@QAE@I@Z @ 428 NONAME ; QDeclarativeDebugObjectReference::~QDeclarativeDebugObjectReference(unsigned int)
	??_EQDeclarativeDebugPropertyReference@@QAE@I@Z @ 429 NONAME ; QDeclarativeDebugPropertyReference::~QDeclarativeDebugPropertyReference(unsigned int)
	??_EQDeclarativeDebugPropertyWatch@@UAE@I@Z @ 430 NONAME ; QDeclarativeDebugPropertyWatch::~QDeclarativeDebugPropertyWatch(unsigned int)
	??_EQDeclarativeDebugQuery@@UAE@I@Z @ 431 NONAME ; QDeclarativeDebugQuery::~QDeclarativeDebugQuery(unsigned int)
	??_EQDeclarativeDebugRootContextQuery@@UAE@I@Z @ 432 NONAME ; QDeclarativeDebugRootContextQuery::~QDeclarativeDebugRootContextQuery(unsigned int)
	??_EQDeclarativeDebugService@@UAE@I@Z @ 433 NONAME ; QDeclarativeDebugService::~QDeclarativeDebugService(unsigned int)
	??_EQDeclarativeDebugWatch@@UAE@I@Z @ 434 NONAME ; QDeclarativeDebugWatch::~QDeclarativeDebugWatch(unsigned int)
	??_EQDeclarativeDebuggerStatus@@UAE@I@Z @ 435 NONAME ; QDeclarativeDebuggerStatus::~QDeclarativeDebuggerStatus(unsigned int)
	??_EQDeclarativeDrag@@UAE@I@Z @ 436 NONAME ; QDeclarativeDrag::~QDeclarativeDrag(unsigned int)
	??_EQDeclarativeEaseFollow@@UAE@I@Z @ 437 NONAME ABSENT ; QDeclarativeEaseFollow::~QDeclarativeEaseFollow(unsigned int)
	??_EQDeclarativeEngine@@UAE@I@Z @ 438 NONAME ; QDeclarativeEngine::~QDeclarativeEngine(unsigned int)
	??_EQDeclarativeEngineDebug@@UAE@I@Z @ 439 NONAME ; QDeclarativeEngineDebug::~QDeclarativeEngineDebug(unsigned int)
	??_EQDeclarativeExpression@@UAE@I@Z @ 440 NONAME ; QDeclarativeExpression::~QDeclarativeExpression(unsigned int)
	??_EQDeclarativeExtensionInterface@@UAE@I@Z @ 441 NONAME ; QDeclarativeExtensionInterface::~QDeclarativeExtensionInterface(unsigned int)
	??_EQDeclarativeExtensionPlugin@@UAE@I@Z @ 442 NONAME ; QDeclarativeExtensionPlugin::~QDeclarativeExtensionPlugin(unsigned int)
	??_EQDeclarativeFlickable@@UAE@I@Z @ 443 NONAME ; QDeclarativeFlickable::~QDeclarativeFlickable(unsigned int)
	??_EQDeclarativeFlipable@@UAE@I@Z @ 444 NONAME ; QDeclarativeFlipable::~QDeclarativeFlipable(unsigned int)
	??_EQDeclarativeFlow@@UAE@I@Z @ 445 NONAME ; QDeclarativeFlow::~QDeclarativeFlow(unsigned int)
	??_EQDeclarativeFocusPanel@@UAE@I@Z @ 446 NONAME ; QDeclarativeFocusPanel::~QDeclarativeFocusPanel(unsigned int)
	??_EQDeclarativeFocusScope@@UAE@I@Z @ 447 NONAME ; QDeclarativeFocusScope::~QDeclarativeFocusScope(unsigned int)
	??_EQDeclarativeFontLoader@@UAE@I@Z @ 448 NONAME ; QDeclarativeFontLoader::~QDeclarativeFontLoader(unsigned int)
	??_EQDeclarativeGradient@@UAE@I@Z @ 449 NONAME ; QDeclarativeGradient::~QDeclarativeGradient(unsigned int)
	??_EQDeclarativeGradientStop@@UAE@I@Z @ 450 NONAME ; QDeclarativeGradientStop::~QDeclarativeGradientStop(unsigned int)
	??_EQDeclarativeGraphicsObjectContainer@@UAE@I@Z @ 451 NONAME ABSENT ; QDeclarativeGraphicsObjectContainer::~QDeclarativeGraphicsObjectContainer(unsigned int)
	??_EQDeclarativeGrid@@UAE@I@Z @ 452 NONAME ; QDeclarativeGrid::~QDeclarativeGrid(unsigned int)
	??_EQDeclarativeGridView@@UAE@I@Z @ 453 NONAME ; QDeclarativeGridView::~QDeclarativeGridView(unsigned int)
	??_EQDeclarativeImage@@UAE@I@Z @ 454 NONAME ; QDeclarativeImage::~QDeclarativeImage(unsigned int)
	??_EQDeclarativeImageBase@@UAE@I@Z @ 455 NONAME ; QDeclarativeImageBase::~QDeclarativeImageBase(unsigned int)
	??_EQDeclarativeImageProvider@@UAE@I@Z @ 456 NONAME ; QDeclarativeImageProvider::~QDeclarativeImageProvider(unsigned int)
	??_EQDeclarativeItem@@UAE@I@Z @ 457 NONAME ; QDeclarativeItem::~QDeclarativeItem(unsigned int)
	??_EQDeclarativeListModel@@UAE@I@Z @ 458 NONAME ; QDeclarativeListModel::~QDeclarativeListModel(unsigned int)
	??_EQDeclarativeListView@@UAE@I@Z @ 459 NONAME ; QDeclarativeListView::~QDeclarativeListView(unsigned int)
	??_EQDeclarativeLoader@@UAE@I@Z @ 460 NONAME ; QDeclarativeLoader::~QDeclarativeLoader(unsigned int)
	??_EQDeclarativeMouseArea@@UAE@I@Z @ 461 NONAME ; QDeclarativeMouseArea::~QDeclarativeMouseArea(unsigned int)
	??_EQDeclarativeNetworkAccessManagerFactory@@UAE@I@Z @ 462 NONAME ; QDeclarativeNetworkAccessManagerFactory::~QDeclarativeNetworkAccessManagerFactory(unsigned int)
	??_EQDeclarativeNumberFormatter@@UAE@I@Z @ 463 NONAME ABSENT ; QDeclarativeNumberFormatter::~QDeclarativeNumberFormatter(unsigned int)
	??_EQDeclarativeOpenMetaObject@@UAE@I@Z @ 464 NONAME ; QDeclarativeOpenMetaObject::~QDeclarativeOpenMetaObject(unsigned int)
	??_EQDeclarativeOpenMetaObjectType@@UAE@I@Z @ 465 NONAME ; QDeclarativeOpenMetaObjectType::~QDeclarativeOpenMetaObjectType(unsigned int)
	??_EQDeclarativePaintedItem@@UAE@I@Z @ 466 NONAME ; QDeclarativePaintedItem::~QDeclarativePaintedItem(unsigned int)
	??_EQDeclarativeParentChange@@UAE@I@Z @ 467 NONAME ; QDeclarativeParentChange::~QDeclarativeParentChange(unsigned int)
	??_EQDeclarativeParserStatus@@UAE@I@Z @ 468 NONAME ; QDeclarativeParserStatus::~QDeclarativeParserStatus(unsigned int)
	??_EQDeclarativeParticleMotion@@UAE@I@Z @ 469 NONAME ABSENT ; QDeclarativeParticleMotion::~QDeclarativeParticleMotion(unsigned int)
	??_EQDeclarativeParticleMotionGravity@@UAE@I@Z @ 470 NONAME ABSENT ; QDeclarativeParticleMotionGravity::~QDeclarativeParticleMotionGravity(unsigned int)
	??_EQDeclarativeParticleMotionLinear@@UAE@I@Z @ 471 NONAME ABSENT ; QDeclarativeParticleMotionLinear::~QDeclarativeParticleMotionLinear(unsigned int)
	??_EQDeclarativeParticleMotionWander@@UAE@I@Z @ 472 NONAME ABSENT ; QDeclarativeParticleMotionWander::~QDeclarativeParticleMotionWander(unsigned int)
	??_EQDeclarativeParticles@@UAE@I@Z @ 473 NONAME ABSENT ; QDeclarativeParticles::~QDeclarativeParticles(unsigned int)
	??_EQDeclarativePath@@UAE@I@Z @ 474 NONAME ; QDeclarativePath::~QDeclarativePath(unsigned int)
	??_EQDeclarativePathAttribute@@UAE@I@Z @ 475 NONAME ; QDeclarativePathAttribute::~QDeclarativePathAttribute(unsigned int)
	??_EQDeclarativePathCubic@@UAE@I@Z @ 476 NONAME ; QDeclarativePathCubic::~QDeclarativePathCubic(unsigned int)
	??_EQDeclarativePathElement@@UAE@I@Z @ 477 NONAME ; QDeclarativePathElement::~QDeclarativePathElement(unsigned int)
	??_EQDeclarativePathLine@@UAE@I@Z @ 478 NONAME ; QDeclarativePathLine::~QDeclarativePathLine(unsigned int)
	??_EQDeclarativePathPercent@@UAE@I@Z @ 479 NONAME ; QDeclarativePathPercent::~QDeclarativePathPercent(unsigned int)
	??_EQDeclarativePathQuad@@UAE@I@Z @ 480 NONAME ; QDeclarativePathQuad::~QDeclarativePathQuad(unsigned int)
	??_EQDeclarativePathView@@UAE@I@Z @ 481 NONAME ; QDeclarativePathView::~QDeclarativePathView(unsigned int)
	??_EQDeclarativePen@@UAE@I@Z @ 482 NONAME ; QDeclarativePen::~QDeclarativePen(unsigned int)
	??_EQDeclarativePixmapReply@@UAE@I@Z @ 483 NONAME ; QDeclarativePixmapReply::~QDeclarativePixmapReply(unsigned int)
	??_EQDeclarativePropertyChanges@@UAE@I@Z @ 484 NONAME ; QDeclarativePropertyChanges::~QDeclarativePropertyChanges(unsigned int)
	??_EQDeclarativePropertyMap@@UAE@I@Z @ 485 NONAME ; QDeclarativePropertyMap::~QDeclarativePropertyMap(unsigned int)
	??_EQDeclarativePropertyValueInterceptor@@UAE@I@Z @ 486 NONAME ; QDeclarativePropertyValueInterceptor::~QDeclarativePropertyValueInterceptor(unsigned int)
	??_EQDeclarativePropertyValueSource@@UAE@I@Z @ 487 NONAME ; QDeclarativePropertyValueSource::~QDeclarativePropertyValueSource(unsigned int)
	??_EQDeclarativeRectangle@@UAE@I@Z @ 488 NONAME ; QDeclarativeRectangle::~QDeclarativeRectangle(unsigned int)
	??_EQDeclarativeRepeater@@UAE@I@Z @ 489 NONAME ; QDeclarativeRepeater::~QDeclarativeRepeater(unsigned int)
	??_EQDeclarativeRow@@UAE@I@Z @ 490 NONAME ; QDeclarativeRow::~QDeclarativeRow(unsigned int)
	??_EQDeclarativeScaleGrid@@UAE@I@Z @ 491 NONAME ; QDeclarativeScaleGrid::~QDeclarativeScaleGrid(unsigned int)
	??_EQDeclarativeSpringFollow@@UAE@I@Z @ 492 NONAME ; QDeclarativeSpringFollow::~QDeclarativeSpringFollow(unsigned int)
	??_EQDeclarativeState@@UAE@I@Z @ 493 NONAME ; QDeclarativeState::~QDeclarativeState(unsigned int)
	??_EQDeclarativeStateChangeScript@@UAE@I@Z @ 494 NONAME ; QDeclarativeStateChangeScript::~QDeclarativeStateChangeScript(unsigned int)
	??_EQDeclarativeStateGroup@@UAE@I@Z @ 495 NONAME ; QDeclarativeStateGroup::~QDeclarativeStateGroup(unsigned int)
	??_EQDeclarativeStateOperation@@UAE@I@Z @ 496 NONAME ; QDeclarativeStateOperation::~QDeclarativeStateOperation(unsigned int)
	??_EQDeclarativeSystemPalette@@UAE@I@Z @ 497 NONAME ; QDeclarativeSystemPalette::~QDeclarativeSystemPalette(unsigned int)
	??_EQDeclarativeText@@UAE@I@Z @ 498 NONAME ; QDeclarativeText::~QDeclarativeText(unsigned int)
	??_EQDeclarativeTextEdit@@UAE@I@Z @ 499 NONAME ; QDeclarativeTextEdit::~QDeclarativeTextEdit(unsigned int)
	??_EQDeclarativeTextInput@@UAE@I@Z @ 500 NONAME ; QDeclarativeTextInput::~QDeclarativeTextInput(unsigned int)
	??_EQDeclarativeTimer@@UAE@I@Z @ 501 NONAME ; QDeclarativeTimer::~QDeclarativeTimer(unsigned int)
	??_EQDeclarativeTransition@@UAE@I@Z @ 502 NONAME ; QDeclarativeTransition::~QDeclarativeTransition(unsigned int)
	??_EQDeclarativeValueType@@UAE@I@Z @ 503 NONAME ; QDeclarativeValueType::~QDeclarativeValueType(unsigned int)
	??_EQDeclarativeView@@UAE@I@Z @ 504 NONAME ; QDeclarativeView::~QDeclarativeView(unsigned int)
	??_EQDeclarativeViewSection@@UAE@I@Z @ 505 NONAME ; QDeclarativeViewSection::~QDeclarativeViewSection(unsigned int)
	??_EQDeclarativeVisualDataModel@@UAE@I@Z @ 506 NONAME ; QDeclarativeVisualDataModel::~QDeclarativeVisualDataModel(unsigned int)
	??_EQDeclarativeVisualItemModel@@UAE@I@Z @ 507 NONAME ; QDeclarativeVisualItemModel::~QDeclarativeVisualItemModel(unsigned int)
	??_EQDeclarativeVisualModel@@UAE@I@Z @ 508 NONAME ; QDeclarativeVisualModel::~QDeclarativeVisualModel(unsigned int)
	??_EQDeclarativeWebPage@@UAE@I@Z @ 509 NONAME ABSENT ; QDeclarativeWebPage::~QDeclarativeWebPage(unsigned int)
	??_EQDeclarativeWebView@@UAE@I@Z @ 510 NONAME ABSENT ; QDeclarativeWebView::~QDeclarativeWebView(unsigned int)
	??_EQDeclarativeXmlListModel@@UAE@I@Z @ 511 NONAME ; QDeclarativeXmlListModel::~QDeclarativeXmlListModel(unsigned int)
	??_EQDeclarativeXmlListModelRole@@UAE@I@Z @ 512 NONAME ; QDeclarativeXmlListModelRole::~QDeclarativeXmlListModelRole(unsigned int)
	??_EQListModelInterface@@UAE@I@Z @ 513 NONAME ; QListModelInterface::~QListModelInterface(unsigned int)
	??_EQMetaObjectBuilder@@UAE@I@Z @ 514 NONAME ; QMetaObjectBuilder::~QMetaObjectBuilder(unsigned int)
	??_EQPacket@@UAE@I@Z @ 515 NONAME ; QPacket::~QPacket(unsigned int)
	??_EQPacketAutoSend@@UAE@I@Z @ 516 NONAME ; QPacketAutoSend::~QPacketAutoSend(unsigned int)
	??_EQPacketProtocol@@UAE@I@Z @ 517 NONAME ; QPacketProtocol::~QPacketProtocol(unsigned int)
	?__q_notify@QDeclarativeExpression@@AAEXXZ @ 518 NONAME ABSENT ; void QDeclarativeExpression::__q_notify(void)
	?_q_createdPackage@QDeclarativeVisualDataModel@@AAEXHPAVQDeclarativePackage@@@Z @ 519 NONAME ; void QDeclarativeVisualDataModel::_q_createdPackage(int, class QDeclarativePackage *)
	?_q_dataChanged@QDeclarativeVisualDataModel@@AAEXABVQModelIndex@@0@Z @ 520 NONAME ; void QDeclarativeVisualDataModel::_q_dataChanged(class QModelIndex const &, class QModelIndex const &)
	?_q_destroyingPackage@QDeclarativeVisualDataModel@@AAEXPAVQDeclarativePackage@@@Z @ 521 NONAME ; void QDeclarativeVisualDataModel::_q_destroyingPackage(class QDeclarativePackage *)
	?_q_itemsChanged@QDeclarativeVisualDataModel@@AAEXHHABV?$QList@H@@@Z @ 522 NONAME ; void QDeclarativeVisualDataModel::_q_itemsChanged(int, int, class QList<int> const &)
	?_q_itemsInserted@QDeclarativeVisualDataModel@@AAEXHH@Z @ 523 NONAME ; void QDeclarativeVisualDataModel::_q_itemsInserted(int, int)
	?_q_itemsMoved@QDeclarativeVisualDataModel@@AAEXHHH@Z @ 524 NONAME ; void QDeclarativeVisualDataModel::_q_itemsMoved(int, int, int)
	?_q_itemsRemoved@QDeclarativeVisualDataModel@@AAEXHH@Z @ 525 NONAME ; void QDeclarativeVisualDataModel::_q_itemsRemoved(int, int)
	?_q_modelReset@QDeclarativeVisualDataModel@@AAEXXZ @ 526 NONAME ; void QDeclarativeVisualDataModel::_q_modelReset(void)
	?_q_rowsInserted@QDeclarativeVisualDataModel@@AAEXABVQModelIndex@@HH@Z @ 527 NONAME ; void QDeclarativeVisualDataModel::_q_rowsInserted(class QModelIndex const &, int, int)
	?_q_rowsMoved@QDeclarativeVisualDataModel@@AAEXABVQModelIndex@@HH0H@Z @ 528 NONAME ; void QDeclarativeVisualDataModel::_q_rowsMoved(class QModelIndex const &, int, int, class QModelIndex const &, int)
	?_q_rowsRemoved@QDeclarativeVisualDataModel@@AAEXABVQModelIndex@@HH@Z @ 529 NONAME ; void QDeclarativeVisualDataModel::_q_rowsRemoved(class QModelIndex const &, int, int)
	?acceleration@QDeclarativeParticleMotionGravity@@QBEMXZ @ 530 NONAME ABSENT ; float QDeclarativeParticleMotionGravity::acceleration(void) const
	?accelerationChanged@QDeclarativeParticleMotionGravity@@IAEXXZ @ 531 NONAME ABSENT ; void QDeclarativeParticleMotionGravity::accelerationChanged(void)
	?acceptableInputChanged@QDeclarativeTextInput@@IAEXXZ @ 532 NONAME ; void QDeclarativeTextInput::acceptableInputChanged(void)
	?accepted@QDeclarativeTextInput@@IAEXXZ @ 533 NONAME ; void QDeclarativeTextInput::accepted(void)
	?acceptedButtons@QDeclarativeMouseArea@@QBE?AV?$QFlags@W4MouseButton@Qt@@@@XZ @ 534 NONAME ; class QFlags<enum Qt::MouseButton> QDeclarativeMouseArea::acceptedButtons(void) const
	?acceptedButtonsChanged@QDeclarativeMouseArea@@IAEXXZ @ 535 NONAME ; void QDeclarativeMouseArea::acceptedButtonsChanged(void)
	?access@QMetaMethodBuilder@@QBE?AW4Access@QMetaMethod@@XZ @ 536 NONAME ; enum QMetaMethod::Access QMetaMethodBuilder::access(void) const
	?actions@QDeclarativeAnchorChanges@@UAE?AV?$QList@VQDeclarativeAction@@@@XZ @ 537 NONAME ; class QList<class QDeclarativeAction> QDeclarativeAnchorChanges::actions(void)
	?actions@QDeclarativeParentChange@@UAE?AV?$QList@VQDeclarativeAction@@@@XZ @ 538 NONAME ; class QList<class QDeclarativeAction> QDeclarativeParentChange::actions(void)
	?actions@QDeclarativePropertyChanges@@UAE?AV?$QList@VQDeclarativeAction@@@@XZ @ 539 NONAME ; class QList<class QDeclarativeAction> QDeclarativePropertyChanges::actions(void)
	?actions@QDeclarativeStateChangeScript@@UAE?AV?$QList@VQDeclarativeAction@@@@XZ @ 540 NONAME ; class QList<class QDeclarativeAction> QDeclarativeStateChangeScript::actions(void)
	?actions@QDeclarativeStateOperation@@UAE?AV?$QList@VQDeclarativeAction@@@@XZ @ 541 NONAME ; class QList<class QDeclarativeAction> QDeclarativeStateOperation::actions(void)
	?activeChanged@QDeclarativeFocusPanel@@IAEXXZ @ 542 NONAME ; void QDeclarativeFocusPanel::activeChanged(void)
	?add@QDeclarativeBasePositioner@@QBEPAVQDeclarativeTransition@@XZ @ 543 NONAME ; class QDeclarativeTransition * QDeclarativeBasePositioner::add(void) const
	?addBindingReference@QDeclarativeCompiler@@AAEXABUBindingReference@1@@Z @ 544 NONAME ; void QDeclarativeCompiler::addBindingReference(struct QDeclarativeCompiler::BindingReference const &)
	?addChanged@QDeclarativeBasePositioner@@IAEXXZ @ 545 NONAME ; void QDeclarativeBasePositioner::addChanged(void)
	?addClassInfo@QMetaObjectBuilder@@QAEHABVQByteArray@@0@Z @ 546 NONAME ; int QMetaObjectBuilder::addClassInfo(class QByteArray const &, class QByteArray const &)
	?addConstructor@QMetaObjectBuilder@@QAE?AVQMetaMethodBuilder@@ABVQByteArray@@@Z @ 547 NONAME ; class QMetaMethodBuilder QMetaObjectBuilder::addConstructor(class QByteArray const &)
	?addConstructor@QMetaObjectBuilder@@QAE?AVQMetaMethodBuilder@@ABVQMetaMethod@@@Z @ 548 NONAME ; class QMetaMethodBuilder QMetaObjectBuilder::addConstructor(class QMetaMethod const &)
	?addDefaultObject@QDeclarativeContext@@QAEXPAVQObject@@@Z @ 549 NONAME ABSENT ; void QDeclarativeContext::addDefaultObject(class QObject *)
	?addEnumerator@QMetaObjectBuilder@@QAE?AVQMetaEnumBuilder@@ABVQByteArray@@@Z @ 550 NONAME ; class QMetaEnumBuilder QMetaObjectBuilder::addEnumerator(class QByteArray const &)
	?addEnumerator@QMetaObjectBuilder@@QAE?AVQMetaEnumBuilder@@ABVQMetaEnum@@@Z @ 551 NONAME ; class QMetaEnumBuilder QMetaObjectBuilder::addEnumerator(class QMetaEnum const &)
	?addId@QDeclarativeCompiler@@AAEXABVQString@@PAVObject@QDeclarativeParser@@@Z @ 552 NONAME ; void QDeclarativeCompiler::addId(class QString const &, class QDeclarativeParser::Object *)
	?addImageProvider@QDeclarativeEngine@@QAEXABVQString@@PAVQDeclarativeImageProvider@@@Z @ 553 NONAME ; void QDeclarativeEngine::addImageProvider(class QString const &, class QDeclarativeImageProvider *)
	?addImportPath@QDeclarativeEngine@@QAEXABVQString@@@Z @ 554 NONAME ; void QDeclarativeEngine::addImportPath(class QString const &)
	?addKey@QMetaEnumBuilder@@QAEHABVQByteArray@@H@Z @ 555 NONAME ; int QMetaEnumBuilder::addKey(class QByteArray const &, int)
	?addMetaObject@QMetaObjectBuilder@@QAEXPBUQMetaObject@@V?$QFlags@W4AddMember@QMetaObjectBuilder@@@@@Z @ 556 NONAME ; void QMetaObjectBuilder::addMetaObject(struct QMetaObject const *, class QFlags<enum QMetaObjectBuilder::AddMember>)
	?addMethod@QMetaObjectBuilder@@QAE?AVQMetaMethodBuilder@@ABVQByteArray@@0@Z @ 557 NONAME ; class QMetaMethodBuilder QMetaObjectBuilder::addMethod(class QByteArray const &, class QByteArray const &)
	?addMethod@QMetaObjectBuilder@@QAE?AVQMetaMethodBuilder@@ABVQByteArray@@@Z @ 558 NONAME ; class QMetaMethodBuilder QMetaObjectBuilder::addMethod(class QByteArray const &)
	?addMethod@QMetaObjectBuilder@@QAE?AVQMetaMethodBuilder@@ABVQMetaMethod@@@Z @ 559 NONAME ; class QMetaMethodBuilder QMetaObjectBuilder::addMethod(class QMetaMethod const &)
	?addProperty@QMetaObjectBuilder@@QAE?AVQMetaPropertyBuilder@@ABVQByteArray@@0H@Z @ 560 NONAME ; class QMetaPropertyBuilder QMetaObjectBuilder::addProperty(class QByteArray const &, class QByteArray const &, int)
	?addProperty@QMetaObjectBuilder@@QAE?AVQMetaPropertyBuilder@@ABVQMetaProperty@@@Z @ 561 NONAME ; class QMetaPropertyBuilder QMetaObjectBuilder::addProperty(class QMetaProperty const &)
	?addRef@QDeclarativePixmapReply@@AAEXXZ @ 562 NONAME ; void QDeclarativePixmapReply::addRef(void)
	?addRelatedMetaObject@QMetaObjectBuilder@@QAEHABQ6AABUQMetaObject@@XZ@Z @ 563 NONAME ; int QMetaObjectBuilder::addRelatedMetaObject(struct QMetaObject const & (* const)(void) const &)
	?addRole@QDeclarativeListModel@@ABEXABVQString@@@Z @ 564 NONAME ABSENT ; void QDeclarativeListModel::addRole(class QString const &) const
	?addScript@QDeclarativeContextPrivate@@QAEXABUScriptBlock@Object@QDeclarativeParser@@PAVQObject@@@Z @ 565 NONAME ABSENT ; void QDeclarativeContextPrivate::addScript(struct QDeclarativeParser::Object::ScriptBlock const &, class QObject *)
	?addSignal@QMetaObjectBuilder@@QAE?AVQMetaMethodBuilder@@ABVQByteArray@@@Z @ 566 NONAME ; class QMetaMethodBuilder QMetaObjectBuilder::addSignal(class QByteArray const &)
	?addSlot@QMetaObjectBuilder@@QAE?AVQMetaMethodBuilder@@ABVQByteArray@@@Z @ 567 NONAME ; class QMetaMethodBuilder QMetaObjectBuilder::addSlot(class QByteArray const &)
	?addToPath@QDeclarativeCurve@@UAEXAAVQPainterPath@@@Z @ 568 NONAME ; void QDeclarativeCurve::addToPath(class QPainterPath &)
	?addToPath@QDeclarativePathCubic@@UAEXAAVQPainterPath@@@Z @ 569 NONAME ; void QDeclarativePathCubic::addToPath(class QPainterPath &)
	?addToPath@QDeclarativePathLine@@UAEXAAVQPainterPath@@@Z @ 570 NONAME ; void QDeclarativePathLine::addToPath(class QPainterPath &)
	?addToPath@QDeclarativePathQuad@@UAEXAAVQPainterPath@@@Z @ 571 NONAME ; void QDeclarativePathQuad::addToPath(class QPainterPath &)
	?addWatch@QDeclarativeEngineDebug@@QAEPAVQDeclarativeDebugObjectExpressionWatch@@ABVQDeclarativeDebugObjectReference@@ABVQString@@PAVQObject@@@Z @ 572 NONAME ; class QDeclarativeDebugObjectExpressionWatch * QDeclarativeEngineDebug::addWatch(class QDeclarativeDebugObjectReference const &, class QString const &, class QObject *)
	?addWatch@QDeclarativeEngineDebug@@QAEPAVQDeclarativeDebugPropertyWatch@@ABVQDeclarativeDebugPropertyReference@@PAVQObject@@@Z @ 573 NONAME ; class QDeclarativeDebugPropertyWatch * QDeclarativeEngineDebug::addWatch(class QDeclarativeDebugPropertyReference const &, class QObject *)
	?addWatch@QDeclarativeEngineDebug@@QAEPAVQDeclarativeDebugWatch@@ABVQDeclarativeDebugContextReference@@ABVQString@@PAVQObject@@@Z @ 574 NONAME ; class QDeclarativeDebugWatch * QDeclarativeEngineDebug::addWatch(class QDeclarativeDebugContextReference const &, class QString const &, class QObject *)
	?addWatch@QDeclarativeEngineDebug@@QAEPAVQDeclarativeDebugWatch@@ABVQDeclarativeDebugFileReference@@PAVQObject@@@Z @ 575 NONAME ; class QDeclarativeDebugWatch * QDeclarativeEngineDebug::addWatch(class QDeclarativeDebugFileReference const &, class QObject *)
	?addWatch@QDeclarativeEngineDebug@@QAEPAVQDeclarativeDebugWatch@@ABVQDeclarativeDebugObjectReference@@PAVQObject@@@Z @ 576 NONAME ; class QDeclarativeDebugWatch * QDeclarativeEngineDebug::addWatch(class QDeclarativeDebugObjectReference const &, class QObject *)
	?advance@QDeclarativeParticleMotion@@UAEXAAVQDeclarativeParticle@@H@Z @ 577 NONAME ABSENT ; void QDeclarativeParticleMotion::advance(class QDeclarativeParticle &, int)
	?advance@QDeclarativeParticleMotionGravity@@UAEXAAVQDeclarativeParticle@@H@Z @ 578 NONAME ABSENT ; void QDeclarativeParticleMotionGravity::advance(class QDeclarativeParticle &, int)
	?advance@QDeclarativeParticleMotionLinear@@UAEXAAVQDeclarativeParticle@@H@Z @ 579 NONAME ABSENT ; void QDeclarativeParticleMotionLinear::advance(class QDeclarativeParticle &, int)
	?advance@QDeclarativeParticleMotionWander@@UAEXAAVQDeclarativeParticle@@H@Z @ 580 NONAME ABSENT ; void QDeclarativeParticleMotionWander::advance(class QDeclarativeParticle &, int)
	?alert@QDeclarativeWebView@@IAEXABVQString@@@Z @ 581 NONAME ABSENT ; void QDeclarativeWebView::alert(class QString const &)
	?alternateBase@QDeclarativeSystemPalette@@QBE?AVQColor@@XZ @ 582 NONAME ; class QColor QDeclarativeSystemPalette::alternateBase(void) const
	?anchors@QDeclarativeItem@@QAEPAVQDeclarativeAnchors@@XZ @ 583 NONAME ABSENT ; class QDeclarativeAnchors * QDeclarativeItem::anchors(void)
	?angle@QDeclarativeParticles@@QBEMXZ @ 584 NONAME ABSENT ; float QDeclarativeParticles::angle(void) const
	?angleChanged@QDeclarativeParticles@@IAEXXZ @ 585 NONAME ABSENT ; void QDeclarativeParticles::angleChanged(void)
	?angleDeviation@QDeclarativeParticles@@QBEMXZ @ 586 NONAME ABSENT ; float QDeclarativeParticles::angleDeviation(void) const
	?angleDeviationChanged@QDeclarativeParticles@@IAEXXZ @ 587 NONAME ABSENT ; void QDeclarativeParticles::angleDeviationChanged(void)
	?animStopped@QDeclarativeListView@@AAEXXZ @ 588 NONAME ; void QDeclarativeListView::animStopped(void)
	?animation@QDeclarativeBehavior@@QAEPAVQDeclarativeAbstractAnimation@@XZ @ 589 NONAME ; class QDeclarativeAbstractAnimation * QDeclarativeBehavior::animation(void)
	?animations@QDeclarativeTransition@@QAE?AU?$QDeclarativeListProperty@VQDeclarativeAbstractAnimation@@@@XZ @ 590 NONAME ABSENT ; struct QDeclarativeListProperty<class QDeclarativeAbstractAnimation> QDeclarativeTransition::animations(void)
	?append@QDeclarativeListModel@@QAEXABVQScriptValue@@@Z @ 591 NONAME ; void QDeclarativeListModel::append(class QScriptValue const &)
	?append@QDeclarativeListReference@@QBE_NPAVQObject@@@Z @ 592 NONAME ; bool QDeclarativeListReference::append(class QObject *) const
	?apply@QDeclarativeState@@QAEXPAVQDeclarativeStateGroup@@PAVQDeclarativeTransition@@PAV1@@Z @ 593 NONAME ; void QDeclarativeState::apply(class QDeclarativeStateGroup *, class QDeclarativeTransition *, class QDeclarativeState *)
	?assignedValues@QDeclarativeCustomParserProperty@@QBE?AV?$QList@VQVariant@@@@XZ @ 594 NONAME ; class QList<class QVariant> QDeclarativeCustomParserProperty::assignedValues(void) const
	?asynchronous@QDeclarativeImageBase@@QBE_NXZ @ 595 NONAME ; bool QDeclarativeImageBase::asynchronous(void) const
	?asynchronousChanged@QDeclarativeImageBase@@IAEXXZ @ 596 NONAME ; void QDeclarativeImageBase::asynchronousChanged(void)
	?at@QDeclarativeListAccessor@@QBE?AVQVariant@@H@Z @ 597 NONAME ; class QVariant QDeclarativeListAccessor::at(int) const
	?at@QDeclarativeListReference@@QBEPAVQObject@@H@Z @ 598 NONAME ; class QObject * QDeclarativeListReference::at(int) const
	?attachedPropertiesFuncById@QDeclarativeMetaType@@SAP6APAVQObject@@PAV2@@ZH@Z @ 599 NONAME ; class QObject * (*)(class QObject *) QDeclarativeMetaType::attachedPropertiesFuncById(int)
	?attachedPropertiesFuncId@QDeclarativeMetaType@@SAHPBUQMetaObject@@@Z @ 600 NONAME ; int QDeclarativeMetaType::attachedPropertiesFuncId(struct QMetaObject const *)
	?attachedPropertiesFunction@QDeclarativeType@@QBEP6APAVQObject@@PAV2@@ZXZ @ 601 NONAME ; class QObject * (*)(class QObject *) QDeclarativeType::attachedPropertiesFunction(void) const
	?attachedPropertiesType@QDeclarativeType@@QBEPBUQMetaObject@@XZ @ 602 NONAME ; struct QMetaObject const * QDeclarativeType::attachedPropertiesType(void) const
	?attributeAt@QDeclarativePath@@QBEMABVQString@@M@Z @ 603 NONAME ; float QDeclarativePath::attributeAt(class QString const &, float) const
	?attributes@QDeclarativePath@@QBE?AVQStringList@@XZ @ 604 NONAME ; class QStringList QDeclarativePath::attributes(void) const
	?attributes@QMetaMethodBuilder@@QBEHXZ @ 605 NONAME ; int QMetaMethodBuilder::attributes(void) const
	?availableInVersion@QDeclarativeType@@QBE_NHH@Z @ 606 NONAME ; bool QDeclarativeType::availableInVersion(int, int) const
	?axis@QDeclarativeDrag@@QBE?AW4Axis@1@XZ @ 607 NONAME ; enum QDeclarativeDrag::Axis QDeclarativeDrag::axis(void) const
	?axisChanged@QDeclarativeDrag@@IAEXXZ @ 608 NONAME ; void QDeclarativeDrag::axisChanged(void)
	?back@QDeclarativeFlipable@@QAEPAVQDeclarativeItem@@XZ @ 609 NONAME ABSENT ; class QDeclarativeItem * QDeclarativeFlipable::back(void)
	?backAction@QDeclarativeWebView@@QBEPAVQAction@@XZ @ 610 NONAME ABSENT ; class QAction * QDeclarativeWebView::backAction(void) const
	?base@QDeclarativeSystemPalette@@QBE?AVQColor@@XZ @ 611 NONAME ; class QColor QDeclarativeSystemPalette::base(void) const
	?baseMetaObject@QDeclarativeType@@QBEPBUQMetaObject@@XZ @ 612 NONAME ; struct QMetaObject const * QDeclarativeType::baseMetaObject(void) const
	?baseUrl@QDeclarativeContext@@QBE?AVQUrl@@XZ @ 613 NONAME ; class QUrl QDeclarativeContext::baseUrl(void) const
	?baseUrl@QDeclarativeEngine@@QBE?AVQUrl@@XZ @ 614 NONAME ; class QUrl QDeclarativeEngine::baseUrl(void) const
	?baseline@QDeclarativeAnchorChanges@@QBE?AVQDeclarativeAnchorLine@@XZ @ 615 NONAME ABSENT ; class QDeclarativeAnchorLine QDeclarativeAnchorChanges::baseline(void) const
	?baseline@QDeclarativeAnchors@@QBE?AVQDeclarativeAnchorLine@@XZ @ 616 NONAME ABSENT ; class QDeclarativeAnchorLine QDeclarativeAnchors::baseline(void) const
	?baseline@QDeclarativeItem@@QBE?AVQDeclarativeAnchorLine@@XZ @ 617 NONAME ABSENT ; class QDeclarativeAnchorLine QDeclarativeItem::baseline(void) const
	?baselineChanged@QDeclarativeAnchors@@IAEXXZ @ 618 NONAME ; void QDeclarativeAnchors::baselineChanged(void)
	?baselineOffset@QDeclarativeAnchors@@QBEMXZ @ 619 NONAME ; float QDeclarativeAnchors::baselineOffset(void) const
	?baselineOffset@QDeclarativeItem@@QBEMXZ @ 620 NONAME ; float QDeclarativeItem::baselineOffset(void) const
	?baselineOffsetChanged@QDeclarativeAnchors@@IAEXXZ @ 621 NONAME ; void QDeclarativeAnchors::baselineOffsetChanged(void)
	?baselineOffsetChanged@QDeclarativeItem@@IAEXXZ @ 622 NONAME ABSENT ; void QDeclarativeItem::baselineOffsetChanged(void)
	?beginCreate@QDeclarativeComponent@@UAEPAVQObject@@PAVQDeclarativeContext@@@Z @ 623 NONAME ; class QObject * QDeclarativeComponent::beginCreate(class QDeclarativeContext *)
	?binding@QDeclarativeDebugPropertyReference@@QBE?AVQString@@XZ @ 624 NONAME ; class QString QDeclarativeDebugPropertyReference::binding(void) const
	?binding@QDeclarativeDomValueBinding@@QBE?AVQString@@XZ @ 625 NONAME ; class QString QDeclarativeDomValueBinding::binding(void) const
	?border@QDeclarativeBorderImage@@QAEPAVQDeclarativeScaleGrid@@XZ @ 626 NONAME ; class QDeclarativeScaleGrid * QDeclarativeBorderImage::border(void)
	?border@QDeclarativeRectangle@@QAEPAVQDeclarativePen@@XZ @ 627 NONAME ; class QDeclarativePen * QDeclarativeRectangle::border(void)
	?borderChanged@QDeclarativeScaleGrid@@IAEXXZ @ 628 NONAME ; void QDeclarativeScaleGrid::borderChanged(void)
	?bottom@QDeclarativeAnchorChanges@@QBE?AVQDeclarativeAnchorLine@@XZ @ 629 NONAME ABSENT ; class QDeclarativeAnchorLine QDeclarativeAnchorChanges::bottom(void) const
	?bottom@QDeclarativeAnchors@@QBE?AVQDeclarativeAnchorLine@@XZ @ 630 NONAME ABSENT ; class QDeclarativeAnchorLine QDeclarativeAnchors::bottom(void) const
	?bottom@QDeclarativeItem@@QBE?AVQDeclarativeAnchorLine@@XZ @ 631 NONAME ABSENT ; class QDeclarativeAnchorLine QDeclarativeItem::bottom(void) const
	?bottom@QDeclarativeScaleGrid@@QBEHXZ @ 632 NONAME ; int QDeclarativeScaleGrid::bottom(void) const
	?bottomChanged@QDeclarativeAnchors@@IAEXXZ @ 633 NONAME ; void QDeclarativeAnchors::bottomChanged(void)
	?bottomMargin@QDeclarativeAnchors@@QBEMXZ @ 634 NONAME ; float QDeclarativeAnchors::bottomMargin(void) const
	?bottomMarginChanged@QDeclarativeAnchors@@IAEXXZ @ 635 NONAME ; void QDeclarativeAnchors::bottomMarginChanged(void)
	?boundingRect@QDeclarativeItem@@UBE?AVQRectF@@XZ @ 636 NONAME ; class QRectF QDeclarativeItem::boundingRect(void) const
	?boundingRect@QDeclarativeRectangle@@UBE?AVQRectF@@XZ @ 637 NONAME ; class QRectF QDeclarativeRectangle::boundingRect(void) const
	?buildAttachedProperty@QDeclarativeCompiler@@AAE_NPAVProperty@QDeclarativeParser@@PAVObject@3@ABUBindingContext@1@@Z @ 638 NONAME ; bool QDeclarativeCompiler::buildAttachedProperty(class QDeclarativeParser::Property *, class QDeclarativeParser::Object *, struct QDeclarativeCompiler::BindingContext const &)
	?buildBinding@QDeclarativeCompiler@@AAE_NPAVValue@QDeclarativeParser@@PAVProperty@3@ABUBindingContext@1@@Z @ 639 NONAME ; bool QDeclarativeCompiler::buildBinding(class QDeclarativeParser::Value *, class QDeclarativeParser::Property *, struct QDeclarativeCompiler::BindingContext const &)
	?buildComponent@QDeclarativeCompiler@@AAE_NPAVObject@QDeclarativeParser@@ABUBindingContext@1@@Z @ 640 NONAME ; bool QDeclarativeCompiler::buildComponent(class QDeclarativeParser::Object *, struct QDeclarativeCompiler::BindingContext const &)
	?buildComponentFromRoot@QDeclarativeCompiler@@AAE_NPAVObject@QDeclarativeParser@@ABUBindingContext@1@@Z @ 641 NONAME ; bool QDeclarativeCompiler::buildComponentFromRoot(class QDeclarativeParser::Object *, struct QDeclarativeCompiler::BindingContext const &)
	?buildDynamicMeta@QDeclarativeCompiler@@AAE_NPAVObject@QDeclarativeParser@@W4DynamicMetaMode@1@@Z @ 642 NONAME ; bool QDeclarativeCompiler::buildDynamicMeta(class QDeclarativeParser::Object *, enum QDeclarativeCompiler::DynamicMetaMode)
	?buildGroupedProperty@QDeclarativeCompiler@@AAE_NPAVProperty@QDeclarativeParser@@PAVObject@3@ABUBindingContext@1@@Z @ 643 NONAME ; bool QDeclarativeCompiler::buildGroupedProperty(class QDeclarativeParser::Property *, class QDeclarativeParser::Object *, struct QDeclarativeCompiler::BindingContext const &)
	?buildIdProperty@QDeclarativeCompiler@@AAE_NPAVProperty@QDeclarativeParser@@PAVObject@3@@Z @ 644 NONAME ; bool QDeclarativeCompiler::buildIdProperty(class QDeclarativeParser::Property *, class QDeclarativeParser::Object *)
	?buildListProperty@QDeclarativeCompiler@@AAE_NPAVProperty@QDeclarativeParser@@PAVObject@3@ABUBindingContext@1@@Z @ 645 NONAME ; bool QDeclarativeCompiler::buildListProperty(class QDeclarativeParser::Property *, class QDeclarativeParser::Object *, struct QDeclarativeCompiler::BindingContext const &)
	?buildObject@QDeclarativeCompiler@@AAE_NPAVObject@QDeclarativeParser@@ABUBindingContext@1@@Z @ 646 NONAME ; bool QDeclarativeCompiler::buildObject(class QDeclarativeParser::Object *, struct QDeclarativeCompiler::BindingContext const &)
	?buildProperty@QDeclarativeCompiler@@AAE_NPAVProperty@QDeclarativeParser@@PAVObject@3@ABUBindingContext@1@@Z @ 647 NONAME ; bool QDeclarativeCompiler::buildProperty(class QDeclarativeParser::Property *, class QDeclarativeParser::Object *, struct QDeclarativeCompiler::BindingContext const &)
	?buildPropertyAssignment@QDeclarativeCompiler@@AAE_NPAVProperty@QDeclarativeParser@@PAVObject@3@ABUBindingContext@1@@Z @ 648 NONAME ; bool QDeclarativeCompiler::buildPropertyAssignment(class QDeclarativeParser::Property *, class QDeclarativeParser::Object *, struct QDeclarativeCompiler::BindingContext const &)
	?buildPropertyInNamespace@QDeclarativeCompiler@@AAE_NPAUImportedNamespace@QDeclarativeEnginePrivate@@PAVProperty@QDeclarativeParser@@PAVObject@5@ABUBindingContext@1@@Z @ 649 NONAME ABSENT ; bool QDeclarativeCompiler::buildPropertyInNamespace(struct QDeclarativeEnginePrivate::ImportedNamespace *, class QDeclarativeParser::Property *, class QDeclarativeParser::Object *, struct QDeclarativeCompiler::BindingContext const &)
	?buildPropertyLiteralAssignment@QDeclarativeCompiler@@AAE_NPAVProperty@QDeclarativeParser@@PAVObject@3@PAVValue@3@ABUBindingContext@1@@Z @ 650 NONAME ; bool QDeclarativeCompiler::buildPropertyLiteralAssignment(class QDeclarativeParser::Property *, class QDeclarativeParser::Object *, class QDeclarativeParser::Value *, struct QDeclarativeCompiler::BindingContext const &)
	?buildPropertyObjectAssignment@QDeclarativeCompiler@@AAE_NPAVProperty@QDeclarativeParser@@PAVObject@3@PAVValue@3@ABUBindingContext@1@@Z @ 651 NONAME ; bool QDeclarativeCompiler::buildPropertyObjectAssignment(class QDeclarativeParser::Property *, class QDeclarativeParser::Object *, class QDeclarativeParser::Value *, struct QDeclarativeCompiler::BindingContext const &)
	?buildScript@QDeclarativeCompiler@@AAE_NPAVObject@QDeclarativeParser@@0@Z @ 652 NONAME ABSENT ; bool QDeclarativeCompiler::buildScript(class QDeclarativeParser::Object *, class QDeclarativeParser::Object *)
	?buildScriptStringProperty@QDeclarativeCompiler@@AAE_NPAVProperty@QDeclarativeParser@@PAVObject@3@ABUBindingContext@1@@Z @ 653 NONAME ; bool QDeclarativeCompiler::buildScriptStringProperty(class QDeclarativeParser::Property *, class QDeclarativeParser::Object *, struct QDeclarativeCompiler::BindingContext const &)
	?buildSignal@QDeclarativeCompiler@@AAE_NPAVProperty@QDeclarativeParser@@PAVObject@3@ABUBindingContext@1@@Z @ 654 NONAME ; bool QDeclarativeCompiler::buildSignal(class QDeclarativeParser::Property *, class QDeclarativeParser::Object *, struct QDeclarativeCompiler::BindingContext const &)
	?buildSubObject@QDeclarativeCompiler@@AAE_NPAVObject@QDeclarativeParser@@ABUBindingContext@1@@Z @ 655 NONAME ; bool QDeclarativeCompiler::buildSubObject(class QDeclarativeParser::Object *, struct QDeclarativeCompiler::BindingContext const &)
	?buildValueTypeProperty@QDeclarativeCompiler@@AAE_NPAVQObject@@PAVObject@QDeclarativeParser@@1ABUBindingContext@1@@Z @ 656 NONAME ; bool QDeclarativeCompiler::buildValueTypeProperty(class QObject *, class QDeclarativeParser::Object *, class QDeclarativeParser::Object *, struct QDeclarativeCompiler::BindingContext const &)
	?burst@QDeclarativeParticles@@QAEXHH@Z @ 657 NONAME ABSENT ; void QDeclarativeParticles::burst(int, int)
	?button@QDeclarativeSystemPalette@@QBE?AVQColor@@XZ @ 658 NONAME ; class QColor QDeclarativeSystemPalette::button(void) const
	?buttonText@QDeclarativeSystemPalette@@QBE?AVQColor@@XZ @ 659 NONAME ; class QColor QDeclarativeSystemPalette::buttonText(void) const
	?cacheBuffer@QDeclarativeGridView@@QBEHXZ @ 660 NONAME ; int QDeclarativeGridView::cacheBuffer(void) const
	?cacheBuffer@QDeclarativeListView@@QBEHXZ @ 661 NONAME ; int QDeclarativeListView::cacheBuffer(void) const
	?canAppend@QDeclarativeListReference@@QBE_NXZ @ 662 NONAME ; bool QDeclarativeListReference::canAppend(void) const
	?canAt@QDeclarativeListReference@@QBE_NXZ @ 663 NONAME ; bool QDeclarativeListReference::canAt(void) const
	?canClear@QDeclarativeListReference@@QBE_NXZ @ 664 NONAME ; bool QDeclarativeListReference::canClear(void) const
	?canCoerce@QDeclarativeCompiler@@AAE_NHH@Z @ 665 NONAME ABSENT ; bool QDeclarativeCompiler::canCoerce(int, int)
	?canCoerce@QDeclarativeCompiler@@AAE_NHPAVObject@QDeclarativeParser@@@Z @ 666 NONAME ; bool QDeclarativeCompiler::canCoerce(int, class QDeclarativeParser::Object *)
	?canCount@QDeclarativeListReference@@QBE_NXZ @ 667 NONAME ; bool QDeclarativeListReference::canCount(void) const
	?cancel@QDeclarativePixmapCache@@SAXABVQUrl@@PAVQObject@@@Z @ 668 NONAME ; void QDeclarativePixmapCache::cancel(class QUrl const &, class QObject *)
	?cancel@QDeclarativeState@@QAEXXZ @ 669 NONAME ; void QDeclarativeState::cancel(void)
	?cancelFlick@QDeclarativeFlickable@@IAEXXZ @ 670 NONAME ; void QDeclarativeFlickable::cancelFlick(void)
	?cellHeight@QDeclarativeGridView@@QBEHXZ @ 671 NONAME ; int QDeclarativeGridView::cellHeight(void) const
	?cellHeightChanged@QDeclarativeGridView@@IAEXXZ @ 672 NONAME ; void QDeclarativeGridView::cellHeightChanged(void)
	?cellWidth@QDeclarativeGridView@@QBEHXZ @ 673 NONAME ; int QDeclarativeGridView::cellWidth(void) const
	?cellWidthChanged@QDeclarativeGridView@@IAEXXZ @ 674 NONAME ; void QDeclarativeGridView::cellWidthChanged(void)
	?centerIn@QDeclarativeAnchors@@QBEPAVQDeclarativeItem@@XZ @ 675 NONAME ABSENT ; class QDeclarativeItem * QDeclarativeAnchors::centerIn(void) const
	?centerInChanged@QDeclarativeAnchors@@IAEXXZ @ 676 NONAME ; void QDeclarativeAnchors::centerInChanged(void)
	?changed@QDeclarativePath@@IAEXXZ @ 677 NONAME ; void QDeclarativePath::changed(void)
	?changed@QDeclarativePathElement@@IAEXXZ @ 678 NONAME ; void QDeclarativePathElement::changed(void)
	?changed@QDeclarativeViewSection@@IAEXXZ @ 679 NONAME ; void QDeclarativeViewSection::changed(void)
	?changes@QDeclarativeState@@QAE?AU?$QDeclarativeListProperty@VQDeclarativeStateOperation@@@@XZ @ 680 NONAME ABSENT ; struct QDeclarativeListProperty<class QDeclarativeStateOperation> QDeclarativeState::changes(void)
	?changesBindings@QDeclarativeAnchorChanges@@UAE_NXZ @ 681 NONAME ; bool QDeclarativeAnchorChanges::changesBindings(void)
	?checkDynamicMeta@QDeclarativeCompiler@@AAE_NPAVObject@QDeclarativeParser@@@Z @ 682 NONAME ; bool QDeclarativeCompiler::checkDynamicMeta(class QDeclarativeParser::Object *)
	?checkRoles@QDeclarativeListModel@@ABEXXZ @ 683 NONAME ABSENT ; void QDeclarativeListModel::checkRoles(void) const
	?children@QDeclarativeDebugObjectReference@@QBE?AV?$QList@VQDeclarativeDebugObjectReference@@@@XZ @ 684 NONAME ; class QList<class QDeclarativeDebugObjectReference> QDeclarativeDebugObjectReference::children(void) const
	?children@QDeclarativeVisualItemModel@@QAE?AU?$QDeclarativeListProperty@VQDeclarativeItem@@@@XZ @ 685 NONAME ABSENT ; struct QDeclarativeListProperty<class QDeclarativeItem> QDeclarativeVisualItemModel::children(void)
	?childrenChanged@QDeclarativeItem@@IAEXXZ @ 686 NONAME ; void QDeclarativeItem::childrenChanged(void)
	?childrenChanged@QDeclarativeVisualItemModel@@IAEXXZ @ 687 NONAME ; void QDeclarativeVisualItemModel::childrenChanged(void)
	?childrenRect@QDeclarativeItem@@QAE?AVQRectF@@XZ @ 688 NONAME ; class QRectF QDeclarativeItem::childrenRect(void)
	?childrenRectChanged@QDeclarativeItem@@IAEXXZ @ 689 NONAME ABSENT ; void QDeclarativeItem::childrenRectChanged(void)
	?chooseFile@QDeclarativeWebPage@@MAE?AVQString@@PAVQWebFrame@@ABV2@@Z @ 690 NONAME ABSENT ; class QString QDeclarativeWebPage::chooseFile(class QWebFrame *, class QString const &)
	?classBegin@QDeclarativeAnchors@@QAEXXZ @ 691 NONAME ; void QDeclarativeAnchors::classBegin(void)
	?classBegin@QDeclarativeDateTimeFormatter@@UAEXXZ @ 692 NONAME ABSENT ; void QDeclarativeDateTimeFormatter::classBegin(void)
	?classBegin@QDeclarativeItem@@MAEXXZ @ 693 NONAME ; void QDeclarativeItem::classBegin(void)
	?classBegin@QDeclarativeNumberFormatter@@UAEXXZ @ 694 NONAME ABSENT ; void QDeclarativeNumberFormatter::classBegin(void)
	?classBegin@QDeclarativeParserStatus@@UAEXXZ @ 695 NONAME ABSENT ; void QDeclarativeParserStatus::classBegin(void)
	?classBegin@QDeclarativeStateGroup@@UAEXXZ @ 696 NONAME ; void QDeclarativeStateGroup::classBegin(void)
	?classBegin@QDeclarativeTimer@@MAEXXZ @ 697 NONAME ; void QDeclarativeTimer::classBegin(void)
	?classBegin@QDeclarativeXmlListModel@@UAEXXZ @ 698 NONAME ; void QDeclarativeXmlListModel::classBegin(void)
	?classInfoCount@QMetaObjectBuilder@@QBEHXZ @ 699 NONAME ; int QMetaObjectBuilder::classInfoCount(void) const
	?classInfoName@QMetaObjectBuilder@@QBE?AVQByteArray@@H@Z @ 700 NONAME ; class QByteArray QMetaObjectBuilder::classInfoName(int) const
	?classInfoValue@QMetaObjectBuilder@@QBE?AVQByteArray@@H@Z @ 701 NONAME ; class QByteArray QMetaObjectBuilder::classInfoValue(int) const
	?className@QDeclarativeDebugObjectReference@@QBE?AVQString@@XZ @ 702 NONAME ; class QString QDeclarativeDebugObjectReference::className(void) const
	?className@QMetaObjectBuilder@@QBE?AVQByteArray@@XZ @ 703 NONAME ; class QByteArray QMetaObjectBuilder::className(void) const
	?clear@QDeclarativeListModel@@QAEXXZ @ 704 NONAME ; void QDeclarativeListModel::clear(void)
	?clear@QDeclarativeListReference@@QBE_NXZ @ 705 NONAME ; bool QDeclarativeListReference::clear(void) const
	?clear@QDeclarativePropertyMap@@QAEXABVQString@@@Z @ 706 NONAME ; void QDeclarativePropertyMap::clear(class QString const &)
	?clear@QDeclarativeRepeater@@AAEXXZ @ 707 NONAME ; void QDeclarativeRepeater::clear(void)
	?clear@QPacket@@QAEXXZ @ 708 NONAME ; void QPacket::clear(void)
	?clear@QPacketProtocol@@QAEXXZ @ 709 NONAME ; void QPacketProtocol::clear(void)
	?clear@QPerformanceLog@@YAXXZ @ 710 NONAME ABSENT ; void QPerformanceLog::clear(void)
	?clearCache@QDeclarativePaintedItem@@IAEXXZ @ 711 NONAME ; void QDeclarativePaintedItem::clearCache(void)
	?clearComponentCache@QDeclarativeEngine@@QAEXXZ @ 712 NONAME ; void QDeclarativeEngine::clearComponentCache(void)
	?clearError@QDeclarativeExpression@@QAEXXZ @ 713 NONAME ; void QDeclarativeExpression::clearError(void)
	?clearErrors@QDeclarativeCustomParser@@QAEXXZ @ 714 NONAME ; void QDeclarativeCustomParser::clearErrors(void)
	?clearForwardBindings@QDeclarativeAnchorChanges@@UAEXXZ @ 715 NONAME ABSENT ; void QDeclarativeAnchorChanges::clearForwardBindings(void)
	?clearReverseBindings@QDeclarativeAnchorChanges@@UAEXXZ @ 716 NONAME ABSENT ; void QDeclarativeAnchorChanges::clearReverseBindings(void)
	?clicked@QDeclarativeMouseArea@@IAEXPAVQDeclarativeMouseEvent@@@Z @ 717 NONAME ; void QDeclarativeMouseArea::clicked(class QDeclarativeMouseEvent *)
	?clip@QDeclarativeItem@@QBE_NXZ @ 718 NONAME ; bool QDeclarativeItem::clip(void) const
	?clipChanged@QDeclarativeItem@@IAEXXZ @ 719 NONAME ABSENT ; void QDeclarativeItem::clipChanged(void)
	?color@QDeclarativeGradientStop@@QBE?AVQColor@@XZ @ 720 NONAME ; class QColor QDeclarativeGradientStop::color(void) const
	?color@QDeclarativePen@@QBE?AVQColor@@XZ @ 721 NONAME ; class QColor QDeclarativePen::color(void) const
	?color@QDeclarativeRectangle@@QBE?AVQColor@@XZ @ 722 NONAME ; class QColor QDeclarativeRectangle::color(void) const
	?color@QDeclarativeText@@QBE?AVQColor@@XZ @ 723 NONAME ; class QColor QDeclarativeText::color(void) const
	?color@QDeclarativeTextEdit@@QBE?AVQColor@@XZ @ 724 NONAME ; class QColor QDeclarativeTextEdit::color(void) const
	?color@QDeclarativeTextInput@@QBE?AVQColor@@XZ @ 725 NONAME ; class QColor QDeclarativeTextInput::color(void) const
	?colorChanged@QDeclarativeRectangle@@IAEXXZ @ 726 NONAME ; void QDeclarativeRectangle::colorChanged(void)
	?colorChanged@QDeclarativeText@@IAEXABVQColor@@@Z @ 727 NONAME ; void QDeclarativeText::colorChanged(class QColor const &)
	?colorChanged@QDeclarativeTextEdit@@IAEXABVQColor@@@Z @ 728 NONAME ; void QDeclarativeTextEdit::colorChanged(class QColor const &)
	?colorChanged@QDeclarativeTextInput@@IAEXABVQColor@@@Z @ 729 NONAME ; void QDeclarativeTextInput::colorChanged(class QColor const &)
	?colorFromString@QDeclarativeStringConverters@@YA?AVQColor@@ABVQString@@PA_N@Z @ 730 NONAME ; class QColor QDeclarativeStringConverters::colorFromString(class QString const &, bool *)
	?colorGroup@QDeclarativeSystemPalette@@QBE?AW4ColorGroup@1@XZ @ 731 NONAME ; enum QDeclarativeSystemPalette::ColorGroup QDeclarativeSystemPalette::colorGroup(void) const
	?column@QDeclarativeError@@QBEHXZ @ 732 NONAME ; int QDeclarativeError::column(void) const
	?columnNumber@QDeclarativeDebugFileReference@@QBEHXZ @ 733 NONAME ; int QDeclarativeDebugFileReference::columnNumber(void) const
	?columns@QDeclarativeGrid@@QBEHXZ @ 734 NONAME ; int QDeclarativeGrid::columns(void) const
	?columnsChanged@QDeclarativeGrid@@IAEXXZ @ 735 NONAME ; void QDeclarativeGrid::columnsChanged(void)
	?commaPositions@QDeclarativeDomList@@QBE?AV?$QList@H@@XZ @ 736 NONAME ; class QList<int> QDeclarativeDomList::commaPositions(void) const
	?compile@QDeclarativeCompiler@@QAE_NPAVQDeclarativeEngine@@PAVQDeclarativeCompositeTypeData@@PAVQDeclarativeCompiledData@@@Z @ 737 NONAME ; bool QDeclarativeCompiler::compile(class QDeclarativeEngine *, class QDeclarativeCompositeTypeData *, class QDeclarativeCompiledData *)
	?compileAlias@QDeclarativeCompiler@@AAE_NAAVQMetaObjectBuilder@@AAVQByteArray@@PAVObject@QDeclarativeParser@@ABUDynamicProperty@45@@Z @ 738 NONAME ; bool QDeclarativeCompiler::compileAlias(class QMetaObjectBuilder &, class QByteArray &, class QDeclarativeParser::Object *, struct QDeclarativeParser::Object::DynamicProperty const &)
	?compileTree@QDeclarativeCompiler@@AAEXPAVObject@QDeclarativeParser@@@Z @ 739 NONAME ; void QDeclarativeCompiler::compileTree(class QDeclarativeParser::Object *)
	?completeComponentBuild@QDeclarativeCompiler@@AAE_NXZ @ 740 NONAME ; bool QDeclarativeCompiler::completeComponentBuild(void)
	?completeCreate@QDeclarativeComponent@@UAEXXZ @ 741 NONAME ; void QDeclarativeComponent::completeCreate(void)
	?completeItem@QDeclarativeVisualDataModel@@UAEXXZ @ 742 NONAME ; void QDeclarativeVisualDataModel::completeItem(void)
	?completeItem@QDeclarativeVisualItemModel@@UAEXXZ @ 743 NONAME ; void QDeclarativeVisualItemModel::completeItem(void)
	?completed@QDeclarativeState@@IAEXXZ @ 744 NONAME ; void QDeclarativeState::completed(void)
	?componentComplete@QDeclarativeAnchors@@QAEXXZ @ 745 NONAME ; void QDeclarativeAnchors::componentComplete(void)
	?componentComplete@QDeclarativeAnimatedImage@@MAEXXZ @ 746 NONAME ; void QDeclarativeAnimatedImage::componentComplete(void)
	?componentComplete@QDeclarativeBasePositioner@@MAEXXZ @ 747 NONAME ; void QDeclarativeBasePositioner::componentComplete(void)
	?componentComplete@QDeclarativeBind@@MAEXXZ @ 748 NONAME ; void QDeclarativeBind::componentComplete(void)
	?componentComplete@QDeclarativeConnections@@EAEXXZ @ 749 NONAME ; void QDeclarativeConnections::componentComplete(void)
	?componentComplete@QDeclarativeDateTimeFormatter@@UAEXXZ @ 750 NONAME ABSENT ; void QDeclarativeDateTimeFormatter::componentComplete(void)
	?componentComplete@QDeclarativeGridView@@MAEXXZ @ 751 NONAME ; void QDeclarativeGridView::componentComplete(void)
	?componentComplete@QDeclarativeImageBase@@MAEXXZ @ 752 NONAME ; void QDeclarativeImageBase::componentComplete(void)
	?componentComplete@QDeclarativeItem@@MAEXXZ @ 753 NONAME ; void QDeclarativeItem::componentComplete(void)
	?componentComplete@QDeclarativeListView@@MAEXXZ @ 754 NONAME ; void QDeclarativeListView::componentComplete(void)
	?componentComplete@QDeclarativeNumberFormatter@@UAEXXZ @ 755 NONAME ABSENT ; void QDeclarativeNumberFormatter::componentComplete(void)
	?componentComplete@QDeclarativeParserStatus@@UAEXXZ @ 756 NONAME ABSENT ; void QDeclarativeParserStatus::componentComplete(void)
	?componentComplete@QDeclarativeParticles@@MAEXXZ @ 757 NONAME ABSENT ; void QDeclarativeParticles::componentComplete(void)
	?componentComplete@QDeclarativePath@@MAEXXZ @ 758 NONAME ; void QDeclarativePath::componentComplete(void)
	?componentComplete@QDeclarativePathView@@MAEXXZ @ 759 NONAME ; void QDeclarativePathView::componentComplete(void)
	?componentComplete@QDeclarativeRepeater@@MAEXXZ @ 760 NONAME ; void QDeclarativeRepeater::componentComplete(void)
	?componentComplete@QDeclarativeStateGroup@@UAEXXZ @ 761 NONAME ; void QDeclarativeStateGroup::componentComplete(void)
	?componentComplete@QDeclarativeText@@UAEXXZ @ 762 NONAME ; void QDeclarativeText::componentComplete(void)
	?componentComplete@QDeclarativeTextEdit@@UAEXXZ @ 763 NONAME ; void QDeclarativeTextEdit::componentComplete(void)
	?componentComplete@QDeclarativeTimer@@MAEXXZ @ 764 NONAME ; void QDeclarativeTimer::componentComplete(void)
	?componentComplete@QDeclarativeWebView@@EAEXXZ @ 765 NONAME ABSENT ; void QDeclarativeWebView::componentComplete(void)
	?componentComplete@QDeclarativeXmlListModel@@UAEXXZ @ 766 NONAME ; void QDeclarativeXmlListModel::componentComplete(void)
	?componentRoot@QDeclarativeDomComponent@@QBE?AVQDeclarativeDomObject@@XZ @ 767 NONAME ; class QDeclarativeDomObject QDeclarativeDomComponent::componentRoot(void) const
	?componentState@QDeclarativeCompiler@@AAE?AUComponentCompileState@1@PAVObject@QDeclarativeParser@@@Z @ 768 NONAME ; struct QDeclarativeCompiler::ComponentCompileState QDeclarativeCompiler::componentState(class QDeclarativeParser::Object *)
	?componentTypeRef@QDeclarativeCompiler@@AAEHXZ @ 769 NONAME ; int QDeclarativeCompiler::componentTypeRef(void)
	?connectNotifySignal@QDeclarativeProperty@@QBE_NPAVQObject@@H@Z @ 770 NONAME ; bool QDeclarativeProperty::connectNotifySignal(class QObject *, int) const
	?connectNotifySignal@QDeclarativeProperty@@QBE_NPAVQObject@@PBD@Z @ 771 NONAME ; bool QDeclarativeProperty::connectNotifySignal(class QObject *, char const *) const
	?connectSignals@QDeclarativeConnections@@AAEXXZ @ 772 NONAME ; void QDeclarativeConnections::connectSignals(void)
	?constructor@QMetaObjectBuilder@@QBE?AVQMetaMethodBuilder@@H@Z @ 773 NONAME ; class QMetaMethodBuilder QMetaObjectBuilder::constructor(int) const
	?constructorCount@QMetaObjectBuilder@@QBEHXZ @ 774 NONAME ; int QMetaObjectBuilder::constructorCount(void) const
	?contains@QDeclarativePropertyMap@@QBE_NABVQString@@@Z @ 775 NONAME ; bool QDeclarativePropertyMap::contains(class QString const &) const
	?contentHeight@QDeclarativeFlickable@@QBEMXZ @ 776 NONAME ; float QDeclarativeFlickable::contentHeight(void) const
	?contentHeightChanged@QDeclarativeFlickable@@IAEXXZ @ 777 NONAME ; void QDeclarativeFlickable::contentHeightChanged(void)
	?contentWidth@QDeclarativeFlickable@@QBEMXZ @ 778 NONAME ; float QDeclarativeFlickable::contentWidth(void) const
	?contentWidthChanged@QDeclarativeFlickable@@IAEXXZ @ 779 NONAME ; void QDeclarativeFlickable::contentWidthChanged(void)
	?contentX@QDeclarativeFlickable@@QBEMXZ @ 780 NONAME ; float QDeclarativeFlickable::contentX(void) const
	?contentXChanged@QDeclarativeFlickable@@IAEXXZ @ 781 NONAME ; void QDeclarativeFlickable::contentXChanged(void)
	?contentY@QDeclarativeFlickable@@QBEMXZ @ 782 NONAME ; float QDeclarativeFlickable::contentY(void) const
	?contentYChanged@QDeclarativeFlickable@@IAEXXZ @ 783 NONAME ; void QDeclarativeFlickable::contentYChanged(void)
	?contentsScale@QDeclarativePaintedItem@@QBEMXZ @ 784 NONAME ; float QDeclarativePaintedItem::contentsScale(void) const
	?contentsScaleChanged@QDeclarativePaintedItem@@IAEXXZ @ 785 NONAME ; void QDeclarativePaintedItem::contentsScaleChanged(void)
	?contentsSize@QDeclarativePaintedItem@@QBE?AVQSize@@XZ @ 786 NONAME ; class QSize QDeclarativePaintedItem::contentsSize(void) const
	?contentsSizeChanged@QDeclarativePaintedItem@@IAEXXZ @ 787 NONAME ; void QDeclarativePaintedItem::contentsSizeChanged(void)
	?context@QDeclarativeExpression@@QBEPAVQDeclarativeContext@@XZ @ 788 NONAME ; class QDeclarativeContext * QDeclarativeExpression::context(void) const
	?context@QDeclarativeScriptString@@QBEPAVQDeclarativeContext@@XZ @ 789 NONAME ; class QDeclarativeContext * QDeclarativeScriptString::context(void) const
	?contextDebugId@QDeclarativeDebugObjectReference@@QBEHXZ @ 790 NONAME ; int QDeclarativeDebugObjectReference::contextDebugId(void) const
	?contextForObject@QDeclarativeEngine@@SAPAVQDeclarativeContext@@PBVQObject@@@Z @ 791 NONAME ; class QDeclarativeContext * QDeclarativeEngine::contextForObject(class QObject const *)
	?contextProperty@QDeclarativeContext@@QBE?AVQVariant@@ABVQString@@@Z @ 792 NONAME ; class QVariant QDeclarativeContext::contextProperty(class QString const &) const
	?context_at@QDeclarativeContextPrivate@@SAPAVQObject@@PAU?$QDeclarativeListProperty@VQObject@@@@H@Z @ 793 NONAME ABSENT ; class QObject * QDeclarativeContextPrivate::context_at(struct QDeclarativeListProperty<class QObject> *, int)
	?context_count@QDeclarativeContextPrivate@@SAHPAU?$QDeclarativeListProperty@VQObject@@@@@Z @ 794 NONAME ABSENT ; int QDeclarativeContextPrivate::context_count(struct QDeclarativeListProperty<class QObject> *)
	?contexts@QDeclarativeDebugContextReference@@QBE?AV?$QList@VQDeclarativeDebugContextReference@@@@XZ @ 795 NONAME ; class QList<class QDeclarativeDebugContextReference> QDeclarativeDebugContextReference::contexts(void) const
	?continueExecute@QDeclarativeView@@AAEXXZ @ 796 NONAME ; void QDeclarativeView::continueExecute(void)
	?control1X@QDeclarativePathCubic@@QBEMXZ @ 797 NONAME ; float QDeclarativePathCubic::control1X(void) const
	?control1Y@QDeclarativePathCubic@@QBEMXZ @ 798 NONAME ; float QDeclarativePathCubic::control1Y(void) const
	?control2X@QDeclarativePathCubic@@QBEMXZ @ 799 NONAME ; float QDeclarativePathCubic::control2X(void) const
	?control2Y@QDeclarativePathCubic@@QBEMXZ @ 800 NONAME ; float QDeclarativePathCubic::control2Y(void) const
	?controlX@QDeclarativePathQuad@@QBEMXZ @ 801 NONAME ; float QDeclarativePathQuad::controlX(void) const
	?controlY@QDeclarativePathQuad@@QBEMXZ @ 802 NONAME ; float QDeclarativePathQuad::controlY(void) const
	?copy@QDeclarativeMetaType@@SA_NHPAXPBX@Z @ 803 NONAME ; bool QDeclarativeMetaType::copy(int, void *, void const *)
	?count@QDeclarativeGridView@@QBEHXZ @ 804 NONAME ; int QDeclarativeGridView::count(void) const
	?count@QDeclarativeListAccessor@@QBEHXZ @ 805 NONAME ; int QDeclarativeListAccessor::count(void) const
	?count@QDeclarativeListModel@@UBEHXZ @ 806 NONAME ; int QDeclarativeListModel::count(void) const
	?count@QDeclarativeListReference@@QBEHXZ @ 807 NONAME ; int QDeclarativeListReference::count(void) const
	?count@QDeclarativeListView@@QBEHXZ @ 808 NONAME ; int QDeclarativeListView::count(void) const
	?count@QDeclarativeOpenMetaObject@@QBEHXZ @ 809 NONAME ; int QDeclarativeOpenMetaObject::count(void) const
	?count@QDeclarativeParticles@@QBEHXZ @ 810 NONAME ABSENT ; int QDeclarativeParticles::count(void) const
	?count@QDeclarativePathView@@QBEHXZ @ 811 NONAME ; int QDeclarativePathView::count(void) const
	?count@QDeclarativePropertyMap@@QBEHXZ @ 812 NONAME ; int QDeclarativePropertyMap::count(void) const
	?count@QDeclarativeRepeater@@QBEHXZ @ 813 NONAME ; int QDeclarativeRepeater::count(void) const
	?count@QDeclarativeVisualDataModel@@UBEHXZ @ 814 NONAME ; int QDeclarativeVisualDataModel::count(void) const
	?count@QDeclarativeVisualItemModel@@UBEHXZ @ 815 NONAME ; int QDeclarativeVisualItemModel::count(void) const
	?count@QDeclarativeXmlListModel@@UBEHXZ @ 816 NONAME ; int QDeclarativeXmlListModel::count(void) const
	?countChanged@QDeclarativeGridView@@IAEXXZ @ 817 NONAME ; void QDeclarativeGridView::countChanged(void)
	?countChanged@QDeclarativeListModel@@IAEXH@Z @ 818 NONAME ABSENT ; void QDeclarativeListModel::countChanged(int)
	?countChanged@QDeclarativeListView@@IAEXXZ @ 819 NONAME ; void QDeclarativeListView::countChanged(void)
	?countChanged@QDeclarativeParticles@@IAEXXZ @ 820 NONAME ABSENT ; void QDeclarativeParticles::countChanged(void)
	?countChanged@QDeclarativeRepeater@@IAEXXZ @ 821 NONAME ; void QDeclarativeRepeater::countChanged(void)
	?countChanged@QDeclarativeVisualModel@@IAEXXZ @ 822 NONAME ; void QDeclarativeVisualModel::countChanged(void)
	?countChanged@QDeclarativeXmlListModel@@IAEXXZ @ 823 NONAME ; void QDeclarativeXmlListModel::countChanged(void)
	?create@QDeclarativeComponent@@UAEPAVQObject@@PAVQDeclarativeContext@@@Z @ 824 NONAME ; class QObject * QDeclarativeComponent::create(class QDeclarativeContext *)
	?create@QDeclarativeType@@QBEPAVQObject@@XZ @ 825 NONAME ; class QObject * QDeclarativeType::create(void) const
	?createCursor@QDeclarativeTextInput@@AAEXXZ @ 826 NONAME ; void QDeclarativeTextInput::createCursor(void)
	?createObject@QDeclarativeComponent@@QAE?AVQScriptValue@@XZ @ 827 NONAME ABSENT ; class QScriptValue QDeclarativeComponent::createObject(void)
	?createPlugin@QDeclarativeWebPage@@MAEPAVQObject@@ABVQString@@ABVQUrl@@ABVQStringList@@2@Z @ 828 NONAME ABSENT ; class QObject * QDeclarativeWebPage::createPlugin(class QString const &, class QUrl const &, class QStringList const &, class QStringList const &)
	?createPointCache@QDeclarativePath@@ABEXXZ @ 829 NONAME ; void QDeclarativePath::createPointCache(void) const
	?createProperty@QDeclarativeOpenMetaObject@@MAEHPBD0@Z @ 830 NONAME ; int QDeclarativeOpenMetaObject::createProperty(char const *, char const *)
	?createProperty@QDeclarativeOpenMetaObjectType@@QAEHABVQByteArray@@@Z @ 831 NONAME ; int QDeclarativeOpenMetaObjectType::createProperty(class QByteArray const &)
	?createWindow@QDeclarativeWebPage@@MAEPAVQWebPage@@W4WebWindowType@2@@Z @ 832 NONAME ABSENT ; class QWebPage * QDeclarativeWebPage::createWindow(enum QWebPage::WebWindowType)
	?createWindow@QDeclarativeWebView@@IAEPAV1@W4WebWindowType@QWebPage@@@Z @ 833 NONAME ABSENT ; class QDeclarativeWebView * QDeclarativeWebView::createWindow(enum QWebPage::WebWindowType)
	?created@QDeclarativeParticleMotion@@UAEXAAVQDeclarativeParticle@@@Z @ 834 NONAME ABSENT ; void QDeclarativeParticleMotion::created(class QDeclarativeParticle &)
	?created@QDeclarativeParticleMotionWander@@UAEXAAVQDeclarativeParticle@@@Z @ 835 NONAME ABSENT ; void QDeclarativeParticleMotionWander::created(class QDeclarativeParticle &)
	?createdItem@QDeclarativeGridView@@AAEXHPAVQDeclarativeItem@@@Z @ 836 NONAME ; void QDeclarativeGridView::createdItem(int, class QDeclarativeItem *)
	?createdItem@QDeclarativeListView@@AAEXHPAVQDeclarativeItem@@@Z @ 837 NONAME ; void QDeclarativeListView::createdItem(int, class QDeclarativeItem *)
	?createdItem@QDeclarativePathView@@AAEXHPAVQDeclarativeItem@@@Z @ 838 NONAME ; void QDeclarativePathView::createdItem(int, class QDeclarativeItem *)
	?createdItem@QDeclarativeVisualModel@@IAEXHPAVQDeclarativeItem@@@Z @ 839 NONAME ; void QDeclarativeVisualModel::createdItem(int, class QDeclarativeItem *)
	?createdPackage@QDeclarativeVisualDataModel@@IAEXHPAVQDeclarativePackage@@@Z @ 840 NONAME ; void QDeclarativeVisualDataModel::createdPackage(int, class QDeclarativePackage *)
	?creationContext@QDeclarativeComponent@@QBEPAVQDeclarativeContext@@XZ @ 841 NONAME ; class QDeclarativeContext * QDeclarativeComponent::creationContext(void) const
	?criteria@QDeclarativeViewSection@@QBE?AW4SectionCriteria@1@XZ @ 842 NONAME ; enum QDeclarativeViewSection::SectionCriteria QDeclarativeViewSection::criteria(void) const
	?currentFrame@QDeclarativeAnimatedImage@@QBEHXZ @ 843 NONAME ; int QDeclarativeAnimatedImage::currentFrame(void) const
	?currentIndex@QDeclarativeGridView@@QBEHXZ @ 844 NONAME ; int QDeclarativeGridView::currentIndex(void) const
	?currentIndex@QDeclarativeListView@@QBEHXZ @ 845 NONAME ; int QDeclarativeListView::currentIndex(void) const
	?currentIndex@QDeclarativePathView@@QBEHXZ @ 846 NONAME ; int QDeclarativePathView::currentIndex(void) const
	?currentIndexChanged@QDeclarativeGridView@@IAEXXZ @ 847 NONAME ; void QDeclarativeGridView::currentIndexChanged(void)
	?currentIndexChanged@QDeclarativeListView@@IAEXXZ @ 848 NONAME ; void QDeclarativeListView::currentIndexChanged(void)
	?currentIndexChanged@QDeclarativePathView@@IAEXXZ @ 849 NONAME ; void QDeclarativePathView::currentIndexChanged(void)
	?currentItem@QDeclarativeGridView@@QAEPAVQDeclarativeItem@@XZ @ 850 NONAME ; class QDeclarativeItem * QDeclarativeGridView::currentItem(void)
	?currentItem@QDeclarativeListView@@QAEPAVQDeclarativeItem@@XZ @ 851 NONAME ; class QDeclarativeItem * QDeclarativeListView::currentItem(void)
	?currentSection@QDeclarativeListView@@QBE?AVQString@@XZ @ 852 NONAME ; class QString QDeclarativeListView::currentSection(void) const
	?currentSectionChanged@QDeclarativeListView@@IAEXXZ @ 853 NONAME ; void QDeclarativeListView::currentSectionChanged(void)
	?cursorDelegate@QDeclarativeTextEdit@@QBEPAVQDeclarativeComponent@@XZ @ 854 NONAME ; class QDeclarativeComponent * QDeclarativeTextEdit::cursorDelegate(void) const
	?cursorDelegate@QDeclarativeTextInput@@QBEPAVQDeclarativeComponent@@XZ @ 855 NONAME ; class QDeclarativeComponent * QDeclarativeTextInput::cursorDelegate(void) const
	?cursorDelegateChanged@QDeclarativeTextEdit@@IAEXXZ @ 856 NONAME ; void QDeclarativeTextEdit::cursorDelegateChanged(void)
	?cursorDelegateChanged@QDeclarativeTextInput@@IAEXXZ @ 857 NONAME ; void QDeclarativeTextInput::cursorDelegateChanged(void)
	?cursorPosChanged@QDeclarativeTextInput@@AAEXXZ @ 858 NONAME ; void QDeclarativeTextInput::cursorPosChanged(void)
	?cursorPosition@QDeclarativeTextEdit@@QBEHXZ @ 859 NONAME ; int QDeclarativeTextEdit::cursorPosition(void) const
	?cursorPosition@QDeclarativeTextInput@@QBEHXZ @ 860 NONAME ; int QDeclarativeTextInput::cursorPosition(void) const
	?cursorPositionChanged@QDeclarativeTextEdit@@IAEXXZ @ 861 NONAME ; void QDeclarativeTextEdit::cursorPositionChanged(void)
	?cursorPositionChanged@QDeclarativeTextInput@@IAEXXZ @ 862 NONAME ; void QDeclarativeTextInput::cursorPositionChanged(void)
	?cursorRect@QDeclarativeTextEdit@@QBE?AVQRect@@XZ @ 863 NONAME ABSENT ; class QRect QDeclarativeTextEdit::cursorRect(void) const
	?cursorRect@QDeclarativeTextInput@@QBE?AVQRect@@XZ @ 864 NONAME ABSENT ; class QRect QDeclarativeTextInput::cursorRect(void) const
	?cursorVisibleChanged@QDeclarativeTextEdit@@IAEX_N@Z @ 865 NONAME ; void QDeclarativeTextEdit::cursorVisibleChanged(bool)
	?cursorVisibleChanged@QDeclarativeTextInput@@IAEX_N@Z @ 866 NONAME ; void QDeclarativeTextInput::cursorVisibleChanged(bool)
	?customParser@QDeclarativeType@@QBEPAVQDeclarativeCustomParser@@XZ @ 867 NONAME ; class QDeclarativeCustomParser * QDeclarativeType::customParser(void) const
	?customStringConverter@QDeclarativeMetaType@@SAP6A?AVQVariant@@ABVQString@@@ZH@Z @ 868 NONAME ; class QVariant (*)(class QString const &) QDeclarativeMetaType::customStringConverter(int)
	?customTypeData@QDeclarativeDomObject@@QBE?AVQByteArray@@XZ @ 869 NONAME ; class QByteArray QDeclarativeDomObject::customTypeData(void) const
	?d_func@QDeclarativeAnchorChanges@@AAEPAVQDeclarativeAnchorChangesPrivate@@XZ @ 870 NONAME ; class QDeclarativeAnchorChangesPrivate * QDeclarativeAnchorChanges::d_func(void)
	?d_func@QDeclarativeAnchorChanges@@ABEPBVQDeclarativeAnchorChangesPrivate@@XZ @ 871 NONAME ; class QDeclarativeAnchorChangesPrivate const * QDeclarativeAnchorChanges::d_func(void) const
	?d_func@QDeclarativeAnchors@@AAEPAVQDeclarativeAnchorsPrivate@@XZ @ 872 NONAME ; class QDeclarativeAnchorsPrivate * QDeclarativeAnchors::d_func(void)
	?d_func@QDeclarativeAnchors@@ABEPBVQDeclarativeAnchorsPrivate@@XZ @ 873 NONAME ; class QDeclarativeAnchorsPrivate const * QDeclarativeAnchors::d_func(void) const
	?d_func@QDeclarativeAnimatedImage@@AAEPAVQDeclarativeAnimatedImagePrivate@@XZ @ 874 NONAME ; class QDeclarativeAnimatedImagePrivate * QDeclarativeAnimatedImage::d_func(void)
	?d_func@QDeclarativeAnimatedImage@@ABEPBVQDeclarativeAnimatedImagePrivate@@XZ @ 875 NONAME ; class QDeclarativeAnimatedImagePrivate const * QDeclarativeAnimatedImage::d_func(void) const
	?d_func@QDeclarativeBasePositioner@@AAEPAVQDeclarativeBasePositionerPrivate@@XZ @ 876 NONAME ; class QDeclarativeBasePositionerPrivate * QDeclarativeBasePositioner::d_func(void)
	?d_func@QDeclarativeBasePositioner@@ABEPBVQDeclarativeBasePositionerPrivate@@XZ @ 877 NONAME ; class QDeclarativeBasePositionerPrivate const * QDeclarativeBasePositioner::d_func(void) const
	?d_func@QDeclarativeBehavior@@AAEPAVQDeclarativeBehaviorPrivate@@XZ @ 878 NONAME ; class QDeclarativeBehaviorPrivate * QDeclarativeBehavior::d_func(void)
	?d_func@QDeclarativeBehavior@@ABEPBVQDeclarativeBehaviorPrivate@@XZ @ 879 NONAME ; class QDeclarativeBehaviorPrivate const * QDeclarativeBehavior::d_func(void) const
	?d_func@QDeclarativeBind@@AAEPAVQDeclarativeBindPrivate@@XZ @ 880 NONAME ; class QDeclarativeBindPrivate * QDeclarativeBind::d_func(void)
	?d_func@QDeclarativeBind@@ABEPBVQDeclarativeBindPrivate@@XZ @ 881 NONAME ; class QDeclarativeBindPrivate const * QDeclarativeBind::d_func(void) const
	?d_func@QDeclarativeBorderImage@@AAEPAVQDeclarativeBorderImagePrivate@@XZ @ 882 NONAME ; class QDeclarativeBorderImagePrivate * QDeclarativeBorderImage::d_func(void)
	?d_func@QDeclarativeBorderImage@@ABEPBVQDeclarativeBorderImagePrivate@@XZ @ 883 NONAME ; class QDeclarativeBorderImagePrivate const * QDeclarativeBorderImage::d_func(void) const
	?d_func@QDeclarativeComponent@@AAEPAVQDeclarativeComponentPrivate@@XZ @ 884 NONAME ; class QDeclarativeComponentPrivate * QDeclarativeComponent::d_func(void)
	?d_func@QDeclarativeComponent@@ABEPBVQDeclarativeComponentPrivate@@XZ @ 885 NONAME ; class QDeclarativeComponentPrivate const * QDeclarativeComponent::d_func(void) const
	?d_func@QDeclarativeConnections@@AAEPAVQDeclarativeConnectionsPrivate@@XZ @ 886 NONAME ; class QDeclarativeConnectionsPrivate * QDeclarativeConnections::d_func(void)
	?d_func@QDeclarativeConnections@@ABEPBVQDeclarativeConnectionsPrivate@@XZ @ 887 NONAME ; class QDeclarativeConnectionsPrivate const * QDeclarativeConnections::d_func(void) const
	?d_func@QDeclarativeContext@@AAEPAVQDeclarativeContextPrivate@@XZ @ 888 NONAME ; class QDeclarativeContextPrivate * QDeclarativeContext::d_func(void)
	?d_func@QDeclarativeContext@@ABEPBVQDeclarativeContextPrivate@@XZ @ 889 NONAME ; class QDeclarativeContextPrivate const * QDeclarativeContext::d_func(void) const
	?d_func@QDeclarativeDateTimeFormatter@@AAEPAVQDeclarativeDateTimeFormatterPrivate@@XZ @ 890 NONAME ABSENT ; class QDeclarativeDateTimeFormatterPrivate * QDeclarativeDateTimeFormatter::d_func(void)
	?d_func@QDeclarativeDateTimeFormatter@@ABEPBVQDeclarativeDateTimeFormatterPrivate@@XZ @ 891 NONAME ABSENT ; class QDeclarativeDateTimeFormatterPrivate const * QDeclarativeDateTimeFormatter::d_func(void) const
	?d_func@QDeclarativeDebugClient@@AAEPAVQDeclarativeDebugClientPrivate@@XZ @ 892 NONAME ; class QDeclarativeDebugClientPrivate * QDeclarativeDebugClient::d_func(void)
	?d_func@QDeclarativeDebugClient@@ABEPBVQDeclarativeDebugClientPrivate@@XZ @ 893 NONAME ; class QDeclarativeDebugClientPrivate const * QDeclarativeDebugClient::d_func(void) const
	?d_func@QDeclarativeDebugService@@AAEPAVQDeclarativeDebugServicePrivate@@XZ @ 894 NONAME ; class QDeclarativeDebugServicePrivate * QDeclarativeDebugService::d_func(void)
	?d_func@QDeclarativeDebugService@@ABEPBVQDeclarativeDebugServicePrivate@@XZ @ 895 NONAME ; class QDeclarativeDebugServicePrivate const * QDeclarativeDebugService::d_func(void) const
	?d_func@QDeclarativeEaseFollow@@AAEPAVQDeclarativeEaseFollowPrivate@@XZ @ 896 NONAME ABSENT ; class QDeclarativeEaseFollowPrivate * QDeclarativeEaseFollow::d_func(void)
	?d_func@QDeclarativeEaseFollow@@ABEPBVQDeclarativeEaseFollowPrivate@@XZ @ 897 NONAME ABSENT ; class QDeclarativeEaseFollowPrivate const * QDeclarativeEaseFollow::d_func(void) const
	?d_func@QDeclarativeEngine@@AAEPAVQDeclarativeEnginePrivate@@XZ @ 898 NONAME ; class QDeclarativeEnginePrivate * QDeclarativeEngine::d_func(void)
	?d_func@QDeclarativeEngine@@ABEPBVQDeclarativeEnginePrivate@@XZ @ 899 NONAME ; class QDeclarativeEnginePrivate const * QDeclarativeEngine::d_func(void) const
	?d_func@QDeclarativeEngineDebug@@AAEPAVQDeclarativeEngineDebugPrivate@@XZ @ 900 NONAME ; class QDeclarativeEngineDebugPrivate * QDeclarativeEngineDebug::d_func(void)
	?d_func@QDeclarativeEngineDebug@@ABEPBVQDeclarativeEngineDebugPrivate@@XZ @ 901 NONAME ; class QDeclarativeEngineDebugPrivate const * QDeclarativeEngineDebug::d_func(void) const
	?d_func@QDeclarativeExpression@@AAEPAVQDeclarativeExpressionPrivate@@XZ @ 902 NONAME ; class QDeclarativeExpressionPrivate * QDeclarativeExpression::d_func(void)
	?d_func@QDeclarativeExpression@@ABEPBVQDeclarativeExpressionPrivate@@XZ @ 903 NONAME ; class QDeclarativeExpressionPrivate const * QDeclarativeExpression::d_func(void) const
	?d_func@QDeclarativeFlickable@@AAEPAVQDeclarativeFlickablePrivate@@XZ @ 904 NONAME ; class QDeclarativeFlickablePrivate * QDeclarativeFlickable::d_func(void)
	?d_func@QDeclarativeFlickable@@ABEPBVQDeclarativeFlickablePrivate@@XZ @ 905 NONAME ; class QDeclarativeFlickablePrivate const * QDeclarativeFlickable::d_func(void) const
	?d_func@QDeclarativeFlipable@@AAEPAVQDeclarativeFlipablePrivate@@XZ @ 906 NONAME ; class QDeclarativeFlipablePrivate * QDeclarativeFlipable::d_func(void)
	?d_func@QDeclarativeFlipable@@ABEPBVQDeclarativeFlipablePrivate@@XZ @ 907 NONAME ; class QDeclarativeFlipablePrivate const * QDeclarativeFlipable::d_func(void) const
	?d_func@QDeclarativeFlow@@AAEPAVQDeclarativeFlowPrivate@@XZ @ 908 NONAME ; class QDeclarativeFlowPrivate * QDeclarativeFlow::d_func(void)
	?d_func@QDeclarativeFlow@@ABEPBVQDeclarativeFlowPrivate@@XZ @ 909 NONAME ; class QDeclarativeFlowPrivate const * QDeclarativeFlow::d_func(void) const
	?d_func@QDeclarativeFontLoader@@AAEPAVQDeclarativeFontLoaderPrivate@@XZ @ 910 NONAME ; class QDeclarativeFontLoaderPrivate * QDeclarativeFontLoader::d_func(void)
	?d_func@QDeclarativeFontLoader@@ABEPBVQDeclarativeFontLoaderPrivate@@XZ @ 911 NONAME ; class QDeclarativeFontLoaderPrivate const * QDeclarativeFontLoader::d_func(void) const
	?d_func@QDeclarativeGraphicsObjectContainer@@AAEPAVQDeclarativeGraphicsObjectContainerPrivate@@XZ @ 912 NONAME ABSENT ; class QDeclarativeGraphicsObjectContainerPrivate * QDeclarativeGraphicsObjectContainer::d_func(void)
	?d_func@QDeclarativeGraphicsObjectContainer@@ABEPBVQDeclarativeGraphicsObjectContainerPrivate@@XZ @ 913 NONAME ABSENT ; class QDeclarativeGraphicsObjectContainerPrivate const * QDeclarativeGraphicsObjectContainer::d_func(void) const
	?d_func@QDeclarativeGridView@@AAEPAVQDeclarativeGridViewPrivate@@XZ @ 914 NONAME ; class QDeclarativeGridViewPrivate * QDeclarativeGridView::d_func(void)
	?d_func@QDeclarativeGridView@@ABEPBVQDeclarativeGridViewPrivate@@XZ @ 915 NONAME ; class QDeclarativeGridViewPrivate const * QDeclarativeGridView::d_func(void) const
	?d_func@QDeclarativeImage@@AAEPAVQDeclarativeImagePrivate@@XZ @ 916 NONAME ; class QDeclarativeImagePrivate * QDeclarativeImage::d_func(void)
	?d_func@QDeclarativeImage@@ABEPBVQDeclarativeImagePrivate@@XZ @ 917 NONAME ; class QDeclarativeImagePrivate const * QDeclarativeImage::d_func(void) const
	?d_func@QDeclarativeImageBase@@AAEPAVQDeclarativeImageBasePrivate@@XZ @ 918 NONAME ; class QDeclarativeImageBasePrivate * QDeclarativeImageBase::d_func(void)
	?d_func@QDeclarativeImageBase@@ABEPBVQDeclarativeImageBasePrivate@@XZ @ 919 NONAME ; class QDeclarativeImageBasePrivate const * QDeclarativeImageBase::d_func(void) const
	?d_func@QDeclarativeItem@@AAEPAVQDeclarativeItemPrivate@@XZ @ 920 NONAME ; class QDeclarativeItemPrivate * QDeclarativeItem::d_func(void)
	?d_func@QDeclarativeItem@@ABEPBVQDeclarativeItemPrivate@@XZ @ 921 NONAME ; class QDeclarativeItemPrivate const * QDeclarativeItem::d_func(void) const
	?d_func@QDeclarativeListView@@AAEPAVQDeclarativeListViewPrivate@@XZ @ 922 NONAME ; class QDeclarativeListViewPrivate * QDeclarativeListView::d_func(void)
	?d_func@QDeclarativeListView@@ABEPBVQDeclarativeListViewPrivate@@XZ @ 923 NONAME ; class QDeclarativeListViewPrivate const * QDeclarativeListView::d_func(void) const
	?d_func@QDeclarativeLoader@@AAEPAVQDeclarativeLoaderPrivate@@XZ @ 924 NONAME ; class QDeclarativeLoaderPrivate * QDeclarativeLoader::d_func(void)
	?d_func@QDeclarativeLoader@@ABEPBVQDeclarativeLoaderPrivate@@XZ @ 925 NONAME ; class QDeclarativeLoaderPrivate const * QDeclarativeLoader::d_func(void) const
	?d_func@QDeclarativeMouseArea@@AAEPAVQDeclarativeMouseAreaPrivate@@XZ @ 926 NONAME ; class QDeclarativeMouseAreaPrivate * QDeclarativeMouseArea::d_func(void)
	?d_func@QDeclarativeMouseArea@@ABEPBVQDeclarativeMouseAreaPrivate@@XZ @ 927 NONAME ; class QDeclarativeMouseAreaPrivate const * QDeclarativeMouseArea::d_func(void) const
	?d_func@QDeclarativeNumberFormatter@@AAEPAVQDeclarativeNumberFormatterPrivate@@XZ @ 928 NONAME ABSENT ; class QDeclarativeNumberFormatterPrivate * QDeclarativeNumberFormatter::d_func(void)
	?d_func@QDeclarativeNumberFormatter@@ABEPBVQDeclarativeNumberFormatterPrivate@@XZ @ 929 NONAME ABSENT ; class QDeclarativeNumberFormatterPrivate const * QDeclarativeNumberFormatter::d_func(void) const
	?d_func@QDeclarativePaintedItem@@AAEPAVQDeclarativePaintedItemPrivate@@XZ @ 930 NONAME ; class QDeclarativePaintedItemPrivate * QDeclarativePaintedItem::d_func(void)
	?d_func@QDeclarativePaintedItem@@ABEPBVQDeclarativePaintedItemPrivate@@XZ @ 931 NONAME ; class QDeclarativePaintedItemPrivate const * QDeclarativePaintedItem::d_func(void) const
	?d_func@QDeclarativeParentChange@@AAEPAVQDeclarativeParentChangePrivate@@XZ @ 932 NONAME ; class QDeclarativeParentChangePrivate * QDeclarativeParentChange::d_func(void)
	?d_func@QDeclarativeParentChange@@ABEPBVQDeclarativeParentChangePrivate@@XZ @ 933 NONAME ; class QDeclarativeParentChangePrivate const * QDeclarativeParentChange::d_func(void) const
	?d_func@QDeclarativeParticles@@AAEPAVQDeclarativeParticlesPrivate@@XZ @ 934 NONAME ABSENT ; class QDeclarativeParticlesPrivate * QDeclarativeParticles::d_func(void)
	?d_func@QDeclarativeParticles@@ABEPBVQDeclarativeParticlesPrivate@@XZ @ 935 NONAME ABSENT ; class QDeclarativeParticlesPrivate const * QDeclarativeParticles::d_func(void) const
	?d_func@QDeclarativePath@@AAEPAVQDeclarativePathPrivate@@XZ @ 936 NONAME ; class QDeclarativePathPrivate * QDeclarativePath::d_func(void)
	?d_func@QDeclarativePath@@ABEPBVQDeclarativePathPrivate@@XZ @ 937 NONAME ; class QDeclarativePathPrivate const * QDeclarativePath::d_func(void) const
	?d_func@QDeclarativePathView@@AAEPAVQDeclarativePathViewPrivate@@XZ @ 938 NONAME ; class QDeclarativePathViewPrivate * QDeclarativePathView::d_func(void)
	?d_func@QDeclarativePathView@@ABEPBVQDeclarativePathViewPrivate@@XZ @ 939 NONAME ; class QDeclarativePathViewPrivate const * QDeclarativePathView::d_func(void) const
	?d_func@QDeclarativePixmapReply@@AAEPAVQDeclarativePixmapReplyPrivate@@XZ @ 940 NONAME ; class QDeclarativePixmapReplyPrivate * QDeclarativePixmapReply::d_func(void)
	?d_func@QDeclarativePixmapReply@@ABEPBVQDeclarativePixmapReplyPrivate@@XZ @ 941 NONAME ; class QDeclarativePixmapReplyPrivate const * QDeclarativePixmapReply::d_func(void) const
	?d_func@QDeclarativePropertyChanges@@AAEPAVQDeclarativePropertyChangesPrivate@@XZ @ 942 NONAME ; class QDeclarativePropertyChangesPrivate * QDeclarativePropertyChanges::d_func(void)
	?d_func@QDeclarativePropertyChanges@@ABEPBVQDeclarativePropertyChangesPrivate@@XZ @ 943 NONAME ; class QDeclarativePropertyChangesPrivate const * QDeclarativePropertyChanges::d_func(void) const
	?d_func@QDeclarativePropertyMap@@AAEPAVQDeclarativePropertyMapPrivate@@XZ @ 944 NONAME ; class QDeclarativePropertyMapPrivate * QDeclarativePropertyMap::d_func(void)
	?d_func@QDeclarativePropertyMap@@ABEPBVQDeclarativePropertyMapPrivate@@XZ @ 945 NONAME ; class QDeclarativePropertyMapPrivate const * QDeclarativePropertyMap::d_func(void) const
	?d_func@QDeclarativeRectangle@@AAEPAVQDeclarativeRectanglePrivate@@XZ @ 946 NONAME ; class QDeclarativeRectanglePrivate * QDeclarativeRectangle::d_func(void)
	?d_func@QDeclarativeRectangle@@ABEPBVQDeclarativeRectanglePrivate@@XZ @ 947 NONAME ; class QDeclarativeRectanglePrivate const * QDeclarativeRectangle::d_func(void) const
	?d_func@QDeclarativeRepeater@@AAEPAVQDeclarativeRepeaterPrivate@@XZ @ 948 NONAME ; class QDeclarativeRepeaterPrivate * QDeclarativeRepeater::d_func(void)
	?d_func@QDeclarativeRepeater@@ABEPBVQDeclarativeRepeaterPrivate@@XZ @ 949 NONAME ; class QDeclarativeRepeaterPrivate const * QDeclarativeRepeater::d_func(void) const
	?d_func@QDeclarativeSpringFollow@@AAEPAVQDeclarativeSpringFollowPrivate@@XZ @ 950 NONAME ; class QDeclarativeSpringFollowPrivate * QDeclarativeSpringFollow::d_func(void)
	?d_func@QDeclarativeSpringFollow@@ABEPBVQDeclarativeSpringFollowPrivate@@XZ @ 951 NONAME ; class QDeclarativeSpringFollowPrivate const * QDeclarativeSpringFollow::d_func(void) const
	?d_func@QDeclarativeState@@AAEPAVQDeclarativeStatePrivate@@XZ @ 952 NONAME ; class QDeclarativeStatePrivate * QDeclarativeState::d_func(void)
	?d_func@QDeclarativeState@@ABEPBVQDeclarativeStatePrivate@@XZ @ 953 NONAME ; class QDeclarativeStatePrivate const * QDeclarativeState::d_func(void) const
	?d_func@QDeclarativeStateChangeScript@@AAEPAVQDeclarativeStateChangeScriptPrivate@@XZ @ 954 NONAME ; class QDeclarativeStateChangeScriptPrivate * QDeclarativeStateChangeScript::d_func(void)
	?d_func@QDeclarativeStateChangeScript@@ABEPBVQDeclarativeStateChangeScriptPrivate@@XZ @ 955 NONAME ; class QDeclarativeStateChangeScriptPrivate const * QDeclarativeStateChangeScript::d_func(void) const
	?d_func@QDeclarativeStateGroup@@AAEPAVQDeclarativeStateGroupPrivate@@XZ @ 956 NONAME ; class QDeclarativeStateGroupPrivate * QDeclarativeStateGroup::d_func(void)
	?d_func@QDeclarativeStateGroup@@ABEPBVQDeclarativeStateGroupPrivate@@XZ @ 957 NONAME ; class QDeclarativeStateGroupPrivate const * QDeclarativeStateGroup::d_func(void) const
	?d_func@QDeclarativeSystemPalette@@AAEPAVQDeclarativeSystemPalettePrivate@@XZ @ 958 NONAME ; class QDeclarativeSystemPalettePrivate * QDeclarativeSystemPalette::d_func(void)
	?d_func@QDeclarativeSystemPalette@@ABEPBVQDeclarativeSystemPalettePrivate@@XZ @ 959 NONAME ; class QDeclarativeSystemPalettePrivate const * QDeclarativeSystemPalette::d_func(void) const
	?d_func@QDeclarativeText@@AAEPAVQDeclarativeTextPrivate@@XZ @ 960 NONAME ; class QDeclarativeTextPrivate * QDeclarativeText::d_func(void)
	?d_func@QDeclarativeText@@ABEPBVQDeclarativeTextPrivate@@XZ @ 961 NONAME ; class QDeclarativeTextPrivate const * QDeclarativeText::d_func(void) const
	?d_func@QDeclarativeTextEdit@@AAEPAVQDeclarativeTextEditPrivate@@XZ @ 962 NONAME ; class QDeclarativeTextEditPrivate * QDeclarativeTextEdit::d_func(void)
	?d_func@QDeclarativeTextEdit@@ABEPBVQDeclarativeTextEditPrivate@@XZ @ 963 NONAME ; class QDeclarativeTextEditPrivate const * QDeclarativeTextEdit::d_func(void) const
	?d_func@QDeclarativeTextInput@@AAEPAVQDeclarativeTextInputPrivate@@XZ @ 964 NONAME ; class QDeclarativeTextInputPrivate * QDeclarativeTextInput::d_func(void)
	?d_func@QDeclarativeTextInput@@ABEPBVQDeclarativeTextInputPrivate@@XZ @ 965 NONAME ; class QDeclarativeTextInputPrivate const * QDeclarativeTextInput::d_func(void) const
	?d_func@QDeclarativeTimer@@AAEPAVQDeclarativeTimerPrivate@@XZ @ 966 NONAME ; class QDeclarativeTimerPrivate * QDeclarativeTimer::d_func(void)
	?d_func@QDeclarativeTimer@@ABEPBVQDeclarativeTimerPrivate@@XZ @ 967 NONAME ; class QDeclarativeTimerPrivate const * QDeclarativeTimer::d_func(void) const
	?d_func@QDeclarativeTransition@@AAEPAVQDeclarativeTransitionPrivate@@XZ @ 968 NONAME ; class QDeclarativeTransitionPrivate * QDeclarativeTransition::d_func(void)
	?d_func@QDeclarativeTransition@@ABEPBVQDeclarativeTransitionPrivate@@XZ @ 969 NONAME ; class QDeclarativeTransitionPrivate const * QDeclarativeTransition::d_func(void) const
	?d_func@QDeclarativeVisualDataModel@@AAEPAVQDeclarativeVisualDataModelPrivate@@XZ @ 970 NONAME ; class QDeclarativeVisualDataModelPrivate * QDeclarativeVisualDataModel::d_func(void)
	?d_func@QDeclarativeVisualDataModel@@ABEPBVQDeclarativeVisualDataModelPrivate@@XZ @ 971 NONAME ; class QDeclarativeVisualDataModelPrivate const * QDeclarativeVisualDataModel::d_func(void) const
	?d_func@QDeclarativeVisualItemModel@@AAEPAVQDeclarativeVisualItemModelPrivate@@XZ @ 972 NONAME ; class QDeclarativeVisualItemModelPrivate * QDeclarativeVisualItemModel::d_func(void)
	?d_func@QDeclarativeVisualItemModel@@ABEPBVQDeclarativeVisualItemModelPrivate@@XZ @ 973 NONAME ; class QDeclarativeVisualItemModelPrivate const * QDeclarativeVisualItemModel::d_func(void) const
	?d_func@QDeclarativeWebView@@AAEPAVQDeclarativeWebViewPrivate@@XZ @ 974 NONAME ABSENT ; class QDeclarativeWebViewPrivate * QDeclarativeWebView::d_func(void)
	?d_func@QDeclarativeWebView@@ABEPBVQDeclarativeWebViewPrivate@@XZ @ 975 NONAME ABSENT ; class QDeclarativeWebViewPrivate const * QDeclarativeWebView::d_func(void) const
	?d_func@QDeclarativeXmlListModel@@AAEPAVQDeclarativeXmlListModelPrivate@@XZ @ 976 NONAME ; class QDeclarativeXmlListModelPrivate * QDeclarativeXmlListModel::d_func(void)
	?d_func@QDeclarativeXmlListModel@@ABEPBVQDeclarativeXmlListModelPrivate@@XZ @ 977 NONAME ; class QDeclarativeXmlListModelPrivate const * QDeclarativeXmlListModel::d_func(void) const
	?d_func@QMetaEnumBuilder@@ABEPAVQMetaEnumBuilderPrivate@@XZ @ 978 NONAME ; class QMetaEnumBuilderPrivate * QMetaEnumBuilder::d_func(void) const
	?d_func@QMetaMethodBuilder@@ABEPAVQMetaMethodBuilderPrivate@@XZ @ 979 NONAME ; class QMetaMethodBuilderPrivate * QMetaMethodBuilder::d_func(void) const
	?d_func@QMetaPropertyBuilder@@ABEPAVQMetaPropertyBuilderPrivate@@XZ @ 980 NONAME ; class QMetaPropertyBuilderPrivate * QMetaPropertyBuilder::d_func(void) const
	?damping@QDeclarativeSpringFollow@@QBEMXZ @ 981 NONAME ; float QDeclarativeSpringFollow::damping(void) const
	?dark@QDeclarativeSystemPalette@@QBE?AVQColor@@XZ @ 982 NONAME ; class QColor QDeclarativeSystemPalette::dark(void) const
	?data@QDeclarativeItem@@QAE?AU?$QDeclarativeListProperty@VQObject@@@@XZ @ 983 NONAME ABSENT ; struct QDeclarativeListProperty<class QObject> QDeclarativeItem::data(void)
	?data@QDeclarativeListModel@@UBE?AV?$QHash@HVQVariant@@@@HABV?$QList@H@@@Z @ 984 NONAME ; class QHash<int, class QVariant> QDeclarativeListModel::data(int, class QList<int> const &) const
	?data@QDeclarativeListModel@@UBE?AVQVariant@@HH@Z @ 985 NONAME ; class QVariant QDeclarativeListModel::data(int, int) const
	?data@QDeclarativeXmlListModel@@UBE?AV?$QHash@HVQVariant@@@@HABV?$QList@H@@@Z @ 986 NONAME ; class QHash<int, class QVariant> QDeclarativeXmlListModel::data(int, class QList<int> const &) const
	?data@QDeclarativeXmlListModel@@UBE?AVQVariant@@HH@Z @ 987 NONAME ; class QVariant QDeclarativeXmlListModel::data(int, int) const
	?date@QDeclarativeDateTimeFormatter@@QBE?AVQDate@@XZ @ 988 NONAME ABSENT ; class QDate QDeclarativeDateTimeFormatter::date(void) const
	?dateFormat@QDeclarativeDateTimeFormatter@@QBE?AVQString@@XZ @ 989 NONAME ABSENT ; class QString QDeclarativeDateTimeFormatter::dateFormat(void) const
	?dateFromString@QDeclarativeStringConverters@@YA?AVQDate@@ABVQString@@PA_N@Z @ 990 NONAME ; class QDate QDeclarativeStringConverters::dateFromString(class QString const &, bool *)
	?dateText@QDeclarativeDateTimeFormatter@@QBE?AVQString@@XZ @ 991 NONAME ABSENT ; class QString QDeclarativeDateTimeFormatter::dateText(void) const
	?dateTime@QDeclarativeDateTimeFormatter@@QBE?AVQDateTime@@XZ @ 992 NONAME ABSENT ; class QDateTime QDeclarativeDateTimeFormatter::dateTime(void) const
	?dateTimeFormat@QDeclarativeDateTimeFormatter@@QBE?AVQString@@XZ @ 993 NONAME ABSENT ; class QString QDeclarativeDateTimeFormatter::dateTimeFormat(void) const
	?dateTimeFromString@QDeclarativeStringConverters@@YA?AVQDateTime@@ABVQString@@PA_N@Z @ 994 NONAME ; class QDateTime QDeclarativeStringConverters::dateTimeFromString(class QString const &, bool *)
	?dateTimeText@QDeclarativeDateTimeFormatter@@QBE?AVQString@@XZ @ 995 NONAME ABSENT ; class QString QDeclarativeDateTimeFormatter::dateTimeText(void) const
	?debugId@QDeclarativeDebugContextReference@@QBEHXZ @ 996 NONAME ; int QDeclarativeDebugContextReference::debugId(void) const
	?debugId@QDeclarativeDebugEngineReference@@QBEHXZ @ 997 NONAME ; int QDeclarativeDebugEngineReference::debugId(void) const
	?debugId@QDeclarativeDebugObjectReference@@QBEHXZ @ 998 NONAME ; int QDeclarativeDebugObjectReference::debugId(void) const
	?decrementCurrentIndex@QDeclarativeListView@@QAEXXZ @ 999 NONAME ; void QDeclarativeListView::decrementCurrentIndex(void)
	?defaultMethod@QDeclarativeMetaType@@SA?AVQMetaMethod@@PAVQObject@@@Z @ 1000 NONAME ; class QMetaMethod QDeclarativeMetaType::defaultMethod(class QObject *)
	?defaultMethod@QDeclarativeMetaType@@SA?AVQMetaMethod@@PBUQMetaObject@@@Z @ 1001 NONAME ; class QMetaMethod QDeclarativeMetaType::defaultMethod(struct QMetaObject const *)
	?defaultProperty@QDeclarativeMetaType@@SA?AVQMetaProperty@@PAVQObject@@@Z @ 1002 NONAME ; class QMetaProperty QDeclarativeMetaType::defaultProperty(class QObject *)
	?defaultProperty@QDeclarativeMetaType@@SA?AVQMetaProperty@@PBUQMetaObject@@@Z @ 1003 NONAME ; class QMetaProperty QDeclarativeMetaType::defaultProperty(struct QMetaObject const *)
	?defaultValue@QDeclarativeDomDynamicProperty@@QBE?AVQDeclarativeDomProperty@@XZ @ 1004 NONAME ; class QDeclarativeDomProperty QDeclarativeDomDynamicProperty::defaultValue(void) const
	?deferredProperties@QDeclarativeCompiler@@AAE?AVQStringList@@PAVObject@QDeclarativeParser@@@Z @ 1005 NONAME ; class QStringList QDeclarativeCompiler::deferredProperties(class QDeclarativeParser::Object *)
	?delegate@QDeclarativeGridView@@QBEPAVQDeclarativeComponent@@XZ @ 1006 NONAME ; class QDeclarativeComponent * QDeclarativeGridView::delegate(void) const
	?delegate@QDeclarativeListView@@QBEPAVQDeclarativeComponent@@XZ @ 1007 NONAME ; class QDeclarativeComponent * QDeclarativeListView::delegate(void) const
	?delegate@QDeclarativePathView@@QBEPAVQDeclarativeComponent@@XZ @ 1008 NONAME ; class QDeclarativeComponent * QDeclarativePathView::delegate(void) const
	?delegate@QDeclarativeRepeater@@QBEPAVQDeclarativeComponent@@XZ @ 1009 NONAME ; class QDeclarativeComponent * QDeclarativeRepeater::delegate(void) const
	?delegate@QDeclarativeViewSection@@QBEPAVQDeclarativeComponent@@XZ @ 1010 NONAME ; class QDeclarativeComponent * QDeclarativeViewSection::delegate(void) const
	?delegate@QDeclarativeVisualDataModel@@QBEPAVQDeclarativeComponent@@XZ @ 1011 NONAME ; class QDeclarativeComponent * QDeclarativeVisualDataModel::delegate(void) const
	?delegateChanged@QDeclarativeRepeater@@IAEXXZ @ 1012 NONAME ; void QDeclarativeRepeater::delegateChanged(void)
	?delegateChanged@QDeclarativeViewSection@@IAEXXZ @ 1013 NONAME ; void QDeclarativeViewSection::delegateChanged(void)
	?deleteFromBinding@QDeclarativeAction@@QAEXXZ @ 1014 NONAME ; void QDeclarativeAction::deleteFromBinding(void)
	?description@QDeclarativeError@@QBE?AVQString@@XZ @ 1015 NONAME ; class QString QDeclarativeError::description(void) const
	?deserialize@QMetaObjectBuilder@@QAEXAAVQDataStream@@ABV?$QMap@VQByteArray@@PB$$CBUQMetaObject@@@@@Z @ 1016 NONAME ; void QMetaObjectBuilder::deserialize(class QDataStream &, class QMap<class QByteArray, struct QMetaObject const *> const &)
	?destroy@QDeclarativeParticleMotion@@UAEXAAVQDeclarativeParticle@@@Z @ 1017 NONAME ABSENT ; void QDeclarativeParticleMotion::destroy(class QDeclarativeParticle &)
	?destroy@QDeclarativeParticleMotionWander@@UAEXAAVQDeclarativeParticle@@@Z @ 1018 NONAME ABSENT ; void QDeclarativeParticleMotionWander::destroy(class QDeclarativeParticle &)
	?destroyRemoved@QDeclarativeGridView@@AAEXXZ @ 1019 NONAME ; void QDeclarativeGridView::destroyRemoved(void)
	?destroyRemoved@QDeclarativeListView@@AAEXXZ @ 1020 NONAME ; void QDeclarativeListView::destroyRemoved(void)
	?destroyed@QDeclarativeContextPrivate@@QAEXPAUContextGuard@1@@Z @ 1021 NONAME ABSENT ; void QDeclarativeContextPrivate::destroyed(struct QDeclarativeContextPrivate::ContextGuard *)
	?destroyingItem@QDeclarativeGridView@@AAEXPAVQDeclarativeItem@@@Z @ 1022 NONAME ; void QDeclarativeGridView::destroyingItem(class QDeclarativeItem *)
	?destroyingItem@QDeclarativeListView@@AAEXPAVQDeclarativeItem@@@Z @ 1023 NONAME ; void QDeclarativeListView::destroyingItem(class QDeclarativeItem *)
	?destroyingItem@QDeclarativePathView@@AAEXPAVQDeclarativeItem@@@Z @ 1024 NONAME ; void QDeclarativePathView::destroyingItem(class QDeclarativeItem *)
	?destroyingItem@QDeclarativeVisualModel@@IAEXPAVQDeclarativeItem@@@Z @ 1025 NONAME ; void QDeclarativeVisualModel::destroyingItem(class QDeclarativeItem *)
	?destroyingPackage@QDeclarativeVisualDataModel@@IAEXPAVQDeclarativePackage@@@Z @ 1026 NONAME ; void QDeclarativeVisualDataModel::destroyingPackage(class QDeclarativePackage *)
	?device@QPacketProtocol@@QAEPAVQIODevice@@XZ @ 1027 NONAME ; class QIODevice * QPacketProtocol::device(void)
	?dirtyCache@QDeclarativePaintedItem@@IAEXABVQRect@@@Z @ 1028 NONAME ; void QDeclarativePaintedItem::dirtyCache(class QRect const &)
	?displayData@QPerformanceLog@@YAXXZ @ 1029 NONAME ABSENT ; void QPerformanceLog::displayData(void)
	?doLoadFinished@QDeclarativeWebView@@AAEX_N@Z @ 1030 NONAME ABSENT ; void QDeclarativeWebView::doLoadFinished(bool)
	?doLoadProgress@QDeclarativeWebView@@AAEXH@Z @ 1031 NONAME ABSENT ; void QDeclarativeWebView::doLoadProgress(int)
	?doLoadStarted@QDeclarativeWebView@@AAEXXZ @ 1032 NONAME ABSENT ; void QDeclarativeWebView::doLoadStarted(void)
	?doPositioning@QDeclarativeColumn@@MAEXXZ @ 1033 NONAME ABSENT ; void QDeclarativeColumn::doPositioning(void)
	?doPositioning@QDeclarativeFlow@@MAEXXZ @ 1034 NONAME ABSENT ; void QDeclarativeFlow::doPositioning(void)
	?doPositioning@QDeclarativeGrid@@MAEXXZ @ 1035 NONAME ABSENT ; void QDeclarativeGrid::doPositioning(void)
	?doPositioning@QDeclarativeRow@@MAEXXZ @ 1036 NONAME ABSENT ; void QDeclarativeRow::doPositioning(void)
	?doUpdate@QDeclarativeGradient@@AAEXXZ @ 1037 NONAME ; void QDeclarativeGradient::doUpdate(void)
	?doUpdate@QDeclarativeRectangle@@AAEXXZ @ 1038 NONAME ; void QDeclarativeRectangle::doUpdate(void)
	?doesPropertyExist@QDeclarativeCompiler@@AAE_NPAVProperty@QDeclarativeParser@@PAVObject@3@@Z @ 1039 NONAME ; bool QDeclarativeCompiler::doesPropertyExist(class QDeclarativeParser::Property *, class QDeclarativeParser::Object *)
	?doubleClick@QDeclarativeWebView@@IAEXHH@Z @ 1040 NONAME ABSENT ; void QDeclarativeWebView::doubleClick(int, int)
	?doubleClicked@QDeclarativeMouseArea@@IAEXPAVQDeclarativeMouseEvent@@@Z @ 1041 NONAME ; void QDeclarativeMouseArea::doubleClicked(class QDeclarativeMouseEvent *)
	?downloadProgress@QDeclarativePixmapReply@@IAEX_J0@Z @ 1042 NONAME ; void QDeclarativePixmapReply::downloadProgress(long long, long long)
	?drag@QDeclarativeMouseArea@@QAEPAVQDeclarativeDrag@@XZ @ 1043 NONAME ; class QDeclarativeDrag * QDeclarativeMouseArea::drag(void)
	?dragMargin@QDeclarativePathView@@QBEMXZ @ 1044 NONAME ; float QDeclarativePathView::dragMargin(void) const
	?drawContents@QDeclarativeTextEdit@@MAEXPAVQPainter@@ABVQRect@@@Z @ 1045 NONAME ; void QDeclarativeTextEdit::drawContents(class QPainter *, class QRect const &)
	?drawContents@QDeclarativeTextInput@@UAEXPAVQPainter@@ABVQRect@@@Z @ 1046 NONAME ; void QDeclarativeTextInput::drawContents(class QPainter *, class QRect const &)
	?drawContents@QDeclarativeWebView@@MAEXPAVQPainter@@ABVQRect@@@Z @ 1047 NONAME ABSENT ; void QDeclarativeWebView::drawContents(class QPainter *, class QRect const &)
	?drawRect@QDeclarativeRectangle@@AAEXAAVQPainter@@@Z @ 1048 NONAME ; void QDeclarativeRectangle::drawRect(class QPainter &)
	?dumpStats@QDeclarativeCompiler@@AAEXXZ @ 1049 NONAME ; void QDeclarativeCompiler::dumpStats(void)
	?duration@QDeclarativeEaseFollow@@QBEMXZ @ 1050 NONAME ABSENT ; float QDeclarativeEaseFollow::duration(void) const
	?durationChanged@QDeclarativeEaseFollow@@IAEXXZ @ 1051 NONAME ABSENT ; void QDeclarativeEaseFollow::durationChanged(void)
	?dynamicProperties@QDeclarativeDomObject@@QBE?AV?$QList@VQDeclarativeDomDynamicProperty@@@@XZ @ 1052 NONAME ; class QList<class QDeclarativeDomDynamicProperty> QDeclarativeDomObject::dynamicProperties(void) const
	?dynamicProperty@QDeclarativeDomObject@@QBE?AVQDeclarativeDomDynamicProperty@@ABVQByteArray@@@Z @ 1053 NONAME ; class QDeclarativeDomDynamicProperty QDeclarativeDomObject::dynamicProperty(class QByteArray const &) const
	?echoMode@QDeclarativeTextInput@@QBE?AW4EchoMode@1@XZ @ 1054 NONAME ; enum QDeclarativeTextInput::EchoMode QDeclarativeTextInput::echoMode(void) const
	?echoModeChanged@QDeclarativeTextInput@@IAEXW4EchoMode@1@@Z @ 1055 NONAME ; void QDeclarativeTextInput::echoModeChanged(enum QDeclarativeTextInput::EchoMode)
	?elementAreaAt@QDeclarativeWebView@@QBE?AVQRect@@HHHH@Z @ 1056 NONAME ABSENT ; class QRect QDeclarativeWebView::elementAreaAt(int, int, int, int) const
	?elideMode@QDeclarativeText@@QBE?AW4TextElideMode@1@XZ @ 1057 NONAME ; enum QDeclarativeText::TextElideMode QDeclarativeText::elideMode(void) const
	?elideModeChanged@QDeclarativeText@@IAEXW4TextElideMode@1@@Z @ 1058 NONAME ; void QDeclarativeText::elideModeChanged(enum QDeclarativeText::TextElideMode)
	?emissionRate@QDeclarativeParticles@@QBEHXZ @ 1059 NONAME ABSENT ; int QDeclarativeParticles::emissionRate(void) const
	?emissionRateChanged@QDeclarativeParticles@@IAEXXZ @ 1060 NONAME ABSENT ; void QDeclarativeParticles::emissionRateChanged(void)
	?emissionVariance@QDeclarativeParticles@@QBEMXZ @ 1061 NONAME ABSENT ; float QDeclarativeParticles::emissionVariance(void) const
	?emissionVarianceChanged@QDeclarativeParticles@@IAEXXZ @ 1062 NONAME ABSENT ; void QDeclarativeParticles::emissionVarianceChanged(void)
	?emittingChanged@QDeclarativeParticles@@IAEXXZ @ 1063 NONAME ABSENT ; void QDeclarativeParticles::emittingChanged(void)
	?enabled@QDeclarativeBehavior@@QBE_NXZ @ 1064 NONAME ; bool QDeclarativeBehavior::enabled(void) const
	?enabled@QDeclarativeEaseFollow@@QBE_NXZ @ 1065 NONAME ABSENT ; bool QDeclarativeEaseFollow::enabled(void) const
	?enabled@QDeclarativeSpringFollow@@QBE_NXZ @ 1066 NONAME ; bool QDeclarativeSpringFollow::enabled(void) const
	?enabledChanged@QDeclarativeBehavior@@IAEXXZ @ 1067 NONAME ; void QDeclarativeBehavior::enabledChanged(void)
	?enabledChanged@QDeclarativeDebugService@@MAEX_N@Z @ 1068 NONAME ; void QDeclarativeDebugService::enabledChanged(bool)
	?enabledChanged@QDeclarativeEaseFollow@@IAEXXZ @ 1069 NONAME ABSENT ; void QDeclarativeEaseFollow::enabledChanged(void)
	?enabledChanged@QDeclarativeMouseArea@@IAEXXZ @ 1070 NONAME ; void QDeclarativeMouseArea::enabledChanged(void)
	?endpoint@QDeclarativePath@@AAEXABVQString@@@Z @ 1071 NONAME ; void QDeclarativePath::endpoint(class QString const &)
	?engine@QDeclarativeContext@@QBEPAVQDeclarativeEngine@@XZ @ 1072 NONAME ; class QDeclarativeEngine * QDeclarativeContext::engine(void) const
	?engine@QDeclarativeExpression@@QBEPAVQDeclarativeEngine@@XZ @ 1073 NONAME ; class QDeclarativeEngine * QDeclarativeExpression::engine(void) const
	?engine@QDeclarativeView@@QAEPAVQDeclarativeEngine@@XZ @ 1074 NONAME ; class QDeclarativeEngine * QDeclarativeView::engine(void)
	?engines@QDeclarativeDebugEnginesQuery@@QBE?AV?$QList@VQDeclarativeDebugEngineReference@@@@XZ @ 1075 NONAME ; class QList<class QDeclarativeDebugEngineReference> QDeclarativeDebugEnginesQuery::engines(void) const
	?entered@QDeclarativeMouseArea@@IAEXXZ @ 1076 NONAME ; void QDeclarativeMouseArea::entered(void)
	?enumerator@QMetaObjectBuilder@@QBE?AVQMetaEnumBuilder@@H@Z @ 1077 NONAME ; class QMetaEnumBuilder QMetaObjectBuilder::enumerator(int) const
	?enumeratorCount@QMetaObjectBuilder@@QBEHXZ @ 1078 NONAME ; int QMetaObjectBuilder::enumeratorCount(void) const
	?epsilon@QDeclarativeSpringFollow@@QBEMXZ @ 1079 NONAME ; float QDeclarativeSpringFollow::epsilon(void) const
	?error@QDeclarativeCustomParser@@IAEXABVQDeclarativeCustomParserNode@@ABVQString@@@Z @ 1080 NONAME ; void QDeclarativeCustomParser::error(class QDeclarativeCustomParserNode const &, class QString const &)
	?error@QDeclarativeCustomParser@@IAEXABVQDeclarativeCustomParserProperty@@ABVQString@@@Z @ 1081 NONAME ; void QDeclarativeCustomParser::error(class QDeclarativeCustomParserProperty const &, class QString const &)
	?error@QDeclarativeExpression@@QBE?AVQDeclarativeError@@XZ @ 1082 NONAME ; class QDeclarativeError QDeclarativeExpression::error(void) const
	?errors@QDeclarativeCompiler@@QBE?AV?$QList@VQDeclarativeError@@@@XZ @ 1083 NONAME ; class QList<class QDeclarativeError> QDeclarativeCompiler::errors(void) const
	?errors@QDeclarativeComponent@@QBE?AV?$QList@VQDeclarativeError@@@@XZ @ 1084 NONAME ; class QList<class QDeclarativeError> QDeclarativeComponent::errors(void) const
	?errors@QDeclarativeCustomParser@@QBE?AV?$QList@VQDeclarativeError@@@@XZ @ 1085 NONAME ; class QList<class QDeclarativeError> QDeclarativeCustomParser::errors(void) const
	?errors@QDeclarativeDomDocument@@QBE?AV?$QList@VQDeclarativeError@@@@XZ @ 1086 NONAME ; class QList<class QDeclarativeError> QDeclarativeDomDocument::errors(void) const
	?errors@QDeclarativeView@@QBE?AV?$QList@VQDeclarativeError@@@@XZ @ 1087 NONAME ; class QList<class QDeclarativeError> QDeclarativeView::errors(void) const
	?errorsString@QDeclarativeComponent@@QBE?AVQString@@XZ @ 1088 NONAME ABSENT ; class QString QDeclarativeComponent::errorsString(void) const
	?eval@QDeclarativeBind@@AAEXXZ @ 1089 NONAME ; void QDeclarativeBind::eval(void)
	?evaluate@QDeclarativeVisualDataModel@@UAE?AVQVariant@@HABVQString@@PAVQObject@@@Z @ 1090 NONAME ; class QVariant QDeclarativeVisualDataModel::evaluate(int, class QString const &, class QObject *)
	?evaluate@QDeclarativeVisualItemModel@@UAE?AVQVariant@@HABVQString@@PAVQObject@@@Z @ 1091 NONAME ; class QVariant QDeclarativeVisualItemModel::evaluate(int, class QString const &, class QObject *)
	?evaluateJavaScript@QDeclarativeWebView@@QAE?AVQVariant@@ABVQString@@@Z @ 1092 NONAME ABSENT ; class QVariant QDeclarativeWebView::evaluateJavaScript(class QString const &)
	?event@QDeclarativeItem@@MAE_NPAVQEvent@@@Z @ 1093 NONAME ; bool QDeclarativeItem::event(class QEvent *)
	?event@QDeclarativePixmapReply@@MAE_NPAVQEvent@@@Z @ 1094 NONAME ; bool QDeclarativePixmapReply::event(class QEvent *)
	?event@QDeclarativeSystemPalette@@EAE_NPAVQEvent@@@Z @ 1095 NONAME ; bool QDeclarativeSystemPalette::event(class QEvent *)
	?event@QDeclarativeTextEdit@@MAE_NPAVQEvent@@@Z @ 1096 NONAME ; bool QDeclarativeTextEdit::event(class QEvent *)
	?event@QDeclarativeTextInput@@MAE_NPAVQEvent@@@Z @ 1097 NONAME ; bool QDeclarativeTextInput::event(class QEvent *)
	?eventFilter@QDeclarativeGraphicsObjectContainer@@MAE_NPAVQObject@@PAVQEvent@@@Z @ 1098 NONAME ABSENT ; bool QDeclarativeGraphicsObjectContainer::eventFilter(class QObject *, class QEvent *)
	?eventFilter@QDeclarativeLoader@@MAE_NPAVQObject@@PAVQEvent@@@Z @ 1099 NONAME ; bool QDeclarativeLoader::eventFilter(class QObject *, class QEvent *)
	?eventFilter@QDeclarativeSystemPalette@@EAE_NPAVQObject@@PAVQEvent@@@Z @ 1100 NONAME ; bool QDeclarativeSystemPalette::eventFilter(class QObject *, class QEvent *)
	?execute@QDeclarativeAnchorChanges@@UAEXXZ @ 1101 NONAME ABSENT ; void QDeclarativeAnchorChanges::execute(void)
	?execute@QDeclarativeParentChange@@UAEXXZ @ 1102 NONAME ABSENT ; void QDeclarativeParentChange::execute(void)
	?execute@QDeclarativeStateChangeScript@@UAEXXZ @ 1103 NONAME ABSENT ; void QDeclarativeStateChangeScript::execute(void)
	?exited@QDeclarativeMouseArea@@IAEXXZ @ 1104 NONAME ; void QDeclarativeMouseArea::exited(void)
	?expandToWebPage@QDeclarativeWebView@@AAEXXZ @ 1105 NONAME ABSENT ; void QDeclarativeWebView::expandToWebPage(void)
	?expression@QDeclarativeDebugExpressionQuery@@QBE?AVQString@@XZ @ 1106 NONAME ; class QString QDeclarativeDebugExpressionQuery::expression(void) const
	?expression@QDeclarativeDebugObjectExpressionWatch@@QBE?AVQString@@XZ @ 1107 NONAME ; class QString QDeclarativeDebugObjectExpressionWatch::expression(void) const
	?expression@QDeclarativeExpression@@QBE?AVQString@@XZ @ 1108 NONAME ; class QString QDeclarativeExpression::expression(void) const
	?extends@QDeclarativeState@@QBE?AVQString@@XZ @ 1109 NONAME ; class QString QDeclarativeState::extends(void) const
	?extraActions@QDeclarativeAnchorChanges@@UAE?AV?$QList@VQDeclarativeAction@@@@XZ @ 1110 NONAME ABSENT ; class QList<class QDeclarativeAction> QDeclarativeAnchorChanges::extraActions(void)
	?fadeInDuration@QDeclarativeParticles@@QBEHXZ @ 1111 NONAME ABSENT ; int QDeclarativeParticles::fadeInDuration(void) const
	?fadeInDurationChanged@QDeclarativeParticles@@IAEXXZ @ 1112 NONAME ABSENT ; void QDeclarativeParticles::fadeInDurationChanged(void)
	?fadeOutDuration@QDeclarativeParticles@@QBEHXZ @ 1113 NONAME ABSENT ; int QDeclarativeParticles::fadeOutDuration(void) const
	?fadeOutDurationChanged@QDeclarativeParticles@@IAEXXZ @ 1114 NONAME ABSENT ; void QDeclarativeParticles::fadeOutDurationChanged(void)
	?fill@QDeclarativeAnchors@@QBEPAVQDeclarativeItem@@XZ @ 1115 NONAME ABSENT ; class QDeclarativeItem * QDeclarativeAnchors::fill(void) const
	?fillChanged@QDeclarativeAnchors@@IAEXXZ @ 1116 NONAME ; void QDeclarativeAnchors::fillChanged(void)
	?fillColor@QDeclarativePaintedItem@@QBE?AVQColor@@XZ @ 1117 NONAME ; class QColor QDeclarativePaintedItem::fillColor(void) const
	?fillColorChanged@QDeclarativePaintedItem@@IAEXXZ @ 1118 NONAME ; void QDeclarativePaintedItem::fillColorChanged(void)
	?fillMode@QDeclarativeImage@@QBE?AW4FillMode@1@XZ @ 1119 NONAME ; enum QDeclarativeImage::FillMode QDeclarativeImage::fillMode(void) const
	?fillModeChanged@QDeclarativeImage@@IAEXXZ @ 1120 NONAME ; void QDeclarativeImage::fillModeChanged(void)
	?findSignalByName@QDeclarativeCompiler@@SA?AVQMetaMethod@@PBUQMetaObject@@ABVQByteArray@@@Z @ 1121 NONAME ABSENT ; class QMetaMethod QDeclarativeCompiler::findSignalByName(struct QMetaObject const *, class QByteArray const &)
	?findState@QDeclarativeStateGroup@@QBEPAVQDeclarativeState@@ABVQString@@@Z @ 1122 NONAME ; class QDeclarativeState * QDeclarativeStateGroup::findState(class QString const &) const
	?finishApplyTransitions@QDeclarativeBasePositioner@@IAEXXZ @ 1123 NONAME ; void QDeclarativeBasePositioner::finishApplyTransitions(void)
	?finished@QDeclarativePixmapReply@@IAEXXZ @ 1124 NONAME ; void QDeclarativePixmapReply::finished(void)
	?finished@QDeclarativeTimer@@AAEXXZ @ 1125 NONAME ; void QDeclarativeTimer::finished(void)
	?flags@QMetaObjectBuilder@@QBE?AV?$QFlags@W4MetaObjectFlag@QMetaObjectBuilder@@@@XZ @ 1126 NONAME ; class QFlags<enum QMetaObjectBuilder::MetaObjectFlag> QMetaObjectBuilder::flags(void) const
	?flickDeceleration@QDeclarativeFlickable@@QBEMXZ @ 1127 NONAME ; float QDeclarativeFlickable::flickDeceleration(void) const
	?flickDecelerationChanged@QDeclarativeFlickable@@IAEXXZ @ 1128 NONAME ; void QDeclarativeFlickable::flickDecelerationChanged(void)
	?flickDirection@QDeclarativeFlickable@@QBE?AW4FlickDirection@1@XZ @ 1129 NONAME ABSENT ; enum QDeclarativeFlickable::FlickDirection QDeclarativeFlickable::flickDirection(void) const
	?flickDirectionChanged@QDeclarativeFlickable@@IAEXXZ @ 1130 NONAME ABSENT ; void QDeclarativeFlickable::flickDirectionChanged(void)
	?flickEnded@QDeclarativeFlickable@@IAEXXZ @ 1131 NONAME ; void QDeclarativeFlickable::flickEnded(void)
	?flickStarted@QDeclarativeFlickable@@IAEXXZ @ 1132 NONAME ; void QDeclarativeFlickable::flickStarted(void)
	?flickableChildren@QDeclarativeFlickable@@QAE?AU?$QDeclarativeListProperty@VQDeclarativeItem@@@@XZ @ 1133 NONAME ABSENT ; struct QDeclarativeListProperty<class QDeclarativeItem> QDeclarativeFlickable::flickableChildren(void)
	?flickableData@QDeclarativeFlickable@@QAE?AU?$QDeclarativeListProperty@VQObject@@@@XZ @ 1134 NONAME ABSENT ; struct QDeclarativeListProperty<class QObject> QDeclarativeFlickable::flickableData(void)
	?flickingChanged@QDeclarativeFlickable@@IAEXXZ @ 1135 NONAME ; void QDeclarativeFlickable::flickingChanged(void)
	?flow@QDeclarativeFlow@@QBE?AW4Flow@1@XZ @ 1136 NONAME ; enum QDeclarativeFlow::Flow QDeclarativeFlow::flow(void) const
	?flow@QDeclarativeGridView@@QBE?AW4Flow@1@XZ @ 1137 NONAME ; enum QDeclarativeGridView::Flow QDeclarativeGridView::flow(void) const
	?flowChanged@QDeclarativeFlow@@IAEXXZ @ 1138 NONAME ; void QDeclarativeFlow::flowChanged(void)
	?focusChanged@QDeclarativeItem@@IAEXXZ @ 1139 NONAME ABSENT ; void QDeclarativeItem::focusChanged(void)
	?focusChanged@QDeclarativeItem@@MAEX_N@Z @ 1140 NONAME ABSENT ; void QDeclarativeItem::focusChanged(bool)
	?focusChanged@QDeclarativeTextEdit@@MAEX_N@Z @ 1141 NONAME ABSENT ; void QDeclarativeTextEdit::focusChanged(bool)
	?focusChanged@QDeclarativeTextInput@@MAEX_N@Z @ 1142 NONAME ABSENT ; void QDeclarativeTextInput::focusChanged(bool)
	?focusChanged@QDeclarativeWebView@@MAEX_N@Z @ 1143 NONAME ABSENT ; void QDeclarativeWebView::focusChanged(bool)
	?focusOnPress@QDeclarativeTextEdit@@QBE_NXZ @ 1144 NONAME ; bool QDeclarativeTextEdit::focusOnPress(void) const
	?focusOnPress@QDeclarativeTextInput@@QBE_NXZ @ 1145 NONAME ; bool QDeclarativeTextInput::focusOnPress(void) const
	?focusOnPressChanged@QDeclarativeTextEdit@@IAEX_N@Z @ 1146 NONAME ; void QDeclarativeTextEdit::focusOnPressChanged(bool)
	?focusOnPressChanged@QDeclarativeTextInput@@IAEX_N@Z @ 1147 NONAME ; void QDeclarativeTextInput::focusOnPressChanged(bool)
	?font@QDeclarativeText@@QBE?AVQFont@@XZ @ 1148 NONAME ; class QFont QDeclarativeText::font(void) const
	?font@QDeclarativeTextEdit@@QBE?AVQFont@@XZ @ 1149 NONAME ; class QFont QDeclarativeTextEdit::font(void) const
	?font@QDeclarativeTextInput@@QBE?AVQFont@@XZ @ 1150 NONAME ; class QFont QDeclarativeTextInput::font(void) const
	?fontChanged@QDeclarativeText@@IAEXABVQFont@@@Z @ 1151 NONAME ; void QDeclarativeText::fontChanged(class QFont const &)
	?fontChanged@QDeclarativeTextEdit@@IAEXABVQFont@@@Z @ 1152 NONAME ; void QDeclarativeTextEdit::fontChanged(class QFont const &)
	?fontChanged@QDeclarativeTextInput@@IAEXABVQFont@@@Z @ 1153 NONAME ; void QDeclarativeTextInput::fontChanged(class QFont const &)
	?footer@QDeclarativeListView@@QBEPAVQDeclarativeComponent@@XZ @ 1154 NONAME ; class QDeclarativeComponent * QDeclarativeListView::footer(void) const
	?format@QDeclarativeNumberFormatter@@QBE?AVQString@@XZ @ 1155 NONAME ABSENT ; class QString QDeclarativeNumberFormatter::format(void) const
	?forwardAction@QDeclarativeWebView@@QBEPAVQAction@@XZ @ 1156 NONAME ABSENT ; class QAction * QDeclarativeWebView::forwardAction(void) const
	?frameChanged@QDeclarativeAnimatedImage@@IAEXXZ @ 1157 NONAME ; void QDeclarativeAnimatedImage::frameChanged(void)
	?frameCount@QDeclarativeAnimatedImage@@QBEHXZ @ 1158 NONAME ; int QDeclarativeAnimatedImage::frameCount(void) const
	?fromRelocatableData@QMetaObjectBuilder@@SAXPAUQMetaObject@@PBU2@ABVQByteArray@@@Z @ 1159 NONAME ; void QMetaObjectBuilder::fromRelocatableData(struct QMetaObject *, struct QMetaObject const *, class QByteArray const &)
	?fromState@QDeclarativeTransition@@QBE?AVQString@@XZ @ 1160 NONAME ; class QString QDeclarativeTransition::fromState(void) const
	?front@QDeclarativeFlipable@@QAEPAVQDeclarativeItem@@XZ @ 1161 NONAME ABSENT ; class QDeclarativeItem * QDeclarativeFlipable::front(void)
	?fxChildren@QDeclarativeItem@@QAE?AU?$QDeclarativeListProperty@VQDeclarativeItem@@@@XZ @ 1162 NONAME ABSENT ; struct QDeclarativeListProperty<class QDeclarativeItem> QDeclarativeItem::fxChildren(void)
	?genBindingAssignment@QDeclarativeCompiler@@AAEXPAVValue@QDeclarativeParser@@PAVProperty@3@PAVObject@3@1@Z @ 1163 NONAME ; void QDeclarativeCompiler::genBindingAssignment(class QDeclarativeParser::Value *, class QDeclarativeParser::Property *, class QDeclarativeParser::Object *, class QDeclarativeParser::Property *)
	?genComponent@QDeclarativeCompiler@@AAEXPAVObject@QDeclarativeParser@@@Z @ 1164 NONAME ; void QDeclarativeCompiler::genComponent(class QDeclarativeParser::Object *)
	?genContextCache@QDeclarativeCompiler@@AAEHXZ @ 1165 NONAME ; int QDeclarativeCompiler::genContextCache(void)
	?genListProperty@QDeclarativeCompiler@@AAEXPAVProperty@QDeclarativeParser@@PAVObject@3@@Z @ 1166 NONAME ; void QDeclarativeCompiler::genListProperty(class QDeclarativeParser::Property *, class QDeclarativeParser::Object *)
	?genLiteralAssignment@QDeclarativeCompiler@@AAEXABVQMetaProperty@@PAVValue@QDeclarativeParser@@@Z @ 1167 NONAME ; void QDeclarativeCompiler::genLiteralAssignment(class QMetaProperty const &, class QDeclarativeParser::Value *)
	?genObject@QDeclarativeCompiler@@AAEXPAVObject@QDeclarativeParser@@@Z @ 1168 NONAME ; void QDeclarativeCompiler::genObject(class QDeclarativeParser::Object *)
	?genObjectBody@QDeclarativeCompiler@@AAEXPAVObject@QDeclarativeParser@@@Z @ 1169 NONAME ; void QDeclarativeCompiler::genObjectBody(class QDeclarativeParser::Object *)
	?genPropertyAssignment@QDeclarativeCompiler@@AAEXPAVProperty@QDeclarativeParser@@PAVObject@3@0@Z @ 1170 NONAME ; void QDeclarativeCompiler::genPropertyAssignment(class QDeclarativeParser::Property *, class QDeclarativeParser::Object *, class QDeclarativeParser::Property *)
	?genPropertyData@QDeclarativeCompiler@@AAEHPAVProperty@QDeclarativeParser@@@Z @ 1171 NONAME ; int QDeclarativeCompiler::genPropertyData(class QDeclarativeParser::Property *)
	?genValueProperty@QDeclarativeCompiler@@AAEXPAVProperty@QDeclarativeParser@@PAVObject@3@@Z @ 1172 NONAME ; void QDeclarativeCompiler::genValueProperty(class QDeclarativeParser::Property *, class QDeclarativeParser::Object *)
	?genValueTypeData@QDeclarativeCompiler@@AAEHPAVProperty@QDeclarativeParser@@0@Z @ 1173 NONAME ; int QDeclarativeCompiler::genValueTypeData(class QDeclarativeParser::Property *, class QDeclarativeParser::Property *)
	?generateBorderedRect@QDeclarativeRectangle@@AAEXXZ @ 1174 NONAME ; void QDeclarativeRectangle::generateBorderedRect(void)
	?generateRoundedRect@QDeclarativeRectangle@@AAEXXZ @ 1175 NONAME ; void QDeclarativeRectangle::generateRoundedRect(void)
	?geometryChanged@QDeclarativeImage@@MAEXABVQRectF@@0@Z @ 1176 NONAME ; void QDeclarativeImage::geometryChanged(class QRectF const &, class QRectF const &)
	?geometryChanged@QDeclarativeItem@@MAEXABVQRectF@@0@Z @ 1177 NONAME ; void QDeclarativeItem::geometryChanged(class QRectF const &, class QRectF const &)
	?geometryChanged@QDeclarativeLoader@@MAEXABVQRectF@@0@Z @ 1178 NONAME ; void QDeclarativeLoader::geometryChanged(class QRectF const &, class QRectF const &)
	?geometryChanged@QDeclarativeText@@MAEXABVQRectF@@0@Z @ 1179 NONAME ; void QDeclarativeText::geometryChanged(class QRectF const &, class QRectF const &)
	?geometryChanged@QDeclarativeTextEdit@@MAEXABVQRectF@@0@Z @ 1180 NONAME ; void QDeclarativeTextEdit::geometryChanged(class QRectF const &, class QRectF const &)
	?geometryChanged@QDeclarativeTextInput@@MAEXABVQRectF@@0@Z @ 1181 NONAME ; void QDeclarativeTextInput::geometryChanged(class QRectF const &, class QRectF const &)
	?geometryChanged@QDeclarativeWebView@@MAEXABVQRectF@@0@Z @ 1182 NONAME ABSENT ; void QDeclarativeWebView::geometryChanged(class QRectF const &, class QRectF const &)
	?get@QDeclarativeContextPrivate@@SAPAV1@PAVQDeclarativeContext@@@Z @ 1183 NONAME ABSENT ; class QDeclarativeContextPrivate * QDeclarativeContextPrivate::get(class QDeclarativeContext *)
	?get@QDeclarativeContextPrivate@@SAPAVQDeclarativeContext@@PAV1@@Z @ 1184 NONAME ABSENT ; class QDeclarativeContext * QDeclarativeContextPrivate::get(class QDeclarativeContextPrivate *)
	?get@QDeclarativeListModel@@QBE?AVQScriptValue@@H@Z @ 1185 NONAME ; class QScriptValue QDeclarativeListModel::get(int) const
	?get@QDeclarativePixmapCache@@SA?AW4Status@QDeclarativePixmapReply@@ABVQUrl@@PAVQPixmap@@_N@Z @ 1186 NONAME ABSENT ; enum QDeclarativePixmapReply::Status QDeclarativePixmapCache::get(class QUrl const &, class QPixmap *, bool)
	?getStaticMetaObject@QDeclarativeAnchorChanges@@SAABUQMetaObject@@XZ @ 1187 NONAME ; struct QMetaObject const & QDeclarativeAnchorChanges::getStaticMetaObject(void)
	?getStaticMetaObject@QDeclarativeAnchors@@SAABUQMetaObject@@XZ @ 1188 NONAME ; struct QMetaObject const & QDeclarativeAnchors::getStaticMetaObject(void)
	?getStaticMetaObject@QDeclarativeAnimatedImage@@SAABUQMetaObject@@XZ @ 1189 NONAME ; struct QMetaObject const & QDeclarativeAnimatedImage::getStaticMetaObject(void)
	?getStaticMetaObject@QDeclarativeBasePositioner@@SAABUQMetaObject@@XZ @ 1190 NONAME ; struct QMetaObject const & QDeclarativeBasePositioner::getStaticMetaObject(void)
	?getStaticMetaObject@QDeclarativeBehavior@@SAABUQMetaObject@@XZ @ 1191 NONAME ; struct QMetaObject const & QDeclarativeBehavior::getStaticMetaObject(void)
	?getStaticMetaObject@QDeclarativeBind@@SAABUQMetaObject@@XZ @ 1192 NONAME ; struct QMetaObject const & QDeclarativeBind::getStaticMetaObject(void)
	?getStaticMetaObject@QDeclarativeBorderImage@@SAABUQMetaObject@@XZ @ 1193 NONAME ; struct QMetaObject const & QDeclarativeBorderImage::getStaticMetaObject(void)
	?getStaticMetaObject@QDeclarativeColumn@@SAABUQMetaObject@@XZ @ 1194 NONAME ; struct QMetaObject const & QDeclarativeColumn::getStaticMetaObject(void)
	?getStaticMetaObject@QDeclarativeComponent@@SAABUQMetaObject@@XZ @ 1195 NONAME ; struct QMetaObject const & QDeclarativeComponent::getStaticMetaObject(void)
	?getStaticMetaObject@QDeclarativeConnections@@SAABUQMetaObject@@XZ @ 1196 NONAME ; struct QMetaObject const & QDeclarativeConnections::getStaticMetaObject(void)
	?getStaticMetaObject@QDeclarativeContext@@SAABUQMetaObject@@XZ @ 1197 NONAME ; struct QMetaObject const & QDeclarativeContext::getStaticMetaObject(void)
	?getStaticMetaObject@QDeclarativeCurve@@SAABUQMetaObject@@XZ @ 1198 NONAME ; struct QMetaObject const & QDeclarativeCurve::getStaticMetaObject(void)
	?getStaticMetaObject@QDeclarativeDateTimeFormatter@@SAABUQMetaObject@@XZ @ 1199 NONAME ABSENT ; struct QMetaObject const & QDeclarativeDateTimeFormatter::getStaticMetaObject(void)
	?getStaticMetaObject@QDeclarativeDebugClient@@SAABUQMetaObject@@XZ @ 1200 NONAME ; struct QMetaObject const & QDeclarativeDebugClient::getStaticMetaObject(void)
	?getStaticMetaObject@QDeclarativeDebugConnection@@SAABUQMetaObject@@XZ @ 1201 NONAME ; struct QMetaObject const & QDeclarativeDebugConnection::getStaticMetaObject(void)
	?getStaticMetaObject@QDeclarativeDebugEnginesQuery@@SAABUQMetaObject@@XZ @ 1202 NONAME ; struct QMetaObject const & QDeclarativeDebugEnginesQuery::getStaticMetaObject(void)
	?getStaticMetaObject@QDeclarativeDebugExpressionQuery@@SAABUQMetaObject@@XZ @ 1203 NONAME ; struct QMetaObject const & QDeclarativeDebugExpressionQuery::getStaticMetaObject(void)
	?getStaticMetaObject@QDeclarativeDebugObjectExpressionWatch@@SAABUQMetaObject@@XZ @ 1204 NONAME ; struct QMetaObject const & QDeclarativeDebugObjectExpressionWatch::getStaticMetaObject(void)
	?getStaticMetaObject@QDeclarativeDebugObjectQuery@@SAABUQMetaObject@@XZ @ 1205 NONAME ; struct QMetaObject const & QDeclarativeDebugObjectQuery::getStaticMetaObject(void)
	?getStaticMetaObject@QDeclarativeDebugPropertyWatch@@SAABUQMetaObject@@XZ @ 1206 NONAME ; struct QMetaObject const & QDeclarativeDebugPropertyWatch::getStaticMetaObject(void)
	?getStaticMetaObject@QDeclarativeDebugQuery@@SAABUQMetaObject@@XZ @ 1207 NONAME ; struct QMetaObject const & QDeclarativeDebugQuery::getStaticMetaObject(void)
	?getStaticMetaObject@QDeclarativeDebugRootContextQuery@@SAABUQMetaObject@@XZ @ 1208 NONAME ; struct QMetaObject const & QDeclarativeDebugRootContextQuery::getStaticMetaObject(void)
	?getStaticMetaObject@QDeclarativeDebugService@@SAABUQMetaObject@@XZ @ 1209 NONAME ; struct QMetaObject const & QDeclarativeDebugService::getStaticMetaObject(void)
	?getStaticMetaObject@QDeclarativeDebugWatch@@SAABUQMetaObject@@XZ @ 1210 NONAME ; struct QMetaObject const & QDeclarativeDebugWatch::getStaticMetaObject(void)
	?getStaticMetaObject@QDeclarativeDrag@@SAABUQMetaObject@@XZ @ 1211 NONAME ; struct QMetaObject const & QDeclarativeDrag::getStaticMetaObject(void)
	?getStaticMetaObject@QDeclarativeEaseFollow@@SAABUQMetaObject@@XZ @ 1212 NONAME ABSENT ; struct QMetaObject const & QDeclarativeEaseFollow::getStaticMetaObject(void)
	?getStaticMetaObject@QDeclarativeEngine@@SAABUQMetaObject@@XZ @ 1213 NONAME ; struct QMetaObject const & QDeclarativeEngine::getStaticMetaObject(void)
	?getStaticMetaObject@QDeclarativeEngineDebug@@SAABUQMetaObject@@XZ @ 1214 NONAME ; struct QMetaObject const & QDeclarativeEngineDebug::getStaticMetaObject(void)
	?getStaticMetaObject@QDeclarativeExpression@@SAABUQMetaObject@@XZ @ 1215 NONAME ; struct QMetaObject const & QDeclarativeExpression::getStaticMetaObject(void)
	?getStaticMetaObject@QDeclarativeExtensionPlugin@@SAABUQMetaObject@@XZ @ 1216 NONAME ; struct QMetaObject const & QDeclarativeExtensionPlugin::getStaticMetaObject(void)
	?getStaticMetaObject@QDeclarativeFlickable@@SAABUQMetaObject@@XZ @ 1217 NONAME ; struct QMetaObject const & QDeclarativeFlickable::getStaticMetaObject(void)
	?getStaticMetaObject@QDeclarativeFlipable@@SAABUQMetaObject@@XZ @ 1218 NONAME ; struct QMetaObject const & QDeclarativeFlipable::getStaticMetaObject(void)
	?getStaticMetaObject@QDeclarativeFlow@@SAABUQMetaObject@@XZ @ 1219 NONAME ; struct QMetaObject const & QDeclarativeFlow::getStaticMetaObject(void)
	?getStaticMetaObject@QDeclarativeFocusPanel@@SAABUQMetaObject@@XZ @ 1220 NONAME ; struct QMetaObject const & QDeclarativeFocusPanel::getStaticMetaObject(void)
	?getStaticMetaObject@QDeclarativeFocusScope@@SAABUQMetaObject@@XZ @ 1221 NONAME ; struct QMetaObject const & QDeclarativeFocusScope::getStaticMetaObject(void)
	?getStaticMetaObject@QDeclarativeFontLoader@@SAABUQMetaObject@@XZ @ 1222 NONAME ; struct QMetaObject const & QDeclarativeFontLoader::getStaticMetaObject(void)
	?getStaticMetaObject@QDeclarativeGradient@@SAABUQMetaObject@@XZ @ 1223 NONAME ; struct QMetaObject const & QDeclarativeGradient::getStaticMetaObject(void)
	?getStaticMetaObject@QDeclarativeGradientStop@@SAABUQMetaObject@@XZ @ 1224 NONAME ; struct QMetaObject const & QDeclarativeGradientStop::getStaticMetaObject(void)
	?getStaticMetaObject@QDeclarativeGraphicsObjectContainer@@SAABUQMetaObject@@XZ @ 1225 NONAME ABSENT ; struct QMetaObject const & QDeclarativeGraphicsObjectContainer::getStaticMetaObject(void)
	?getStaticMetaObject@QDeclarativeGrid@@SAABUQMetaObject@@XZ @ 1226 NONAME ; struct QMetaObject const & QDeclarativeGrid::getStaticMetaObject(void)
	?getStaticMetaObject@QDeclarativeGridView@@SAABUQMetaObject@@XZ @ 1227 NONAME ; struct QMetaObject const & QDeclarativeGridView::getStaticMetaObject(void)
	?getStaticMetaObject@QDeclarativeImage@@SAABUQMetaObject@@XZ @ 1228 NONAME ; struct QMetaObject const & QDeclarativeImage::getStaticMetaObject(void)
	?getStaticMetaObject@QDeclarativeImageBase@@SAABUQMetaObject@@XZ @ 1229 NONAME ; struct QMetaObject const & QDeclarativeImageBase::getStaticMetaObject(void)
	?getStaticMetaObject@QDeclarativeItem@@SAABUQMetaObject@@XZ @ 1230 NONAME ; struct QMetaObject const & QDeclarativeItem::getStaticMetaObject(void)
	?getStaticMetaObject@QDeclarativeListModel@@SAABUQMetaObject@@XZ @ 1231 NONAME ; struct QMetaObject const & QDeclarativeListModel::getStaticMetaObject(void)
	?getStaticMetaObject@QDeclarativeListView@@SAABUQMetaObject@@XZ @ 1232 NONAME ; struct QMetaObject const & QDeclarativeListView::getStaticMetaObject(void)
	?getStaticMetaObject@QDeclarativeLoader@@SAABUQMetaObject@@XZ @ 1233 NONAME ; struct QMetaObject const & QDeclarativeLoader::getStaticMetaObject(void)
	?getStaticMetaObject@QDeclarativeMouseArea@@SAABUQMetaObject@@XZ @ 1234 NONAME ; struct QMetaObject const & QDeclarativeMouseArea::getStaticMetaObject(void)
	?getStaticMetaObject@QDeclarativeNumberFormatter@@SAABUQMetaObject@@XZ @ 1235 NONAME ABSENT ; struct QMetaObject const & QDeclarativeNumberFormatter::getStaticMetaObject(void)
	?getStaticMetaObject@QDeclarativePaintedItem@@SAABUQMetaObject@@XZ @ 1236 NONAME ; struct QMetaObject const & QDeclarativePaintedItem::getStaticMetaObject(void)
	?getStaticMetaObject@QDeclarativeParentChange@@SAABUQMetaObject@@XZ @ 1237 NONAME ; struct QMetaObject const & QDeclarativeParentChange::getStaticMetaObject(void)
	?getStaticMetaObject@QDeclarativeParticleMotion@@SAABUQMetaObject@@XZ @ 1238 NONAME ABSENT ; struct QMetaObject const & QDeclarativeParticleMotion::getStaticMetaObject(void)
	?getStaticMetaObject@QDeclarativeParticleMotionGravity@@SAABUQMetaObject@@XZ @ 1239 NONAME ABSENT ; struct QMetaObject const & QDeclarativeParticleMotionGravity::getStaticMetaObject(void)
	?getStaticMetaObject@QDeclarativeParticleMotionLinear@@SAABUQMetaObject@@XZ @ 1240 NONAME ABSENT ; struct QMetaObject const & QDeclarativeParticleMotionLinear::getStaticMetaObject(void)
	?getStaticMetaObject@QDeclarativeParticleMotionWander@@SAABUQMetaObject@@XZ @ 1241 NONAME ABSENT ; struct QMetaObject const & QDeclarativeParticleMotionWander::getStaticMetaObject(void)
	?getStaticMetaObject@QDeclarativeParticles@@SAABUQMetaObject@@XZ @ 1242 NONAME ABSENT ; struct QMetaObject const & QDeclarativeParticles::getStaticMetaObject(void)
	?getStaticMetaObject@QDeclarativePath@@SAABUQMetaObject@@XZ @ 1243 NONAME ; struct QMetaObject const & QDeclarativePath::getStaticMetaObject(void)
	?getStaticMetaObject@QDeclarativePathAttribute@@SAABUQMetaObject@@XZ @ 1244 NONAME ; struct QMetaObject const & QDeclarativePathAttribute::getStaticMetaObject(void)
	?getStaticMetaObject@QDeclarativePathCubic@@SAABUQMetaObject@@XZ @ 1245 NONAME ; struct QMetaObject const & QDeclarativePathCubic::getStaticMetaObject(void)
	?getStaticMetaObject@QDeclarativePathElement@@SAABUQMetaObject@@XZ @ 1246 NONAME ; struct QMetaObject const & QDeclarativePathElement::getStaticMetaObject(void)
	?getStaticMetaObject@QDeclarativePathLine@@SAABUQMetaObject@@XZ @ 1247 NONAME ; struct QMetaObject const & QDeclarativePathLine::getStaticMetaObject(void)
	?getStaticMetaObject@QDeclarativePathPercent@@SAABUQMetaObject@@XZ @ 1248 NONAME ; struct QMetaObject const & QDeclarativePathPercent::getStaticMetaObject(void)
	?getStaticMetaObject@QDeclarativePathQuad@@SAABUQMetaObject@@XZ @ 1249 NONAME ; struct QMetaObject const & QDeclarativePathQuad::getStaticMetaObject(void)
	?getStaticMetaObject@QDeclarativePathView@@SAABUQMetaObject@@XZ @ 1250 NONAME ; struct QMetaObject const & QDeclarativePathView::getStaticMetaObject(void)
	?getStaticMetaObject@QDeclarativePen@@SAABUQMetaObject@@XZ @ 1251 NONAME ; struct QMetaObject const & QDeclarativePen::getStaticMetaObject(void)
	?getStaticMetaObject@QDeclarativePixmapReply@@SAABUQMetaObject@@XZ @ 1252 NONAME ; struct QMetaObject const & QDeclarativePixmapReply::getStaticMetaObject(void)
	?getStaticMetaObject@QDeclarativePropertyChanges@@SAABUQMetaObject@@XZ @ 1253 NONAME ; struct QMetaObject const & QDeclarativePropertyChanges::getStaticMetaObject(void)
	?getStaticMetaObject@QDeclarativePropertyMap@@SAABUQMetaObject@@XZ @ 1254 NONAME ; struct QMetaObject const & QDeclarativePropertyMap::getStaticMetaObject(void)
	?getStaticMetaObject@QDeclarativeRectangle@@SAABUQMetaObject@@XZ @ 1255 NONAME ; struct QMetaObject const & QDeclarativeRectangle::getStaticMetaObject(void)
	?getStaticMetaObject@QDeclarativeRepeater@@SAABUQMetaObject@@XZ @ 1256 NONAME ; struct QMetaObject const & QDeclarativeRepeater::getStaticMetaObject(void)
	?getStaticMetaObject@QDeclarativeRow@@SAABUQMetaObject@@XZ @ 1257 NONAME ; struct QMetaObject const & QDeclarativeRow::getStaticMetaObject(void)
	?getStaticMetaObject@QDeclarativeScaleGrid@@SAABUQMetaObject@@XZ @ 1258 NONAME ; struct QMetaObject const & QDeclarativeScaleGrid::getStaticMetaObject(void)
	?getStaticMetaObject@QDeclarativeSpringFollow@@SAABUQMetaObject@@XZ @ 1259 NONAME ; struct QMetaObject const & QDeclarativeSpringFollow::getStaticMetaObject(void)
	?getStaticMetaObject@QDeclarativeState@@SAABUQMetaObject@@XZ @ 1260 NONAME ; struct QMetaObject const & QDeclarativeState::getStaticMetaObject(void)
	?getStaticMetaObject@QDeclarativeStateChangeScript@@SAABUQMetaObject@@XZ @ 1261 NONAME ; struct QMetaObject const & QDeclarativeStateChangeScript::getStaticMetaObject(void)
	?getStaticMetaObject@QDeclarativeStateGroup@@SAABUQMetaObject@@XZ @ 1262 NONAME ; struct QMetaObject const & QDeclarativeStateGroup::getStaticMetaObject(void)
	?getStaticMetaObject@QDeclarativeStateOperation@@SAABUQMetaObject@@XZ @ 1263 NONAME ; struct QMetaObject const & QDeclarativeStateOperation::getStaticMetaObject(void)
	?getStaticMetaObject@QDeclarativeSystemPalette@@SAABUQMetaObject@@XZ @ 1264 NONAME ; struct QMetaObject const & QDeclarativeSystemPalette::getStaticMetaObject(void)
	?getStaticMetaObject@QDeclarativeText@@SAABUQMetaObject@@XZ @ 1265 NONAME ; struct QMetaObject const & QDeclarativeText::getStaticMetaObject(void)
	?getStaticMetaObject@QDeclarativeTextEdit@@SAABUQMetaObject@@XZ @ 1266 NONAME ; struct QMetaObject const & QDeclarativeTextEdit::getStaticMetaObject(void)
	?getStaticMetaObject@QDeclarativeTextInput@@SAABUQMetaObject@@XZ @ 1267 NONAME ; struct QMetaObject const & QDeclarativeTextInput::getStaticMetaObject(void)
	?getStaticMetaObject@QDeclarativeTimer@@SAABUQMetaObject@@XZ @ 1268 NONAME ; struct QMetaObject const & QDeclarativeTimer::getStaticMetaObject(void)
	?getStaticMetaObject@QDeclarativeTransition@@SAABUQMetaObject@@XZ @ 1269 NONAME ; struct QMetaObject const & QDeclarativeTransition::getStaticMetaObject(void)
	?getStaticMetaObject@QDeclarativeValueType@@SAABUQMetaObject@@XZ @ 1270 NONAME ; struct QMetaObject const & QDeclarativeValueType::getStaticMetaObject(void)
	?getStaticMetaObject@QDeclarativeView@@SAABUQMetaObject@@XZ @ 1271 NONAME ; struct QMetaObject const & QDeclarativeView::getStaticMetaObject(void)
	?getStaticMetaObject@QDeclarativeViewSection@@SAABUQMetaObject@@XZ @ 1272 NONAME ; struct QMetaObject const & QDeclarativeViewSection::getStaticMetaObject(void)
	?getStaticMetaObject@QDeclarativeVisualDataModel@@SAABUQMetaObject@@XZ @ 1273 NONAME ; struct QMetaObject const & QDeclarativeVisualDataModel::getStaticMetaObject(void)
	?getStaticMetaObject@QDeclarativeVisualItemModel@@SAABUQMetaObject@@XZ @ 1274 NONAME ; struct QMetaObject const & QDeclarativeVisualItemModel::getStaticMetaObject(void)
	?getStaticMetaObject@QDeclarativeVisualModel@@SAABUQMetaObject@@XZ @ 1275 NONAME ; struct QMetaObject const & QDeclarativeVisualModel::getStaticMetaObject(void)
	?getStaticMetaObject@QDeclarativeWebPage@@SAABUQMetaObject@@XZ @ 1276 NONAME ABSENT ; struct QMetaObject const & QDeclarativeWebPage::getStaticMetaObject(void)
	?getStaticMetaObject@QDeclarativeWebView@@SAABUQMetaObject@@XZ @ 1277 NONAME ABSENT ; struct QMetaObject const & QDeclarativeWebView::getStaticMetaObject(void)
	?getStaticMetaObject@QDeclarativeXmlListModel@@SAABUQMetaObject@@XZ @ 1278 NONAME ; struct QMetaObject const & QDeclarativeXmlListModel::getStaticMetaObject(void)
	?getStaticMetaObject@QDeclarativeXmlListModelRole@@SAABUQMetaObject@@XZ @ 1279 NONAME ; struct QMetaObject const & QDeclarativeXmlListModelRole::getStaticMetaObject(void)
	?getStaticMetaObject@QListModelInterface@@SAABUQMetaObject@@XZ @ 1280 NONAME ; struct QMetaObject const & QListModelInterface::getStaticMetaObject(void)
	?getStaticMetaObject@QPacketProtocol@@SAABUQMetaObject@@XZ @ 1281 NONAME ; struct QMetaObject const & QPacketProtocol::getStaticMetaObject(void)
	?gradient@QDeclarativeGradient@@QBEPBVQGradient@@XZ @ 1282 NONAME ; class QGradient const * QDeclarativeGradient::gradient(void) const
	?gradient@QDeclarativeRectangle@@QBEPAVQDeclarativeGradient@@XZ @ 1283 NONAME ; class QDeclarativeGradient * QDeclarativeRectangle::gradient(void) const
	?graphicsObject@QDeclarativeGraphicsObjectContainer@@QBEPAVQGraphicsObject@@XZ @ 1284 NONAME ABSENT ; class QGraphicsObject * QDeclarativeGraphicsObjectContainer::graphicsObject(void) const
	?gridBottom@QDeclarativeGridScaledImage@@QBEHXZ @ 1285 NONAME ; int QDeclarativeGridScaledImage::gridBottom(void) const
	?gridLeft@QDeclarativeGridScaledImage@@QBEHXZ @ 1286 NONAME ; int QDeclarativeGridScaledImage::gridLeft(void) const
	?gridRight@QDeclarativeGridScaledImage@@QBEHXZ @ 1287 NONAME ; int QDeclarativeGridScaledImage::gridRight(void) const
	?gridTop@QDeclarativeGridScaledImage@@QBEHXZ @ 1288 NONAME ; int QDeclarativeGridScaledImage::gridTop(void) const
	?hAlign@QDeclarativeText@@QBE?AW4HAlignment@1@XZ @ 1289 NONAME ; enum QDeclarativeText::HAlignment QDeclarativeText::hAlign(void) const
	?hAlign@QDeclarativeTextEdit@@QBE?AW4HAlignment@1@XZ @ 1290 NONAME ; enum QDeclarativeTextEdit::HAlignment QDeclarativeTextEdit::hAlign(void) const
	?hAlign@QDeclarativeTextInput@@QBE?AW4HAlignment@1@XZ @ 1291 NONAME ; enum QDeclarativeTextInput::HAlignment QDeclarativeTextInput::hAlign(void) const
	?hasAcceptableInput@QDeclarativeTextInput@@QBE_NXZ @ 1292 NONAME ; bool QDeclarativeTextInput::hasAcceptableInput(void) const
	?hasError@QDeclarativeExpression@@QBE_NXZ @ 1293 NONAME ; bool QDeclarativeExpression::hasError(void) const
	?hasFocus@QDeclarativeItem@@QBE_NXZ @ 1294 NONAME ; bool QDeclarativeItem::hasFocus(void) const
	?hasNotifySignal@QDeclarativeDebugPropertyReference@@QBE_NXZ @ 1295 NONAME ; bool QDeclarativeDebugPropertyReference::hasNotifySignal(void) const
	?hasNotifySignal@QDeclarativeProperty@@QBE_NXZ @ 1296 NONAME ; bool QDeclarativeProperty::hasNotifySignal(void) const
	?hasNotifySignal@QMetaPropertyBuilder@@QBE_NXZ @ 1297 NONAME ; bool QMetaPropertyBuilder::hasNotifySignal(void) const
	?hasStdCppSet@QMetaPropertyBuilder@@QBE_NXZ @ 1298 NONAME ; bool QMetaPropertyBuilder::hasStdCppSet(void) const
	?header@QDeclarativeListView@@QBEPAVQDeclarativeComponent@@XZ @ 1299 NONAME ; class QDeclarativeComponent * QDeclarativeListView::header(void) const
	?height@QDeclarativeItem@@QBEMXZ @ 1300 NONAME ; float QDeclarativeItem::height(void) const
	?height@QDeclarativeParentChange@@QBEMXZ @ 1301 NONAME ABSENT ; float QDeclarativeParentChange::height(void) const
	?heightChange@QDeclarativeFlickable@@IAEXXZ @ 1302 NONAME ABSENT ; void QDeclarativeFlickable::heightChange(void)
	?heightChanged@QDeclarativeItem@@IAEXXZ @ 1303 NONAME ABSENT ; void QDeclarativeItem::heightChanged(void)
	?heightIsSet@QDeclarativeParentChange@@QBE_NXZ @ 1304 NONAME ; bool QDeclarativeParentChange::heightIsSet(void) const
	?heightValid@QDeclarativeItem@@IBE_NXZ @ 1305 NONAME ; bool QDeclarativeItem::heightValid(void) const
	?heuristicZoom@QDeclarativeWebView@@QAE_NHHM@Z @ 1306 NONAME ABSENT ; bool QDeclarativeWebView::heuristicZoom(int, int, float)
	?highlight@QDeclarativeGridView@@QBEPAVQDeclarativeComponent@@XZ @ 1307 NONAME ; class QDeclarativeComponent * QDeclarativeGridView::highlight(void) const
	?highlight@QDeclarativeListView@@QBEPAVQDeclarativeComponent@@XZ @ 1308 NONAME ; class QDeclarativeComponent * QDeclarativeListView::highlight(void) const
	?highlight@QDeclarativeSystemPalette@@QBE?AVQColor@@XZ @ 1309 NONAME ; class QColor QDeclarativeSystemPalette::highlight(void) const
	?highlightChanged@QDeclarativeGridView@@IAEXXZ @ 1310 NONAME ; void QDeclarativeGridView::highlightChanged(void)
	?highlightChanged@QDeclarativeListView@@IAEXXZ @ 1311 NONAME ; void QDeclarativeListView::highlightChanged(void)
	?highlightFollowsCurrentItem@QDeclarativeGridView@@QBE_NXZ @ 1312 NONAME ; bool QDeclarativeGridView::highlightFollowsCurrentItem(void) const
	?highlightFollowsCurrentItem@QDeclarativeListView@@QBE_NXZ @ 1313 NONAME ; bool QDeclarativeListView::highlightFollowsCurrentItem(void) const
	?highlightItem@QDeclarativeGridView@@QAEPAVQDeclarativeItem@@XZ @ 1314 NONAME ; class QDeclarativeItem * QDeclarativeGridView::highlightItem(void)
	?highlightItem@QDeclarativeListView@@QAEPAVQDeclarativeItem@@XZ @ 1315 NONAME ; class QDeclarativeItem * QDeclarativeListView::highlightItem(void)
	?highlightMoveSpeed@QDeclarativeListView@@QBEMXZ @ 1316 NONAME ; float QDeclarativeListView::highlightMoveSpeed(void) const
	?highlightMoveSpeedChanged@QDeclarativeListView@@IAEXXZ @ 1317 NONAME ; void QDeclarativeListView::highlightMoveSpeedChanged(void)
	?highlightRangeMode@QDeclarativeListView@@QBE?AW4HighlightRangeMode@1@XZ @ 1318 NONAME ; enum QDeclarativeListView::HighlightRangeMode QDeclarativeListView::highlightRangeMode(void) const
	?highlightResizeSpeed@QDeclarativeListView@@QBEMXZ @ 1319 NONAME ; float QDeclarativeListView::highlightResizeSpeed(void) const
	?highlightResizeSpeedChanged@QDeclarativeListView@@IAEXXZ @ 1320 NONAME ; void QDeclarativeListView::highlightResizeSpeedChanged(void)
	?highlightedText@QDeclarativeSystemPalette@@QBE?AVQColor@@XZ @ 1321 NONAME ; class QColor QDeclarativeSystemPalette::highlightedText(void) const
	?history@QDeclarativeWebView@@QBEPAVQWebHistory@@XZ @ 1322 NONAME ABSENT ; class QWebHistory * QDeclarativeWebView::history(void) const
	?horizontalAlignmentChanged@QDeclarativeText@@IAEXW4HAlignment@1@@Z @ 1323 NONAME ; void QDeclarativeText::horizontalAlignmentChanged(enum QDeclarativeText::HAlignment)
	?horizontalAlignmentChanged@QDeclarativeTextEdit@@IAEXW4HAlignment@1@@Z @ 1324 NONAME ; void QDeclarativeTextEdit::horizontalAlignmentChanged(enum QDeclarativeTextEdit::HAlignment)
	?horizontalAlignmentChanged@QDeclarativeTextInput@@IAEXW4HAlignment@1@@Z @ 1325 NONAME ; void QDeclarativeTextInput::horizontalAlignmentChanged(enum QDeclarativeTextInput::HAlignment)
	?horizontalCenter@QDeclarativeAnchorChanges@@QBE?AVQDeclarativeAnchorLine@@XZ @ 1326 NONAME ABSENT ; class QDeclarativeAnchorLine QDeclarativeAnchorChanges::horizontalCenter(void) const
	?horizontalCenter@QDeclarativeAnchors@@QBE?AVQDeclarativeAnchorLine@@XZ @ 1327 NONAME ABSENT ; class QDeclarativeAnchorLine QDeclarativeAnchors::horizontalCenter(void) const
	?horizontalCenter@QDeclarativeItem@@QBE?AVQDeclarativeAnchorLine@@XZ @ 1328 NONAME ABSENT ; class QDeclarativeAnchorLine QDeclarativeItem::horizontalCenter(void) const
	?horizontalCenterChanged@QDeclarativeAnchors@@IAEXXZ @ 1329 NONAME ; void QDeclarativeAnchors::horizontalCenterChanged(void)
	?horizontalCenterOffset@QDeclarativeAnchors@@QBEMXZ @ 1330 NONAME ; float QDeclarativeAnchors::horizontalCenterOffset(void) const
	?horizontalCenterOffsetChanged@QDeclarativeAnchors@@IAEXXZ @ 1331 NONAME ; void QDeclarativeAnchors::horizontalCenterOffsetChanged(void)
	?horizontalTileMode@QDeclarativeBorderImage@@QBE?AW4TileMode@1@XZ @ 1332 NONAME ; enum QDeclarativeBorderImage::TileMode QDeclarativeBorderImage::horizontalTileMode(void) const
	?horizontalTileModeChanged@QDeclarativeBorderImage@@IAEXXZ @ 1333 NONAME ; void QDeclarativeBorderImage::horizontalTileModeChanged(void)
	?horizontalTileRule@QDeclarativeGridScaledImage@@QBE?AW4TileMode@QDeclarativeBorderImage@@XZ @ 1334 NONAME ; enum QDeclarativeBorderImage::TileMode QDeclarativeGridScaledImage::horizontalTileRule(void) const
	?horizontalVelocity@QDeclarativeFlickable@@QBEMXZ @ 1335 NONAME ; float QDeclarativeFlickable::horizontalVelocity(void) const
	?horizontalVelocityChanged@QDeclarativeFlickable@@IAEXXZ @ 1336 NONAME ; void QDeclarativeFlickable::horizontalVelocityChanged(void)
	?hoverEnterEvent@QDeclarativeMouseArea@@MAEXPAVQGraphicsSceneHoverEvent@@@Z @ 1337 NONAME ; void QDeclarativeMouseArea::hoverEnterEvent(class QGraphicsSceneHoverEvent *)
	?hoverLeaveEvent@QDeclarativeMouseArea@@MAEXPAVQGraphicsSceneHoverEvent@@@Z @ 1338 NONAME ; void QDeclarativeMouseArea::hoverLeaveEvent(class QGraphicsSceneHoverEvent *)
	?hoverMoveEvent@QDeclarativeMouseArea@@MAEXPAVQGraphicsSceneHoverEvent@@@Z @ 1339 NONAME ; void QDeclarativeMouseArea::hoverMoveEvent(class QGraphicsSceneHoverEvent *)
	?hoverMoveEvent@QDeclarativeWebView@@MAEXPAVQGraphicsSceneHoverEvent@@@Z @ 1340 NONAME ABSENT ; void QDeclarativeWebView::hoverMoveEvent(class QGraphicsSceneHoverEvent *)
	?hovered@QDeclarativeMouseArea@@QBE_NXZ @ 1341 NONAME ; bool QDeclarativeMouseArea::hovered(void) const
	?hoveredChanged@QDeclarativeMouseArea@@IAEXXZ @ 1342 NONAME ; void QDeclarativeMouseArea::hoveredChanged(void)
	?html@QDeclarativeWebView@@QBE?AVQString@@XZ @ 1343 NONAME ABSENT ; class QString QDeclarativeWebView::html(void) const
	?htmlChanged@QDeclarativeWebView@@IAEXXZ @ 1344 NONAME ABSENT ; void QDeclarativeWebView::htmlChanged(void)
	?icon@QDeclarativeWebView@@QBE?AVQPixmap@@XZ @ 1345 NONAME ABSENT ; class QPixmap QDeclarativeWebView::icon(void) const
	?iconChanged@QDeclarativeWebView@@IAEXXZ @ 1346 NONAME ABSENT ; void QDeclarativeWebView::iconChanged(void)
	?idForObject@QDeclarativeDebugService@@SAHPAVQObject@@@Z @ 1347 NONAME ; int QDeclarativeDebugService::idForObject(class QObject *)
	?imageLoaded@QDeclarativeParticles@@AAEXXZ @ 1348 NONAME ABSENT ; void QDeclarativeParticles::imageLoaded(void)
	?imageProvider@QDeclarativeEngine@@QBEPAVQDeclarativeImageProvider@@ABVQString@@@Z @ 1349 NONAME ; class QDeclarativeImageProvider * QDeclarativeEngine::imageProvider(class QString const &) const
	?implicitHeight@QDeclarativeItem@@QBEMXZ @ 1350 NONAME ; float QDeclarativeItem::implicitHeight(void) const
	?implicitWidth@QDeclarativeItem@@QBEMXZ @ 1351 NONAME ; float QDeclarativeItem::implicitWidth(void) const
	?importExtension@QDeclarativeEngine@@QAE_NABVQString@@0@Z @ 1352 NONAME ABSENT ; bool QDeclarativeEngine::importExtension(class QString const &, class QString const &)
	?imports@QDeclarativeDomDocument@@QBE?AV?$QList@VQDeclarativeDomImport@@@@XZ @ 1353 NONAME ; class QList<class QDeclarativeDomImport> QDeclarativeDomDocument::imports(void) const
	?inSync@QDeclarativeSpringFollow@@QBE_NXZ @ 1354 NONAME ; bool QDeclarativeSpringFollow::inSync(void) const
	?incrementCurrentIndex@QDeclarativeListView@@QAEXXZ @ 1355 NONAME ; void QDeclarativeListView::incrementCurrentIndex(void)
	?index@QDeclarativeProperty@@QBEHXZ @ 1356 NONAME ; int QDeclarativeProperty::index(void) const
	?index@QDeclarativeType@@QBEHXZ @ 1357 NONAME ; int QDeclarativeType::index(void) const
	?index@QMetaEnumBuilder@@QBEHXZ @ 1358 NONAME ; int QMetaEnumBuilder::index(void) const
	?index@QMetaMethodBuilder@@QBEHXZ @ 1359 NONAME ; int QMetaMethodBuilder::index(void) const
	?index@QMetaPropertyBuilder@@QBEHXZ @ 1360 NONAME ; int QMetaPropertyBuilder::index(void) const
	?indexOf@QDeclarativeVisualDataModel@@UBEHPAVQDeclarativeItem@@PAVQObject@@@Z @ 1361 NONAME ; int QDeclarativeVisualDataModel::indexOf(class QDeclarativeItem *, class QObject *) const
	?indexOf@QDeclarativeVisualItemModel@@UBEHPAVQDeclarativeItem@@PAVQObject@@@Z @ 1362 NONAME ; int QDeclarativeVisualItemModel::indexOf(class QDeclarativeItem *, class QObject *) const
	?indexOfClassInfo@QMetaObjectBuilder@@QAEHABVQByteArray@@@Z @ 1363 NONAME ; int QMetaObjectBuilder::indexOfClassInfo(class QByteArray const &)
	?indexOfConstructor@QMetaObjectBuilder@@QAEHABVQByteArray@@@Z @ 1364 NONAME ; int QMetaObjectBuilder::indexOfConstructor(class QByteArray const &)
	?indexOfEnumerator@QMetaObjectBuilder@@QAEHABVQByteArray@@@Z @ 1365 NONAME ; int QMetaObjectBuilder::indexOfEnumerator(class QByteArray const &)
	?indexOfMethod@QMetaObjectBuilder@@QAEHABVQByteArray@@@Z @ 1366 NONAME ; int QMetaObjectBuilder::indexOfMethod(class QByteArray const &)
	?indexOfProperty@QMetaObjectBuilder@@QAEHABVQByteArray@@@Z @ 1367 NONAME ; int QMetaObjectBuilder::indexOfProperty(class QByteArray const &)
	?indexOfSignal@QMetaObjectBuilder@@QAEHABVQByteArray@@@Z @ 1368 NONAME ; int QMetaObjectBuilder::indexOfSignal(class QByteArray const &)
	?indexOfSlot@QMetaObjectBuilder@@QAEHABVQByteArray@@@Z @ 1369 NONAME ; int QMetaObjectBuilder::indexOfSlot(class QByteArray const &)
	?init@QDeclarativeContextPrivate@@QAEXXZ @ 1370 NONAME ABSENT ; void QDeclarativeContextPrivate::init(void)
	?init@QDeclarativePaintedItem@@AAEXXZ @ 1371 NONAME ABSENT ; void QDeclarativePaintedItem::init(void)
	?init@QDeclarativeWebView@@AAEXXZ @ 1372 NONAME ABSENT ; void QDeclarativeWebView::init(void)
	?initialLayout@QDeclarativeWebView@@AAEXXZ @ 1373 NONAME ABSENT ; void QDeclarativeWebView::initialLayout(void)
	?initialValue@QDeclarativeOpenMetaObject@@UAE?AVQVariant@@H@Z @ 1374 NONAME ; class QVariant QDeclarativeOpenMetaObject::initialValue(int)
	?initializeEngine@QDeclarativeExtensionPlugin@@UAEXPAVQDeclarativeEngine@@PBD@Z @ 1375 NONAME ; void QDeclarativeExtensionPlugin::initializeEngine(class QDeclarativeEngine *, char const *)
	?inputMask@QDeclarativeTextInput@@QBE?AVQString@@XZ @ 1376 NONAME ; class QString QDeclarativeTextInput::inputMask(void) const
	?inputMaskChanged@QDeclarativeTextInput@@IAEXABVQString@@@Z @ 1377 NONAME ; void QDeclarativeTextInput::inputMaskChanged(class QString const &)
	?inputMethodEvent@QDeclarativeItem@@MAEXPAVQInputMethodEvent@@@Z @ 1378 NONAME ; void QDeclarativeItem::inputMethodEvent(class QInputMethodEvent *)
	?inputMethodEvent@QDeclarativeTextEdit@@MAEXPAVQInputMethodEvent@@@Z @ 1379 NONAME ; void QDeclarativeTextEdit::inputMethodEvent(class QInputMethodEvent *)
	?inputMethodQuery@QDeclarativeItem@@MBE?AVQVariant@@W4InputMethodQuery@Qt@@@Z @ 1380 NONAME ; class QVariant QDeclarativeItem::inputMethodQuery(enum Qt::InputMethodQuery) const
	?inputMethodQuery@QDeclarativeTextEdit@@UBE?AVQVariant@@W4InputMethodQuery@Qt@@@Z @ 1381 NONAME ; class QVariant QDeclarativeTextEdit::inputMethodQuery(enum Qt::InputMethodQuery) const
	?inputMethodQuery@QDeclarativeTextInput@@UBE?AVQVariant@@W4InputMethodQuery@Qt@@@Z @ 1382 NONAME ; class QVariant QDeclarativeTextInput::inputMethodQuery(enum Qt::InputMethodQuery) const
	?insert@QDeclarativeListModel@@QAEXHABVQScriptValue@@@Z @ 1383 NONAME ; void QDeclarativeListModel::insert(int, class QScriptValue const &)
	?insert@QDeclarativePropertyMap@@QAEXABVQString@@ABVQVariant@@@Z @ 1384 NONAME ; void QDeclarativePropertyMap::insert(class QString const &, class QVariant const &)
	?interactiveChanged@QDeclarativeFlickable@@IAEXXZ @ 1385 NONAME ; void QDeclarativeFlickable::interactiveChanged(void)
	?interfaceIId@QDeclarativeMetaType@@SAPBDH@Z @ 1386 NONAME ; char const * QDeclarativeMetaType::interfaceIId(int)
	?interfaceIId@QDeclarativeType@@QBEPBDXZ @ 1387 NONAME ; char const * QDeclarativeType::interfaceIId(void) const
	?interpolate@QDeclarativePath@@AAEXHABVQString@@M@Z @ 1388 NONAME ; void QDeclarativePath::interpolate(int, class QString const &, float)
	?interval@QDeclarativeTimer@@QBEHXZ @ 1389 NONAME ; int QDeclarativeTimer::interval(void) const
	?invalidPacket@QPacketProtocol@@IAEXXZ @ 1390 NONAME ; void QPacketProtocol::invalidPacket(void)
	?invalidateEngines@QDeclarativeContextPrivate@@QAEXXZ @ 1391 NONAME ABSENT ; void QDeclarativeContextPrivate::invalidateEngines(void)
	?isAlias@QDeclarativeDomDynamicProperty@@QBE_NXZ @ 1392 NONAME ; bool QDeclarativeDomDynamicProperty::isAlias(void) const
	?isAtBoundaryChanged@QDeclarativeFlickable@@IAEXXZ @ 1393 NONAME ; void QDeclarativeFlickable::isAtBoundaryChanged(void)
	?isAtXBeginning@QDeclarativeFlickable@@QBE_NXZ @ 1394 NONAME ; bool QDeclarativeFlickable::isAtXBeginning(void) const
	?isAtXEnd@QDeclarativeFlickable@@QBE_NXZ @ 1395 NONAME ; bool QDeclarativeFlickable::isAtXEnd(void) const
	?isAtYBeginning@QDeclarativeFlickable@@QBE_NXZ @ 1396 NONAME ; bool QDeclarativeFlickable::isAtYBeginning(void) const
	?isAtYEnd@QDeclarativeFlickable@@QBE_NXZ @ 1397 NONAME ; bool QDeclarativeFlickable::isAtYEnd(void) const
	?isAttachedPropertyName@QDeclarativeCompiler@@SA_NABVQByteArray@@@Z @ 1398 NONAME ; bool QDeclarativeCompiler::isAttachedPropertyName(class QByteArray const &)
	?isBinding@QDeclarativeDomValue@@QBE_NXZ @ 1399 NONAME ; bool QDeclarativeDomValue::isBinding(void) const
	?isClosed@QDeclarativePath@@QBE_NXZ @ 1400 NONAME ; bool QDeclarativePath::isClosed(void) const
	?isComponent@QDeclarativeDomObject@@QBE_NXZ @ 1401 NONAME ; bool QDeclarativeDomObject::isComponent(void) const
	?isComponentComplete@QDeclarativeItem@@IBE_NXZ @ 1402 NONAME ; bool QDeclarativeItem::isComponentComplete(void) const
	?isConnected@QDeclarativeDebugClient@@QBE_NXZ @ 1403 NONAME ; bool QDeclarativeDebugClient::isConnected(void) const
	?isConnected@QDeclarativeDebugConnection@@QBE_NXZ @ 1404 NONAME ; bool QDeclarativeDebugConnection::isConnected(void) const
	?isCursorVisible@QDeclarativeTextEdit@@QBE_NXZ @ 1405 NONAME ; bool QDeclarativeTextEdit::isCursorVisible(void) const
	?isCursorVisible@QDeclarativeTextInput@@QBE_NXZ @ 1406 NONAME ; bool QDeclarativeTextInput::isCursorVisible(void) const
	?isCustomType@QDeclarativeDomObject@@QBE_NXZ @ 1407 NONAME ; bool QDeclarativeDomObject::isCustomType(void) const
	?isDebuggingEnabled@QDeclarativeDebugService@@SA_NXZ @ 1408 NONAME ; bool QDeclarativeDebugService::isDebuggingEnabled(void)
	?isDefaultProperty@QDeclarativeDomDynamicProperty@@QBE_NXZ @ 1409 NONAME ; bool QDeclarativeDomDynamicProperty::isDefaultProperty(void) const
	?isDefaultProperty@QDeclarativeDomProperty@@QBE_NXZ @ 1410 NONAME ; bool QDeclarativeDomProperty::isDefaultProperty(void) const
	?isDesignable@QDeclarativeProperty@@QBE_NXZ @ 1411 NONAME ; bool QDeclarativeProperty::isDesignable(void) const
	?isDesignable@QMetaPropertyBuilder@@QBE_NXZ @ 1412 NONAME ; bool QMetaPropertyBuilder::isDesignable(void) const
	?isDynamic@QMetaPropertyBuilder@@QBE_NXZ @ 1413 NONAME ; bool QMetaPropertyBuilder::isDynamic(void) const
	?isEditable@QMetaPropertyBuilder@@QBE_NXZ @ 1414 NONAME ; bool QMetaPropertyBuilder::isEditable(void) const
	?isEmpty@QDeclarativePropertyMap@@QBE_NXZ @ 1415 NONAME ; bool QDeclarativePropertyMap::isEmpty(void) const
	?isEmpty@QPacket@@QBE_NXZ @ 1416 NONAME ; bool QPacket::isEmpty(void) const
	?isEnabled@QDeclarativeDebugClient@@QBE_NXZ @ 1417 NONAME ; bool QDeclarativeDebugClient::isEnabled(void) const
	?isEnabled@QDeclarativeDebugService@@QBE_NXZ @ 1418 NONAME ; bool QDeclarativeDebugService::isEnabled(void) const
	?isEnabled@QDeclarativeMouseArea@@QBE_NXZ @ 1419 NONAME ; bool QDeclarativeMouseArea::isEnabled(void) const
	?isEnumOrFlag@QMetaPropertyBuilder@@QBE_NXZ @ 1420 NONAME ; bool QMetaPropertyBuilder::isEnumOrFlag(void) const
	?isError@QDeclarativeCompiler@@QBE_NXZ @ 1421 NONAME ; bool QDeclarativeCompiler::isError(void) const
	?isError@QDeclarativeComponent@@QBE_NXZ @ 1422 NONAME ; bool QDeclarativeComponent::isError(void) const
	?isExplicit@QDeclarativePropertyChanges@@QBE_NXZ @ 1423 NONAME ; bool QDeclarativePropertyChanges::isExplicit(void) const
	?isFlag@QMetaEnumBuilder@@QBE_NXZ @ 1424 NONAME ; bool QMetaEnumBuilder::isFlag(void) const
	?isFlicking@QDeclarativeFlickable@@QBE_NXZ @ 1425 NONAME ; bool QDeclarativeFlickable::isFlicking(void) const
	?isInteractive@QDeclarativeFlickable@@QBE_NXZ @ 1426 NONAME ; bool QDeclarativeFlickable::isInteractive(void) const
	?isInterface@QDeclarativeMetaType@@SA_NH@Z @ 1427 NONAME ; bool QDeclarativeMetaType::isInterface(int)
	?isInterface@QDeclarativeType@@QBE_NXZ @ 1428 NONAME ; bool QDeclarativeType::isInterface(void) const
	?isInvalid@QDeclarativeDomValue@@QBE_NXZ @ 1429 NONAME ; bool QDeclarativeDomValue::isInvalid(void) const
	?isKey@QDeclarativeXmlListModelRole@@QBE_NXZ @ 1430 NONAME ; bool QDeclarativeXmlListModelRole::isKey(void) const
	?isList@QDeclarativeCustomParserProperty@@QBE_NXZ @ 1431 NONAME ; bool QDeclarativeCustomParserProperty::isList(void) const
	?isList@QDeclarativeDomValue@@QBE_NXZ @ 1432 NONAME ; bool QDeclarativeDomValue::isList(void) const
	?isList@QDeclarativeMetaType@@SA_NH@Z @ 1433 NONAME ; bool QDeclarativeMetaType::isList(int)
	?isLiteral@QDeclarativeDomValue@@QBE_NXZ @ 1434 NONAME ; bool QDeclarativeDomValue::isLiteral(void) const
	?isLoading@QDeclarativeComponent@@QBE_NXZ @ 1435 NONAME ; bool QDeclarativeComponent::isLoading(void) const
	?isLoading@QDeclarativePixmapReply@@ABE_NXZ @ 1436 NONAME ; bool QDeclarativePixmapReply::isLoading(void) const
	?isMoving@QDeclarativeFlickable@@QBE_NXZ @ 1437 NONAME ; bool QDeclarativeFlickable::isMoving(void) const
	?isNull@QDeclarativeComponent@@QBE_NXZ @ 1438 NONAME ; bool QDeclarativeComponent::isNull(void) const
	?isNull@QDeclarativeScaleGrid@@QBE_NXZ @ 1439 NONAME ; bool QDeclarativeScaleGrid::isNull(void) const
	?isObject@QDeclarativeDomValue@@QBE_NXZ @ 1440 NONAME ; bool QDeclarativeDomValue::isObject(void) const
	?isPaused@QDeclarativeAnimatedImage@@QBE_NXZ @ 1441 NONAME ; bool QDeclarativeAnimatedImage::isPaused(void) const
	?isPlaying@QDeclarativeAnimatedImage@@QBE_NXZ @ 1442 NONAME ; bool QDeclarativeAnimatedImage::isPlaying(void) const
	?isProperty@QDeclarativeProperty@@QBE_NXZ @ 1443 NONAME ; bool QDeclarativeProperty::isProperty(void) const
	?isQObject@QDeclarativeMetaType@@SA_NH@Z @ 1444 NONAME ; bool QDeclarativeMetaType::isQObject(int)
	?isReadOnly@QDeclarativeTextEdit@@QBE_NXZ @ 1445 NONAME ; bool QDeclarativeTextEdit::isReadOnly(void) const
	?isReadOnly@QDeclarativeTextInput@@QBE_NXZ @ 1446 NONAME ; bool QDeclarativeTextInput::isReadOnly(void) const
	?isReadable@QMetaPropertyBuilder@@QBE_NXZ @ 1447 NONAME ; bool QMetaPropertyBuilder::isReadable(void) const
	?isReady@QDeclarativeComponent@@QBE_NXZ @ 1448 NONAME ; bool QDeclarativeComponent::isReady(void) const
	?isRepeating@QDeclarativeTimer@@QBE_NXZ @ 1449 NONAME ; bool QDeclarativeTimer::isRepeating(void) const
	?isResettable@QDeclarativeProperty@@QBE_NXZ @ 1450 NONAME ; bool QDeclarativeProperty::isResettable(void) const
	?isResettable@QMetaPropertyBuilder@@QBE_NXZ @ 1451 NONAME ; bool QMetaPropertyBuilder::isResettable(void) const
	?isReversable@QDeclarativeAnchorChanges@@UAE_NXZ @ 1452 NONAME ; bool QDeclarativeAnchorChanges::isReversable(void)
	?isReversable@QDeclarativeParentChange@@UAE_NXZ @ 1453 NONAME ; bool QDeclarativeParentChange::isReversable(void)
	?isRunning@QDeclarativeTimer@@QBE_NXZ @ 1454 NONAME ; bool QDeclarativeTimer::isRunning(void) const
	?isScriptable@QMetaPropertyBuilder@@QBE_NXZ @ 1455 NONAME ; bool QMetaPropertyBuilder::isScriptable(void) const
	?isSignalProperty@QDeclarativeProperty@@QBE_NXZ @ 1456 NONAME ; bool QDeclarativeProperty::isSignalProperty(void) const
	?isSignalPropertyName@QDeclarativeCompiler@@SA_NABVQByteArray@@@Z @ 1457 NONAME ; bool QDeclarativeCompiler::isSignalPropertyName(class QByteArray const &)
	?isStored@QMetaPropertyBuilder@@QBE_NXZ @ 1458 NONAME ; bool QMetaPropertyBuilder::isStored(void) const
	?isUser@QMetaPropertyBuilder@@QBE_NXZ @ 1459 NONAME ; bool QMetaPropertyBuilder::isUser(void) const
	?isValid@QDeclarativeDomDynamicProperty@@QBE_NXZ @ 1460 NONAME ; bool QDeclarativeDomDynamicProperty::isValid(void) const
	?isValid@QDeclarativeDomObject@@QBE_NXZ @ 1461 NONAME ; bool QDeclarativeDomObject::isValid(void) const
	?isValid@QDeclarativeDomProperty@@QBE_NXZ @ 1462 NONAME ; bool QDeclarativeDomProperty::isValid(void) const
	?isValid@QDeclarativeError@@QBE_NXZ @ 1463 NONAME ; bool QDeclarativeError::isValid(void) const
	?isValid@QDeclarativeGridScaledImage@@QBE_NXZ @ 1464 NONAME ; bool QDeclarativeGridScaledImage::isValid(void) const
	?isValid@QDeclarativeListAccessor@@QBE_NXZ @ 1465 NONAME ; bool QDeclarativeListAccessor::isValid(void) const
	?isValid@QDeclarativeListReference@@QBE_NXZ @ 1466 NONAME ; bool QDeclarativeListReference::isValid(void) const
	?isValid@QDeclarativePen@@QAE_NXZ @ 1467 NONAME ; bool QDeclarativePen::isValid(void)
	?isValid@QDeclarativeProperty@@QBE_NXZ @ 1468 NONAME ; bool QDeclarativeProperty::isValid(void) const
	?isValid@QDeclarativeVisualDataModel@@UBE_NXZ @ 1469 NONAME ; bool QDeclarativeVisualDataModel::isValid(void) const
	?isValid@QDeclarativeVisualItemModel@@UBE_NXZ @ 1470 NONAME ; bool QDeclarativeVisualItemModel::isValid(void) const
	?isValid@QDeclarativeXmlListModelRole@@QAE_NXZ @ 1471 NONAME ; bool QDeclarativeXmlListModelRole::isValid(void)
	?isValidId@QDeclarativeCompiler@@SA_NABVQString@@@Z @ 1472 NONAME ABSENT ; bool QDeclarativeCompiler::isValidId(class QString const &)
	?isValueInterceptor@QDeclarativeDomValue@@QBE_NXZ @ 1473 NONAME ; bool QDeclarativeDomValue::isValueInterceptor(void) const
	?isValueSource@QDeclarativeDomValue@@QBE_NXZ @ 1474 NONAME ; bool QDeclarativeDomValue::isValueSource(void) const
	?isWaiting@QDeclarativeDebugQuery@@QBE_NXZ @ 1475 NONAME ; bool QDeclarativeDebugQuery::isWaiting(void) const
	?isWhenKnown@QDeclarativeState@@QBE_NXZ @ 1476 NONAME ; bool QDeclarativeState::isWhenKnown(void) const
	?isWrapEnabled@QDeclarativeGridView@@QBE_NXZ @ 1477 NONAME ; bool QDeclarativeGridView::isWrapEnabled(void) const
	?isWrapEnabled@QDeclarativeListView@@QBE_NXZ @ 1478 NONAME ; bool QDeclarativeListView::isWrapEnabled(void) const
	?isWritable@QDeclarativeProperty@@QBE_NXZ @ 1479 NONAME ; bool QDeclarativeProperty::isWritable(void) const
	?isWritable@QMetaPropertyBuilder@@QBE_NXZ @ 1480 NONAME ; bool QMetaPropertyBuilder::isWritable(void) const
	?item@QDeclarativeLoader@@QBEPAVQGraphicsObject@@XZ @ 1481 NONAME ; class QGraphicsObject * QDeclarativeLoader::item(void) const
	?item@QDeclarativeVisualDataModel@@QAEPAVQDeclarativeItem@@HABVQByteArray@@_N@Z @ 1482 NONAME ; class QDeclarativeItem * QDeclarativeVisualDataModel::item(int, class QByteArray const &, bool)
	?item@QDeclarativeVisualDataModel@@UAEPAVQDeclarativeItem@@H_N@Z @ 1483 NONAME ; class QDeclarativeItem * QDeclarativeVisualDataModel::item(int, bool)
	?item@QDeclarativeVisualItemModel@@UAEPAVQDeclarativeItem@@H_N@Z @ 1484 NONAME ; class QDeclarativeItem * QDeclarativeVisualItemModel::item(int, bool)
	?itemChange@QDeclarativeBasePositioner@@MAE?AVQVariant@@W4GraphicsItemChange@QGraphicsItem@@ABV2@@Z @ 1485 NONAME ; class QVariant QDeclarativeBasePositioner::itemChange(enum QGraphicsItem::GraphicsItemChange, class QVariant const &)
	?itemChange@QDeclarativeGraphicsObjectContainer@@MAE?AVQVariant@@W4GraphicsItemChange@QGraphicsItem@@ABV2@@Z @ 1486 NONAME ABSENT ; class QVariant QDeclarativeGraphicsObjectContainer::itemChange(enum QGraphicsItem::GraphicsItemChange, class QVariant const &)
	?itemChange@QDeclarativeItem@@MAE?AVQVariant@@W4GraphicsItemChange@QGraphicsItem@@ABV2@@Z @ 1487 NONAME ; class QVariant QDeclarativeItem::itemChange(enum QGraphicsItem::GraphicsItemChange, class QVariant const &)
	?itemChange@QDeclarativeLoader@@MAE?AVQVariant@@W4GraphicsItemChange@QGraphicsItem@@ABV2@@Z @ 1488 NONAME ; class QVariant QDeclarativeLoader::itemChange(enum QGraphicsItem::GraphicsItemChange, class QVariant const &)
	?itemChange@QDeclarativeRepeater@@MAE?AVQVariant@@W4GraphicsItemChange@QGraphicsItem@@ABV2@@Z @ 1489 NONAME ; class QVariant QDeclarativeRepeater::itemChange(enum QGraphicsItem::GraphicsItemChange, class QVariant const &)
	?itemChanged@QDeclarativeLoader@@IAEXXZ @ 1490 NONAME ; void QDeclarativeLoader::itemChanged(void)
	?itemsChanged@QListModelInterface@@IAEXHHABV?$QList@H@@@Z @ 1491 NONAME ; void QListModelInterface::itemsChanged(int, int, class QList<int> const &)
	?itemsInserted@QDeclarativeGridView@@AAEXHH@Z @ 1492 NONAME ; void QDeclarativeGridView::itemsInserted(int, int)
	?itemsInserted@QDeclarativeListView@@AAEXHH@Z @ 1493 NONAME ; void QDeclarativeListView::itemsInserted(int, int)
	?itemsInserted@QDeclarativePathView@@AAEXHH@Z @ 1494 NONAME ; void QDeclarativePathView::itemsInserted(int, int)
	?itemsInserted@QDeclarativeRepeater@@AAEXHH@Z @ 1495 NONAME ; void QDeclarativeRepeater::itemsInserted(int, int)
	?itemsInserted@QDeclarativeVisualModel@@IAEXHH@Z @ 1496 NONAME ; void QDeclarativeVisualModel::itemsInserted(int, int)
	?itemsInserted@QListModelInterface@@IAEXHH@Z @ 1497 NONAME ; void QListModelInterface::itemsInserted(int, int)
	?itemsMoved@QDeclarativeGridView@@AAEXHHH@Z @ 1498 NONAME ; void QDeclarativeGridView::itemsMoved(int, int, int)
	?itemsMoved@QDeclarativeListView@@AAEXHHH@Z @ 1499 NONAME ; void QDeclarativeListView::itemsMoved(int, int, int)
	?itemsMoved@QDeclarativeRepeater@@AAEXHHH@Z @ 1500 NONAME ; void QDeclarativeRepeater::itemsMoved(int, int, int)
	?itemsMoved@QDeclarativeVisualModel@@IAEXHHH@Z @ 1501 NONAME ; void QDeclarativeVisualModel::itemsMoved(int, int, int)
	?itemsMoved@QListModelInterface@@IAEXHHH@Z @ 1502 NONAME ; void QListModelInterface::itemsMoved(int, int, int)
	?itemsRemoved@QDeclarativeGridView@@AAEXHH@Z @ 1503 NONAME ; void QDeclarativeGridView::itemsRemoved(int, int)
	?itemsRemoved@QDeclarativeListView@@AAEXHH@Z @ 1504 NONAME ; void QDeclarativeListView::itemsRemoved(int, int)
	?itemsRemoved@QDeclarativePathView@@AAEXHH@Z @ 1505 NONAME ; void QDeclarativePathView::itemsRemoved(int, int)
	?itemsRemoved@QDeclarativeRepeater@@AAEXHH@Z @ 1506 NONAME ; void QDeclarativeRepeater::itemsRemoved(int, int)
	?itemsRemoved@QDeclarativeVisualModel@@IAEXHH@Z @ 1507 NONAME ; void QDeclarativeVisualModel::itemsRemoved(int, int)
	?itemsRemoved@QListModelInterface@@IAEXHH@Z @ 1508 NONAME ; void QListModelInterface::itemsRemoved(int, int)
	?javaScriptAlert@QDeclarativeWebPage@@MAEXPAVQWebFrame@@ABVQString@@@Z @ 1509 NONAME ABSENT ; void QDeclarativeWebPage::javaScriptAlert(class QWebFrame *, class QString const &)
	?javaScriptConfirm@QDeclarativeWebPage@@MAE_NPAVQWebFrame@@ABVQString@@@Z @ 1510 NONAME ABSENT ; bool QDeclarativeWebPage::javaScriptConfirm(class QWebFrame *, class QString const &)
	?javaScriptConsoleMessage@QDeclarativeWebPage@@MAEXABVQString@@H0@Z @ 1511 NONAME ABSENT ; void QDeclarativeWebPage::javaScriptConsoleMessage(class QString const &, int, class QString const &)
	?javaScriptPrompt@QDeclarativeWebPage@@MAE_NPAVQWebFrame@@ABVQString@@1PAV3@@Z @ 1512 NONAME ABSENT ; bool QDeclarativeWebPage::javaScriptPrompt(class QWebFrame *, class QString const &, class QString const &, class QString *)
	?javaScriptWindowObjects@QDeclarativeWebView@@QAE?AU?$QDeclarativeListProperty@VQObject@@@@XZ @ 1513 NONAME ABSENT ; struct QDeclarativeListProperty<class QObject> QDeclarativeWebView::javaScriptWindowObjects(void)
	?keepMouseGrab@QDeclarativeItem@@QBE_NXZ @ 1514 NONAME ; bool QDeclarativeItem::keepMouseGrab(void) const
	?key@QMetaEnumBuilder@@QBE?AVQByteArray@@H@Z @ 1515 NONAME ; class QByteArray QMetaEnumBuilder::key(int) const
	?keyCount@QMetaEnumBuilder@@QBEHXZ @ 1516 NONAME ; int QMetaEnumBuilder::keyCount(void) const
	?keyPressEvent@QDeclarativeGridView@@MAEXPAVQKeyEvent@@@Z @ 1517 NONAME ; void QDeclarativeGridView::keyPressEvent(class QKeyEvent *)
	?keyPressEvent@QDeclarativeItem@@MAEXPAVQKeyEvent@@@Z @ 1518 NONAME ; void QDeclarativeItem::keyPressEvent(class QKeyEvent *)
	?keyPressEvent@QDeclarativeListView@@MAEXPAVQKeyEvent@@@Z @ 1519 NONAME ; void QDeclarativeListView::keyPressEvent(class QKeyEvent *)
	?keyPressEvent@QDeclarativeTextEdit@@MAEXPAVQKeyEvent@@@Z @ 1520 NONAME ; void QDeclarativeTextEdit::keyPressEvent(class QKeyEvent *)
	?keyPressEvent@QDeclarativeTextInput@@MAEXPAVQKeyEvent@@@Z @ 1521 NONAME ; void QDeclarativeTextInput::keyPressEvent(class QKeyEvent *)
	?keyPressEvent@QDeclarativeWebView@@MAEXPAVQKeyEvent@@@Z @ 1522 NONAME ABSENT ; void QDeclarativeWebView::keyPressEvent(class QKeyEvent *)
	?keyReleaseEvent@QDeclarativeItem@@MAEXPAVQKeyEvent@@@Z @ 1523 NONAME ; void QDeclarativeItem::keyReleaseEvent(class QKeyEvent *)
	?keyReleaseEvent@QDeclarativeTextEdit@@MAEXPAVQKeyEvent@@@Z @ 1524 NONAME ; void QDeclarativeTextEdit::keyReleaseEvent(class QKeyEvent *)
	?keyReleaseEvent@QDeclarativeWebView@@MAEXPAVQKeyEvent@@@Z @ 1525 NONAME ABSENT ; void QDeclarativeWebView::keyReleaseEvent(class QKeyEvent *)
	?keys@QDeclarativePropertyMap@@QBE?AVQStringList@@XZ @ 1526 NONAME ; class QStringList QDeclarativePropertyMap::keys(void) const
	?layout@QDeclarativeGridView@@AAEXXZ @ 1527 NONAME ABSENT ; void QDeclarativeGridView::layout(void)
	?left@QDeclarativeAnchorChanges@@QBE?AVQDeclarativeAnchorLine@@XZ @ 1528 NONAME ABSENT ; class QDeclarativeAnchorLine QDeclarativeAnchorChanges::left(void) const
	?left@QDeclarativeAnchors@@QBE?AVQDeclarativeAnchorLine@@XZ @ 1529 NONAME ABSENT ; class QDeclarativeAnchorLine QDeclarativeAnchors::left(void) const
	?left@QDeclarativeItem@@QBE?AVQDeclarativeAnchorLine@@XZ @ 1530 NONAME ABSENT ; class QDeclarativeAnchorLine QDeclarativeItem::left(void) const
	?left@QDeclarativeScaleGrid@@QBEHXZ @ 1531 NONAME ; int QDeclarativeScaleGrid::left(void) const
	?leftChanged@QDeclarativeAnchors@@IAEXXZ @ 1532 NONAME ; void QDeclarativeAnchors::leftChanged(void)
	?leftMargin@QDeclarativeAnchors@@QBEMXZ @ 1533 NONAME ; float QDeclarativeAnchors::leftMargin(void) const
	?leftMarginChanged@QDeclarativeAnchors@@IAEXXZ @ 1534 NONAME ; void QDeclarativeAnchors::leftMarginChanged(void)
	?length@QDeclarativeDomDynamicProperty@@QBEHXZ @ 1535 NONAME ; int QDeclarativeDomDynamicProperty::length(void) const
	?length@QDeclarativeDomList@@QBEHXZ @ 1536 NONAME ; int QDeclarativeDomList::length(void) const
	?length@QDeclarativeDomObject@@QBEHXZ @ 1537 NONAME ; int QDeclarativeDomObject::length(void) const
	?length@QDeclarativeDomProperty@@QBEHXZ @ 1538 NONAME ; int QDeclarativeDomProperty::length(void) const
	?length@QDeclarativeDomValue@@QBEHXZ @ 1539 NONAME ; int QDeclarativeDomValue::length(void) const
	?lifeSpan@QDeclarativeParticles@@QBEHXZ @ 1540 NONAME ABSENT ; int QDeclarativeParticles::lifeSpan(void) const
	?lifeSpanChanged@QDeclarativeParticles@@IAEXXZ @ 1541 NONAME ABSENT ; void QDeclarativeParticles::lifeSpanChanged(void)
	?lifeSpanDeviation@QDeclarativeParticles@@QBEHXZ @ 1542 NONAME ABSENT ; int QDeclarativeParticles::lifeSpanDeviation(void) const
	?lifeSpanDeviationChanged@QDeclarativeParticles@@IAEXXZ @ 1543 NONAME ABSENT ; void QDeclarativeParticles::lifeSpanDeviationChanged(void)
	?light@QDeclarativeSystemPalette@@QBE?AVQColor@@XZ @ 1544 NONAME ; class QColor QDeclarativeSystemPalette::light(void) const
	?line@QDeclarativeError@@QBEHXZ @ 1545 NONAME ; int QDeclarativeError::line(void) const
	?lineNumber@QDeclarativeDebugFileReference@@QBEHXZ @ 1546 NONAME ; int QDeclarativeDebugFileReference::lineNumber(void) const
	?lineNumber@QDeclarativeExpression@@QBEHXZ @ 1547 NONAME ; int QDeclarativeExpression::lineNumber(void) const
	?linkActivated@QDeclarativeText@@IAEXABVQString@@@Z @ 1548 NONAME ; void QDeclarativeText::linkActivated(class QString const &)
	?list@QDeclarativeListAccessor@@QBE?AVQVariant@@XZ @ 1549 NONAME ; class QVariant QDeclarativeListAccessor::list(void) const
	?listElementType@QDeclarativeListReference@@QBEPBUQMetaObject@@XZ @ 1550 NONAME ; struct QMetaObject const * QDeclarativeListReference::listElementType(void) const
	?listType@QDeclarativeMetaType@@SAHH@Z @ 1551 NONAME ; int QDeclarativeMetaType::listType(int)
	?literal@QDeclarativeDomValueLiteral@@QBE?AVQString@@XZ @ 1552 NONAME ; class QString QDeclarativeDomValueLiteral::literal(void) const
	?load@QDeclarativeBorderImage@@MAEXXZ @ 1553 NONAME ; void QDeclarativeBorderImage::load(void)
	?load@QDeclarativeDomDocument@@QAE_NPAVQDeclarativeEngine@@ABVQByteArray@@ABVQUrl@@@Z @ 1554 NONAME ; bool QDeclarativeDomDocument::load(class QDeclarativeEngine *, class QByteArray const &, class QUrl const &)
	?load@QDeclarativeImageBase@@MAEXXZ @ 1555 NONAME ; void QDeclarativeImageBase::load(void)
	?load@QDeclarativeWebView@@QAEXABVQNetworkRequest@@W4Operation@QNetworkAccessManager@@ABVQByteArray@@@Z @ 1556 NONAME ABSENT ; void QDeclarativeWebView::load(class QNetworkRequest const &, enum QNetworkAccessManager::Operation, class QByteArray const &)
	?loadCursorDelegate@QDeclarativeTextEdit@@AAEXXZ @ 1557 NONAME ; void QDeclarativeTextEdit::loadCursorDelegate(void)
	?loadFailed@QDeclarativeWebView@@IAEXXZ @ 1558 NONAME ABSENT ; void QDeclarativeWebView::loadFailed(void)
	?loadFinished@QDeclarativeWebView@@IAEXXZ @ 1559 NONAME ABSENT ; void QDeclarativeWebView::loadFinished(void)
	?loadStarted@QDeclarativeWebView@@IAEXXZ @ 1560 NONAME ABSENT ; void QDeclarativeWebView::loadStarted(void)
	?loadUrl@QDeclarativeComponent@@QAEXABVQUrl@@@Z @ 1561 NONAME ; void QDeclarativeComponent::loadUrl(class QUrl const &)
	?location@QDeclarativeCustomParserNode@@QBE?AULocation@QDeclarativeParser@@XZ @ 1562 NONAME ; struct QDeclarativeParser::Location QDeclarativeCustomParserNode::location(void) const
	?location@QDeclarativeCustomParserProperty@@QBE?AULocation@QDeclarativeParser@@XZ @ 1563 NONAME ; struct QDeclarativeParser::Location QDeclarativeCustomParserProperty::location(void) const
	?longStyle@QDeclarativeDateTimeFormatter@@QBE_NXZ @ 1564 NONAME ABSENT ; bool QDeclarativeDateTimeFormatter::longStyle(void) const
	?majorVersion@QDeclarativeType@@QBEHXZ @ 1565 NONAME ; int QDeclarativeType::majorVersion(void) const
	?margins@QDeclarativeAnchors@@QBEMXZ @ 1566 NONAME ; float QDeclarativeAnchors::margins(void) const
	?marginsChanged@QDeclarativeAnchors@@IAEXXZ @ 1567 NONAME ; void QDeclarativeAnchors::marginsChanged(void)
	?mass@QDeclarativeSpringFollow@@QBEMXZ @ 1568 NONAME ; float QDeclarativeSpringFollow::mass(void) const
	?massChanged@QDeclarativeSpringFollow@@IAEXXZ @ 1569 NONAME ; void QDeclarativeSpringFollow::massChanged(void)
	?maxLength@QDeclarativeTextInput@@QBEHXZ @ 1570 NONAME ; int QDeclarativeTextInput::maxLength(void) const
	?maxXExtent@QDeclarativeFlickable@@MBEMXZ @ 1571 NONAME ; float QDeclarativeFlickable::maxXExtent(void) const
	?maxXExtent@QDeclarativeGridView@@MBEMXZ @ 1572 NONAME ; float QDeclarativeGridView::maxXExtent(void) const
	?maxXExtent@QDeclarativeListView@@MBEMXZ @ 1573 NONAME ; float QDeclarativeListView::maxXExtent(void) const
	?maxYExtent@QDeclarativeFlickable@@MBEMXZ @ 1574 NONAME ; float QDeclarativeFlickable::maxYExtent(void) const
	?maxYExtent@QDeclarativeGridView@@MBEMXZ @ 1575 NONAME ; float QDeclarativeGridView::maxYExtent(void) const
	?maxYExtent@QDeclarativeListView@@MBEMXZ @ 1576 NONAME ; float QDeclarativeListView::maxYExtent(void) const
	?maximumEasingTime@QDeclarativeEaseFollow@@QBEMXZ @ 1577 NONAME ABSENT ; float QDeclarativeEaseFollow::maximumEasingTime(void) const
	?maximumEasingTimeChanged@QDeclarativeEaseFollow@@IAEXXZ @ 1578 NONAME ABSENT ; void QDeclarativeEaseFollow::maximumEasingTimeChanged(void)
	?maximumFlickVelocity@QDeclarativeFlickable@@QBEMXZ @ 1579 NONAME ; float QDeclarativeFlickable::maximumFlickVelocity(void) const
	?maximumFlickVelocityChanged@QDeclarativeFlickable@@IAEXXZ @ 1580 NONAME ; void QDeclarativeFlickable::maximumFlickVelocityChanged(void)
	?maximumLengthChanged@QDeclarativeTextInput@@IAEXH@Z @ 1581 NONAME ; void QDeclarativeTextInput::maximumLengthChanged(int)
	?maximumPacketSize@QPacketProtocol@@QBEHXZ @ 1582 NONAME ; int QPacketProtocol::maximumPacketSize(void) const
	?maximumXChanged@QDeclarativeDrag@@IAEXXZ @ 1583 NONAME ; void QDeclarativeDrag::maximumXChanged(void)
	?maximumYChanged@QDeclarativeDrag@@IAEXXZ @ 1584 NONAME ; void QDeclarativeDrag::maximumYChanged(void)
	?mergeDynamicMetaProperties@QDeclarativeCompiler@@AAE_NPAVObject@QDeclarativeParser@@@Z @ 1585 NONAME ; bool QDeclarativeCompiler::mergeDynamicMetaProperties(class QDeclarativeParser::Object *)
	?messageReceived@QDeclarativeDebugClient@@MAEXABVQByteArray@@@Z @ 1586 NONAME ; void QDeclarativeDebugClient::messageReceived(class QByteArray const &)
	?messageReceived@QDeclarativeDebugService@@MAEXABVQByteArray@@@Z @ 1587 NONAME ; void QDeclarativeDebugService::messageReceived(class QByteArray const &)
	?metaCall@QDeclarativeOpenMetaObject@@MAEHW4Call@QMetaObject@@HPAPAX@Z @ 1588 NONAME ; int QDeclarativeOpenMetaObject::metaCall(enum QMetaObject::Call, int, void * *)
	?metaObject@QDeclarativeAnchorChanges@@UBEPBUQMetaObject@@XZ @ 1589 NONAME ; struct QMetaObject const * QDeclarativeAnchorChanges::metaObject(void) const
	?metaObject@QDeclarativeAnchors@@UBEPBUQMetaObject@@XZ @ 1590 NONAME ; struct QMetaObject const * QDeclarativeAnchors::metaObject(void) const
	?metaObject@QDeclarativeAnimatedImage@@UBEPBUQMetaObject@@XZ @ 1591 NONAME ; struct QMetaObject const * QDeclarativeAnimatedImage::metaObject(void) const
	?metaObject@QDeclarativeBasePositioner@@UBEPBUQMetaObject@@XZ @ 1592 NONAME ; struct QMetaObject const * QDeclarativeBasePositioner::metaObject(void) const
	?metaObject@QDeclarativeBehavior@@UBEPBUQMetaObject@@XZ @ 1593 NONAME ; struct QMetaObject const * QDeclarativeBehavior::metaObject(void) const
	?metaObject@QDeclarativeBind@@UBEPBUQMetaObject@@XZ @ 1594 NONAME ; struct QMetaObject const * QDeclarativeBind::metaObject(void) const
	?metaObject@QDeclarativeBorderImage@@UBEPBUQMetaObject@@XZ @ 1595 NONAME ; struct QMetaObject const * QDeclarativeBorderImage::metaObject(void) const
	?metaObject@QDeclarativeColumn@@UBEPBUQMetaObject@@XZ @ 1596 NONAME ; struct QMetaObject const * QDeclarativeColumn::metaObject(void) const
	?metaObject@QDeclarativeComponent@@UBEPBUQMetaObject@@XZ @ 1597 NONAME ; struct QMetaObject const * QDeclarativeComponent::metaObject(void) const
	?metaObject@QDeclarativeConnections@@UBEPBUQMetaObject@@XZ @ 1598 NONAME ; struct QMetaObject const * QDeclarativeConnections::metaObject(void) const
	?metaObject@QDeclarativeContext@@UBEPBUQMetaObject@@XZ @ 1599 NONAME ; struct QMetaObject const * QDeclarativeContext::metaObject(void) const
	?metaObject@QDeclarativeCurve@@UBEPBUQMetaObject@@XZ @ 1600 NONAME ; struct QMetaObject const * QDeclarativeCurve::metaObject(void) const
	?metaObject@QDeclarativeDateTimeFormatter@@UBEPBUQMetaObject@@XZ @ 1601 NONAME ABSENT ; struct QMetaObject const * QDeclarativeDateTimeFormatter::metaObject(void) const
	?metaObject@QDeclarativeDebugClient@@UBEPBUQMetaObject@@XZ @ 1602 NONAME ; struct QMetaObject const * QDeclarativeDebugClient::metaObject(void) const
	?metaObject@QDeclarativeDebugConnection@@UBEPBUQMetaObject@@XZ @ 1603 NONAME ; struct QMetaObject const * QDeclarativeDebugConnection::metaObject(void) const
	?metaObject@QDeclarativeDebugEnginesQuery@@UBEPBUQMetaObject@@XZ @ 1604 NONAME ; struct QMetaObject const * QDeclarativeDebugEnginesQuery::metaObject(void) const
	?metaObject@QDeclarativeDebugExpressionQuery@@UBEPBUQMetaObject@@XZ @ 1605 NONAME ; struct QMetaObject const * QDeclarativeDebugExpressionQuery::metaObject(void) const
	?metaObject@QDeclarativeDebugObjectExpressionWatch@@UBEPBUQMetaObject@@XZ @ 1606 NONAME ; struct QMetaObject const * QDeclarativeDebugObjectExpressionWatch::metaObject(void) const
	?metaObject@QDeclarativeDebugObjectQuery@@UBEPBUQMetaObject@@XZ @ 1607 NONAME ; struct QMetaObject const * QDeclarativeDebugObjectQuery::metaObject(void) const
	?metaObject@QDeclarativeDebugPropertyWatch@@UBEPBUQMetaObject@@XZ @ 1608 NONAME ; struct QMetaObject const * QDeclarativeDebugPropertyWatch::metaObject(void) const
	?metaObject@QDeclarativeDebugQuery@@UBEPBUQMetaObject@@XZ @ 1609 NONAME ; struct QMetaObject const * QDeclarativeDebugQuery::metaObject(void) const
	?metaObject@QDeclarativeDebugRootContextQuery@@UBEPBUQMetaObject@@XZ @ 1610 NONAME ; struct QMetaObject const * QDeclarativeDebugRootContextQuery::metaObject(void) const
	?metaObject@QDeclarativeDebugService@@UBEPBUQMetaObject@@XZ @ 1611 NONAME ; struct QMetaObject const * QDeclarativeDebugService::metaObject(void) const
	?metaObject@QDeclarativeDebugWatch@@UBEPBUQMetaObject@@XZ @ 1612 NONAME ; struct QMetaObject const * QDeclarativeDebugWatch::metaObject(void) const
	?metaObject@QDeclarativeDrag@@UBEPBUQMetaObject@@XZ @ 1613 NONAME ; struct QMetaObject const * QDeclarativeDrag::metaObject(void) const
	?metaObject@QDeclarativeEaseFollow@@UBEPBUQMetaObject@@XZ @ 1614 NONAME ABSENT ; struct QMetaObject const * QDeclarativeEaseFollow::metaObject(void) const
	?metaObject@QDeclarativeEngine@@UBEPBUQMetaObject@@XZ @ 1615 NONAME ; struct QMetaObject const * QDeclarativeEngine::metaObject(void) const
	?metaObject@QDeclarativeEngineDebug@@UBEPBUQMetaObject@@XZ @ 1616 NONAME ; struct QMetaObject const * QDeclarativeEngineDebug::metaObject(void) const
	?metaObject@QDeclarativeExpression@@UBEPBUQMetaObject@@XZ @ 1617 NONAME ; struct QMetaObject const * QDeclarativeExpression::metaObject(void) const
	?metaObject@QDeclarativeExtensionPlugin@@UBEPBUQMetaObject@@XZ @ 1618 NONAME ; struct QMetaObject const * QDeclarativeExtensionPlugin::metaObject(void) const
	?metaObject@QDeclarativeFlickable@@UBEPBUQMetaObject@@XZ @ 1619 NONAME ; struct QMetaObject const * QDeclarativeFlickable::metaObject(void) const
	?metaObject@QDeclarativeFlipable@@UBEPBUQMetaObject@@XZ @ 1620 NONAME ; struct QMetaObject const * QDeclarativeFlipable::metaObject(void) const
	?metaObject@QDeclarativeFlow@@UBEPBUQMetaObject@@XZ @ 1621 NONAME ; struct QMetaObject const * QDeclarativeFlow::metaObject(void) const
	?metaObject@QDeclarativeFocusPanel@@UBEPBUQMetaObject@@XZ @ 1622 NONAME ; struct QMetaObject const * QDeclarativeFocusPanel::metaObject(void) const
	?metaObject@QDeclarativeFocusScope@@UBEPBUQMetaObject@@XZ @ 1623 NONAME ; struct QMetaObject const * QDeclarativeFocusScope::metaObject(void) const
	?metaObject@QDeclarativeFontLoader@@UBEPBUQMetaObject@@XZ @ 1624 NONAME ; struct QMetaObject const * QDeclarativeFontLoader::metaObject(void) const
	?metaObject@QDeclarativeGradient@@UBEPBUQMetaObject@@XZ @ 1625 NONAME ; struct QMetaObject const * QDeclarativeGradient::metaObject(void) const
	?metaObject@QDeclarativeGradientStop@@UBEPBUQMetaObject@@XZ @ 1626 NONAME ; struct QMetaObject const * QDeclarativeGradientStop::metaObject(void) const
	?metaObject@QDeclarativeGraphicsObjectContainer@@UBEPBUQMetaObject@@XZ @ 1627 NONAME ABSENT ; struct QMetaObject const * QDeclarativeGraphicsObjectContainer::metaObject(void) const
	?metaObject@QDeclarativeGrid@@UBEPBUQMetaObject@@XZ @ 1628 NONAME ; struct QMetaObject const * QDeclarativeGrid::metaObject(void) const
	?metaObject@QDeclarativeGridView@@UBEPBUQMetaObject@@XZ @ 1629 NONAME ; struct QMetaObject const * QDeclarativeGridView::metaObject(void) const
	?metaObject@QDeclarativeImage@@UBEPBUQMetaObject@@XZ @ 1630 NONAME ; struct QMetaObject const * QDeclarativeImage::metaObject(void) const
	?metaObject@QDeclarativeImageBase@@UBEPBUQMetaObject@@XZ @ 1631 NONAME ; struct QMetaObject const * QDeclarativeImageBase::metaObject(void) const
	?metaObject@QDeclarativeItem@@UBEPBUQMetaObject@@XZ @ 1632 NONAME ; struct QMetaObject const * QDeclarativeItem::metaObject(void) const
	?metaObject@QDeclarativeListModel@@UBEPBUQMetaObject@@XZ @ 1633 NONAME ; struct QMetaObject const * QDeclarativeListModel::metaObject(void) const
	?metaObject@QDeclarativeListView@@UBEPBUQMetaObject@@XZ @ 1634 NONAME ; struct QMetaObject const * QDeclarativeListView::metaObject(void) const
	?metaObject@QDeclarativeLoader@@UBEPBUQMetaObject@@XZ @ 1635 NONAME ; struct QMetaObject const * QDeclarativeLoader::metaObject(void) const
	?metaObject@QDeclarativeMouseArea@@UBEPBUQMetaObject@@XZ @ 1636 NONAME ; struct QMetaObject const * QDeclarativeMouseArea::metaObject(void) const
	?metaObject@QDeclarativeNumberFormatter@@UBEPBUQMetaObject@@XZ @ 1637 NONAME ABSENT ; struct QMetaObject const * QDeclarativeNumberFormatter::metaObject(void) const
	?metaObject@QDeclarativePaintedItem@@UBEPBUQMetaObject@@XZ @ 1638 NONAME ; struct QMetaObject const * QDeclarativePaintedItem::metaObject(void) const
	?metaObject@QDeclarativeParentChange@@UBEPBUQMetaObject@@XZ @ 1639 NONAME ; struct QMetaObject const * QDeclarativeParentChange::metaObject(void) const
	?metaObject@QDeclarativeParticleMotion@@UBEPBUQMetaObject@@XZ @ 1640 NONAME ABSENT ; struct QMetaObject const * QDeclarativeParticleMotion::metaObject(void) const
	?metaObject@QDeclarativeParticleMotionGravity@@UBEPBUQMetaObject@@XZ @ 1641 NONAME ABSENT ; struct QMetaObject const * QDeclarativeParticleMotionGravity::metaObject(void) const
	?metaObject@QDeclarativeParticleMotionLinear@@UBEPBUQMetaObject@@XZ @ 1642 NONAME ABSENT ; struct QMetaObject const * QDeclarativeParticleMotionLinear::metaObject(void) const
	?metaObject@QDeclarativeParticleMotionWander@@UBEPBUQMetaObject@@XZ @ 1643 NONAME ABSENT ; struct QMetaObject const * QDeclarativeParticleMotionWander::metaObject(void) const
	?metaObject@QDeclarativeParticles@@UBEPBUQMetaObject@@XZ @ 1644 NONAME ABSENT ; struct QMetaObject const * QDeclarativeParticles::metaObject(void) const
	?metaObject@QDeclarativePath@@UBEPBUQMetaObject@@XZ @ 1645 NONAME ; struct QMetaObject const * QDeclarativePath::metaObject(void) const
	?metaObject@QDeclarativePathAttribute@@UBEPBUQMetaObject@@XZ @ 1646 NONAME ; struct QMetaObject const * QDeclarativePathAttribute::metaObject(void) const
	?metaObject@QDeclarativePathCubic@@UBEPBUQMetaObject@@XZ @ 1647 NONAME ; struct QMetaObject const * QDeclarativePathCubic::metaObject(void) const
	?metaObject@QDeclarativePathElement@@UBEPBUQMetaObject@@XZ @ 1648 NONAME ; struct QMetaObject const * QDeclarativePathElement::metaObject(void) const
	?metaObject@QDeclarativePathLine@@UBEPBUQMetaObject@@XZ @ 1649 NONAME ; struct QMetaObject const * QDeclarativePathLine::metaObject(void) const
	?metaObject@QDeclarativePathPercent@@UBEPBUQMetaObject@@XZ @ 1650 NONAME ; struct QMetaObject const * QDeclarativePathPercent::metaObject(void) const
	?metaObject@QDeclarativePathQuad@@UBEPBUQMetaObject@@XZ @ 1651 NONAME ; struct QMetaObject const * QDeclarativePathQuad::metaObject(void) const
	?metaObject@QDeclarativePathView@@UBEPBUQMetaObject@@XZ @ 1652 NONAME ; struct QMetaObject const * QDeclarativePathView::metaObject(void) const
	?metaObject@QDeclarativePen@@UBEPBUQMetaObject@@XZ @ 1653 NONAME ; struct QMetaObject const * QDeclarativePen::metaObject(void) const
	?metaObject@QDeclarativePixmapReply@@UBEPBUQMetaObject@@XZ @ 1654 NONAME ; struct QMetaObject const * QDeclarativePixmapReply::metaObject(void) const
	?metaObject@QDeclarativePropertyChanges@@UBEPBUQMetaObject@@XZ @ 1655 NONAME ; struct QMetaObject const * QDeclarativePropertyChanges::metaObject(void) const
	?metaObject@QDeclarativePropertyMap@@UBEPBUQMetaObject@@XZ @ 1656 NONAME ; struct QMetaObject const * QDeclarativePropertyMap::metaObject(void) const
	?metaObject@QDeclarativeRectangle@@UBEPBUQMetaObject@@XZ @ 1657 NONAME ; struct QMetaObject const * QDeclarativeRectangle::metaObject(void) const
	?metaObject@QDeclarativeRepeater@@UBEPBUQMetaObject@@XZ @ 1658 NONAME ; struct QMetaObject const * QDeclarativeRepeater::metaObject(void) const
	?metaObject@QDeclarativeRow@@UBEPBUQMetaObject@@XZ @ 1659 NONAME ; struct QMetaObject const * QDeclarativeRow::metaObject(void) const
	?metaObject@QDeclarativeScaleGrid@@UBEPBUQMetaObject@@XZ @ 1660 NONAME ; struct QMetaObject const * QDeclarativeScaleGrid::metaObject(void) const
	?metaObject@QDeclarativeSpringFollow@@UBEPBUQMetaObject@@XZ @ 1661 NONAME ; struct QMetaObject const * QDeclarativeSpringFollow::metaObject(void) const
	?metaObject@QDeclarativeState@@UBEPBUQMetaObject@@XZ @ 1662 NONAME ; struct QMetaObject const * QDeclarativeState::metaObject(void) const
	?metaObject@QDeclarativeStateChangeScript@@UBEPBUQMetaObject@@XZ @ 1663 NONAME ; struct QMetaObject const * QDeclarativeStateChangeScript::metaObject(void) const
	?metaObject@QDeclarativeStateGroup@@UBEPBUQMetaObject@@XZ @ 1664 NONAME ; struct QMetaObject const * QDeclarativeStateGroup::metaObject(void) const
	?metaObject@QDeclarativeStateOperation@@UBEPBUQMetaObject@@XZ @ 1665 NONAME ; struct QMetaObject const * QDeclarativeStateOperation::metaObject(void) const
	?metaObject@QDeclarativeSystemPalette@@UBEPBUQMetaObject@@XZ @ 1666 NONAME ; struct QMetaObject const * QDeclarativeSystemPalette::metaObject(void) const
	?metaObject@QDeclarativeText@@UBEPBUQMetaObject@@XZ @ 1667 NONAME ; struct QMetaObject const * QDeclarativeText::metaObject(void) const
	?metaObject@QDeclarativeTextEdit@@UBEPBUQMetaObject@@XZ @ 1668 NONAME ; struct QMetaObject const * QDeclarativeTextEdit::metaObject(void) const
	?metaObject@QDeclarativeTextInput@@UBEPBUQMetaObject@@XZ @ 1669 NONAME ; struct QMetaObject const * QDeclarativeTextInput::metaObject(void) const
	?metaObject@QDeclarativeTimer@@UBEPBUQMetaObject@@XZ @ 1670 NONAME ; struct QMetaObject const * QDeclarativeTimer::metaObject(void) const
	?metaObject@QDeclarativeTransition@@UBEPBUQMetaObject@@XZ @ 1671 NONAME ; struct QMetaObject const * QDeclarativeTransition::metaObject(void) const
	?metaObject@QDeclarativeType@@QBEPBUQMetaObject@@XZ @ 1672 NONAME ; struct QMetaObject const * QDeclarativeType::metaObject(void) const
	?metaObject@QDeclarativeValueType@@UBEPBUQMetaObject@@XZ @ 1673 NONAME ; struct QMetaObject const * QDeclarativeValueType::metaObject(void) const
	?metaObject@QDeclarativeView@@UBEPBUQMetaObject@@XZ @ 1674 NONAME ; struct QMetaObject const * QDeclarativeView::metaObject(void) const
	?metaObject@QDeclarativeViewSection@@UBEPBUQMetaObject@@XZ @ 1675 NONAME ; struct QMetaObject const * QDeclarativeViewSection::metaObject(void) const
	?metaObject@QDeclarativeVisualDataModel@@UBEPBUQMetaObject@@XZ @ 1676 NONAME ; struct QMetaObject const * QDeclarativeVisualDataModel::metaObject(void) const
	?metaObject@QDeclarativeVisualItemModel@@UBEPBUQMetaObject@@XZ @ 1677 NONAME ; struct QMetaObject const * QDeclarativeVisualItemModel::metaObject(void) const
	?metaObject@QDeclarativeVisualModel@@UBEPBUQMetaObject@@XZ @ 1678 NONAME ; struct QMetaObject const * QDeclarativeVisualModel::metaObject(void) const
	?metaObject@QDeclarativeWebPage@@UBEPBUQMetaObject@@XZ @ 1679 NONAME ABSENT ; struct QMetaObject const * QDeclarativeWebPage::metaObject(void) const
	?metaObject@QDeclarativeWebView@@UBEPBUQMetaObject@@XZ @ 1680 NONAME ABSENT ; struct QMetaObject const * QDeclarativeWebView::metaObject(void) const
	?metaObject@QDeclarativeXmlListModel@@UBEPBUQMetaObject@@XZ @ 1681 NONAME ; struct QMetaObject const * QDeclarativeXmlListModel::metaObject(void) const
	?metaObject@QDeclarativeXmlListModelRole@@UBEPBUQMetaObject@@XZ @ 1682 NONAME ; struct QMetaObject const * QDeclarativeXmlListModelRole::metaObject(void) const
	?metaObject@QListModelInterface@@UBEPBUQMetaObject@@XZ @ 1683 NONAME ; struct QMetaObject const * QListModelInterface::metaObject(void) const
	?metaObject@QPacketProtocol@@UBEPBUQMetaObject@@XZ @ 1684 NONAME ; struct QMetaObject const * QPacketProtocol::metaObject(void) const
	?method@QDeclarativeProperty@@QBE?AVQMetaMethod@@XZ @ 1685 NONAME ; class QMetaMethod QDeclarativeProperty::method(void) const
	?method@QMetaObjectBuilder@@QBE?AVQMetaMethodBuilder@@H@Z @ 1686 NONAME ; class QMetaMethodBuilder QMetaObjectBuilder::method(int) const
	?methodCount@QMetaObjectBuilder@@QBEHXZ @ 1687 NONAME ; int QMetaObjectBuilder::methodCount(void) const
	?methodType@QMetaMethodBuilder@@QBE?AW4MethodType@QMetaMethod@@XZ @ 1688 NONAME ; enum QMetaMethod::MethodType QMetaMethodBuilder::methodType(void) const
	?mid@QDeclarativeSystemPalette@@QBE?AVQColor@@XZ @ 1689 NONAME ; class QColor QDeclarativeSystemPalette::mid(void) const
	?midlight@QDeclarativeSystemPalette@@QBE?AVQColor@@XZ @ 1690 NONAME ; class QColor QDeclarativeSystemPalette::midlight(void) const
	?minXExtent@QDeclarativeFlickable@@MBEMXZ @ 1691 NONAME ; float QDeclarativeFlickable::minXExtent(void) const
	?minXExtent@QDeclarativeGridView@@MBEMXZ @ 1692 NONAME ; float QDeclarativeGridView::minXExtent(void) const
	?minXExtent@QDeclarativeListView@@MBEMXZ @ 1693 NONAME ; float QDeclarativeListView::minXExtent(void) const
	?minYExtent@QDeclarativeFlickable@@MBEMXZ @ 1694 NONAME ; float QDeclarativeFlickable::minYExtent(void) const
	?minYExtent@QDeclarativeGridView@@MBEMXZ @ 1695 NONAME ; float QDeclarativeGridView::minYExtent(void) const
	?minYExtent@QDeclarativeListView@@MBEMXZ @ 1696 NONAME ; float QDeclarativeListView::minYExtent(void) const
	?minimumXChanged@QDeclarativeDrag@@IAEXXZ @ 1697 NONAME ; void QDeclarativeDrag::minimumXChanged(void)
	?minimumYChanged@QDeclarativeDrag@@IAEXXZ @ 1698 NONAME ; void QDeclarativeDrag::minimumYChanged(void)
	?minorVersion@QDeclarativeType@@QBEHXZ @ 1699 NONAME ; int QDeclarativeType::minorVersion(void) const
	?model@QDeclarativeGridView@@QBE?AVQVariant@@XZ @ 1700 NONAME ; class QVariant QDeclarativeGridView::model(void) const
	?model@QDeclarativeListView@@QBE?AVQVariant@@XZ @ 1701 NONAME ; class QVariant QDeclarativeListView::model(void) const
	?model@QDeclarativePathView@@QBE?AVQVariant@@XZ @ 1702 NONAME ; class QVariant QDeclarativePathView::model(void) const
	?model@QDeclarativeRepeater@@QBE?AVQVariant@@XZ @ 1703 NONAME ; class QVariant QDeclarativeRepeater::model(void) const
	?model@QDeclarativeVisualDataModel@@QBE?AVQVariant@@XZ @ 1704 NONAME ; class QVariant QDeclarativeVisualDataModel::model(void) const
	?modelChanged@QDeclarativeRepeater@@IAEXXZ @ 1705 NONAME ; void QDeclarativeRepeater::modelChanged(void)
	?modelReset@QDeclarativeGridView@@AAEXXZ @ 1706 NONAME ; void QDeclarativeGridView::modelReset(void)
	?modelReset@QDeclarativeListView@@AAEXXZ @ 1707 NONAME ; void QDeclarativeListView::modelReset(void)
	?modelReset@QDeclarativePathView@@AAEXXZ @ 1708 NONAME ; void QDeclarativePathView::modelReset(void)
	?modelReset@QDeclarativeRepeater@@AAEXXZ @ 1709 NONAME ; void QDeclarativeRepeater::modelReset(void)
	?modelReset@QDeclarativeVisualModel@@IAEXXZ @ 1710 NONAME ; void QDeclarativeVisualModel::modelReset(void)
	?modulus@QDeclarativeSpringFollow@@QBEMXZ @ 1711 NONAME ; float QDeclarativeSpringFollow::modulus(void) const
	?modulusChanged@QDeclarativeSpringFollow@@IAEXXZ @ 1712 NONAME ; void QDeclarativeSpringFollow::modulusChanged(void)
	?motion@QDeclarativeParticles@@QBEPAVQDeclarativeParticleMotion@@XZ @ 1713 NONAME ABSENT ; class QDeclarativeParticleMotion * QDeclarativeParticles::motion(void) const
	?motionChanged@QDeclarativeParticles@@IAEXXZ @ 1714 NONAME ABSENT ; void QDeclarativeParticles::motionChanged(void)
	?mouseDoubleClickEvent@QDeclarativeMouseArea@@MAEXPAVQGraphicsSceneMouseEvent@@@Z @ 1715 NONAME ; void QDeclarativeMouseArea::mouseDoubleClickEvent(class QGraphicsSceneMouseEvent *)
	?mouseDoubleClickEvent@QDeclarativeTextEdit@@MAEXPAVQGraphicsSceneMouseEvent@@@Z @ 1716 NONAME ; void QDeclarativeTextEdit::mouseDoubleClickEvent(class QGraphicsSceneMouseEvent *)
	?mouseDoubleClickEvent@QDeclarativeWebView@@MAEXPAVQGraphicsSceneMouseEvent@@@Z @ 1717 NONAME ABSENT ; void QDeclarativeWebView::mouseDoubleClickEvent(class QGraphicsSceneMouseEvent *)
	?mouseMoveEvent@QDeclarativeFlickable@@MAEXPAVQGraphicsSceneMouseEvent@@@Z @ 1718 NONAME ; void QDeclarativeFlickable::mouseMoveEvent(class QGraphicsSceneMouseEvent *)
	?mouseMoveEvent@QDeclarativeMouseArea@@MAEXPAVQGraphicsSceneMouseEvent@@@Z @ 1719 NONAME ; void QDeclarativeMouseArea::mouseMoveEvent(class QGraphicsSceneMouseEvent *)
	?mouseMoveEvent@QDeclarativePathView@@MAEXPAVQGraphicsSceneMouseEvent@@@Z @ 1720 NONAME ; void QDeclarativePathView::mouseMoveEvent(class QGraphicsSceneMouseEvent *)
	?mouseMoveEvent@QDeclarativeTextEdit@@MAEXPAVQGraphicsSceneMouseEvent@@@Z @ 1721 NONAME ; void QDeclarativeTextEdit::mouseMoveEvent(class QGraphicsSceneMouseEvent *)
	?mouseMoveEvent@QDeclarativeWebView@@MAEXPAVQGraphicsSceneMouseEvent@@@Z @ 1722 NONAME ABSENT ; void QDeclarativeWebView::mouseMoveEvent(class QGraphicsSceneMouseEvent *)
	?mousePressEvent@QDeclarativeFlickable@@MAEXPAVQGraphicsSceneMouseEvent@@@Z @ 1723 NONAME ; void QDeclarativeFlickable::mousePressEvent(class QGraphicsSceneMouseEvent *)
	?mousePressEvent@QDeclarativeMouseArea@@MAEXPAVQGraphicsSceneMouseEvent@@@Z @ 1724 NONAME ; void QDeclarativeMouseArea::mousePressEvent(class QGraphicsSceneMouseEvent *)
	?mousePressEvent@QDeclarativePathView@@MAEXPAVQGraphicsSceneMouseEvent@@@Z @ 1725 NONAME ; void QDeclarativePathView::mousePressEvent(class QGraphicsSceneMouseEvent *)
	?mousePressEvent@QDeclarativeText@@MAEXPAVQGraphicsSceneMouseEvent@@@Z @ 1726 NONAME ; void QDeclarativeText::mousePressEvent(class QGraphicsSceneMouseEvent *)
	?mousePressEvent@QDeclarativeTextEdit@@MAEXPAVQGraphicsSceneMouseEvent@@@Z @ 1727 NONAME ; void QDeclarativeTextEdit::mousePressEvent(class QGraphicsSceneMouseEvent *)
	?mousePressEvent@QDeclarativeTextInput@@MAEXPAVQGraphicsSceneMouseEvent@@@Z @ 1728 NONAME ; void QDeclarativeTextInput::mousePressEvent(class QGraphicsSceneMouseEvent *)
	?mousePressEvent@QDeclarativeWebView@@MAEXPAVQGraphicsSceneMouseEvent@@@Z @ 1729 NONAME ABSENT ; void QDeclarativeWebView::mousePressEvent(class QGraphicsSceneMouseEvent *)
	?mouseReleaseEvent@QDeclarativeFlickable@@MAEXPAVQGraphicsSceneMouseEvent@@@Z @ 1730 NONAME ; void QDeclarativeFlickable::mouseReleaseEvent(class QGraphicsSceneMouseEvent *)
	?mouseReleaseEvent@QDeclarativeMouseArea@@MAEXPAVQGraphicsSceneMouseEvent@@@Z @ 1731 NONAME ; void QDeclarativeMouseArea::mouseReleaseEvent(class QGraphicsSceneMouseEvent *)
	?mouseReleaseEvent@QDeclarativePathView@@MAEXPAVQGraphicsSceneMouseEvent@@@Z @ 1732 NONAME ; void QDeclarativePathView::mouseReleaseEvent(class QGraphicsSceneMouseEvent *)
	?mouseReleaseEvent@QDeclarativeText@@MAEXPAVQGraphicsSceneMouseEvent@@@Z @ 1733 NONAME ; void QDeclarativeText::mouseReleaseEvent(class QGraphicsSceneMouseEvent *)
	?mouseReleaseEvent@QDeclarativeTextEdit@@MAEXPAVQGraphicsSceneMouseEvent@@@Z @ 1734 NONAME ; void QDeclarativeTextEdit::mouseReleaseEvent(class QGraphicsSceneMouseEvent *)
	?mouseReleaseEvent@QDeclarativeTextInput@@MAEXPAVQGraphicsSceneMouseEvent@@@Z @ 1735 NONAME ; void QDeclarativeTextInput::mouseReleaseEvent(class QGraphicsSceneMouseEvent *)
	?mouseReleaseEvent@QDeclarativeWebView@@MAEXPAVQGraphicsSceneMouseEvent@@@Z @ 1736 NONAME ABSENT ; void QDeclarativeWebView::mouseReleaseEvent(class QGraphicsSceneMouseEvent *)
	?mouseX@QDeclarativeMouseArea@@QBEMXZ @ 1737 NONAME ; float QDeclarativeMouseArea::mouseX(void) const
	?mouseY@QDeclarativeMouseArea@@QBEMXZ @ 1738 NONAME ; float QDeclarativeMouseArea::mouseY(void) const
	?move@QDeclarativeBasePositioner@@QBEPAVQDeclarativeTransition@@XZ @ 1739 NONAME ; class QDeclarativeTransition * QDeclarativeBasePositioner::move(void) const
	?move@QDeclarativeListModel@@QAEXHHH@Z @ 1740 NONAME ; void QDeclarativeListModel::move(int, int, int)
	?moveChanged@QDeclarativeBasePositioner@@IAEXXZ @ 1741 NONAME ; void QDeclarativeBasePositioner::moveChanged(void)
	?moveCurrentIndexDown@QDeclarativeGridView@@QAEXXZ @ 1742 NONAME ; void QDeclarativeGridView::moveCurrentIndexDown(void)
	?moveCurrentIndexLeft@QDeclarativeGridView@@QAEXXZ @ 1743 NONAME ; void QDeclarativeGridView::moveCurrentIndexLeft(void)
	?moveCurrentIndexRight@QDeclarativeGridView@@QAEXXZ @ 1744 NONAME ; void QDeclarativeGridView::moveCurrentIndexRight(void)
	?moveCurrentIndexUp@QDeclarativeGridView@@QAEXXZ @ 1745 NONAME ; void QDeclarativeGridView::moveCurrentIndexUp(void)
	?moveCursor@QDeclarativeTextInput@@AAEXXZ @ 1746 NONAME ; void QDeclarativeTextInput::moveCursor(void)
	?moveCursorDelegate@QDeclarativeTextEdit@@AAEXXZ @ 1747 NONAME ; void QDeclarativeTextEdit::moveCursorDelegate(void)
	?movementEnded@QDeclarativeFlickable@@IAEXXZ @ 1748 NONAME ; void QDeclarativeFlickable::movementEnded(void)
	?movementEnding@QDeclarativeFlickable@@IAEXXZ @ 1749 NONAME ; void QDeclarativeFlickable::movementEnding(void)
	?movementStarted@QDeclarativeFlickable@@IAEXXZ @ 1750 NONAME ; void QDeclarativeFlickable::movementStarted(void)
	?movementStarting@QDeclarativeFlickable@@IAEXXZ @ 1751 NONAME ; void QDeclarativeFlickable::movementStarting(void)
	?movieRequestFinished@QDeclarativeAnimatedImage@@AAEXXZ @ 1752 NONAME ; void QDeclarativeAnimatedImage::movieRequestFinished(void)
	?movieUpdate@QDeclarativeAnimatedImage@@AAEXXZ @ 1753 NONAME ; void QDeclarativeAnimatedImage::movieUpdate(void)
	?movingChanged@QDeclarativeFlickable@@IAEXXZ @ 1754 NONAME ; void QDeclarativeFlickable::movingChanged(void)
	?name@QDeclarativeCustomParserNode@@QBE?AVQByteArray@@XZ @ 1755 NONAME ; class QByteArray QDeclarativeCustomParserNode::name(void) const
	?name@QDeclarativeCustomParserProperty@@QBE?AVQByteArray@@XZ @ 1756 NONAME ; class QByteArray QDeclarativeCustomParserProperty::name(void) const
	?name@QDeclarativeDebugClient@@QBE?AVQString@@XZ @ 1757 NONAME ; class QString QDeclarativeDebugClient::name(void) const
	?name@QDeclarativeDebugContextReference@@QBE?AVQString@@XZ @ 1758 NONAME ; class QString QDeclarativeDebugContextReference::name(void) const
	?name@QDeclarativeDebugEngineReference@@QBE?AVQString@@XZ @ 1759 NONAME ; class QString QDeclarativeDebugEngineReference::name(void) const
	?name@QDeclarativeDebugObjectReference@@QBE?AVQString@@XZ @ 1760 NONAME ; class QString QDeclarativeDebugObjectReference::name(void) const
	?name@QDeclarativeDebugPropertyReference@@QBE?AVQString@@XZ @ 1761 NONAME ; class QString QDeclarativeDebugPropertyReference::name(void) const
	?name@QDeclarativeDebugPropertyWatch@@QBE?AVQString@@XZ @ 1762 NONAME ; class QString QDeclarativeDebugPropertyWatch::name(void) const
	?name@QDeclarativeDebugService@@QBE?AVQString@@XZ @ 1763 NONAME ; class QString QDeclarativeDebugService::name(void) const
	?name@QDeclarativeFontLoader@@QBE?AVQString@@XZ @ 1764 NONAME ; class QString QDeclarativeFontLoader::name(void) const
	?name@QDeclarativeOpenMetaObject@@QBE?AVQByteArray@@H@Z @ 1765 NONAME ; class QByteArray QDeclarativeOpenMetaObject::name(int) const
	?name@QDeclarativePathAttribute@@QBE?AVQString@@XZ @ 1766 NONAME ; class QString QDeclarativePathAttribute::name(void) const
	?name@QDeclarativeProperty@@QBE?AVQString@@XZ @ 1767 NONAME ; class QString QDeclarativeProperty::name(void) const
	?name@QDeclarativeState@@QBE?AVQString@@XZ @ 1768 NONAME ; class QString QDeclarativeState::name(void) const
	?name@QDeclarativeStateChangeScript@@QBE?AVQString@@XZ @ 1769 NONAME ; class QString QDeclarativeStateChangeScript::name(void) const
	?name@QDeclarativeXmlListModelRole@@QBE?AVQString@@XZ @ 1770 NONAME ; class QString QDeclarativeXmlListModelRole::name(void) const
	?name@QMetaEnumBuilder@@QBE?AVQByteArray@@XZ @ 1771 NONAME ; class QByteArray QMetaEnumBuilder::name(void) const
	?name@QMetaPropertyBuilder@@QBE?AVQByteArray@@XZ @ 1772 NONAME ; class QByteArray QMetaPropertyBuilder::name(void) const
	?nameChanged@QDeclarativeFontLoader@@IAEXXZ @ 1773 NONAME ; void QDeclarativeFontLoader::nameChanged(void)
	?namespaceDeclarations@QDeclarativeXmlListModel@@QBE?AVQString@@XZ @ 1774 NONAME ; class QString QDeclarativeXmlListModel::namespaceDeclarations(void) const
	?needsNotifySignal@QDeclarativeProperty@@QBE_NXZ @ 1775 NONAME ; bool QDeclarativeProperty::needsNotifySignal(void) const
	?networkAccessManager@QDeclarativeEngine@@QBEPAVQNetworkAccessManager@@XZ @ 1776 NONAME ; class QNetworkAccessManager * QDeclarativeEngine::networkAccessManager(void) const
	?networkAccessManagerFactory@QDeclarativeEngine@@QBEPAVQDeclarativeNetworkAccessManagerFactory@@XZ @ 1777 NONAME ; class QDeclarativeNetworkAccessManagerFactory * QDeclarativeEngine::networkAccessManagerFactory(void) const
	?newWindowComponent@QDeclarativeWebView@@QBEPAVQDeclarativeComponent@@XZ @ 1778 NONAME ABSENT ; class QDeclarativeComponent * QDeclarativeWebView::newWindowComponent(void) const
	?newWindowComponentChanged@QDeclarativeWebView@@IAEXXZ @ 1779 NONAME ABSENT ; void QDeclarativeWebView::newWindowComponentChanged(void)
	?newWindowParent@QDeclarativeWebView@@QBEPAVQDeclarativeItem@@XZ @ 1780 NONAME ABSENT ; class QDeclarativeItem * QDeclarativeWebView::newWindowParent(void) const
	?newWindowParentChanged@QDeclarativeWebView@@IAEXXZ @ 1781 NONAME ABSENT ; void QDeclarativeWebView::newWindowParentChanged(void)
	?noteContentsSizeChanged@QDeclarativeWebView@@AAEXABVQSize@@@Z @ 1782 NONAME ABSENT ; void QDeclarativeWebView::noteContentsSizeChanged(class QSize const &)
	?notifyOnServerStart@QDeclarativeDebugService@@SAXPAVQObject@@PBD@Z @ 1783 NONAME ABSENT ; void QDeclarativeDebugService::notifyOnServerStart(class QObject *, char const *)
	?notifyOnValueChanged@QDeclarativeExpression@@QBE_NXZ @ 1784 NONAME ; bool QDeclarativeExpression::notifyOnValueChanged(void) const
	?notifySignal@QMetaPropertyBuilder@@QBE?AVQMetaMethodBuilder@@XZ @ 1785 NONAME ; class QMetaMethodBuilder QMetaPropertyBuilder::notifySignal(void) const
	?number@QDeclarativeNumberFormatter@@QBEMXZ @ 1786 NONAME ABSENT ; float QDeclarativeNumberFormatter::number(void) const
	?object@QDeclarativeAnchorChanges@@QBEPAVQDeclarativeItem@@XZ @ 1787 NONAME ; class QDeclarativeItem * QDeclarativeAnchorChanges::object(void) const
	?object@QDeclarativeBind@@QAEPAVQObject@@XZ @ 1788 NONAME ; class QObject * QDeclarativeBind::object(void)
	?object@QDeclarativeDebugObjectQuery@@QBE?AVQDeclarativeDebugObjectReference@@XZ @ 1789 NONAME ; class QDeclarativeDebugObjectReference QDeclarativeDebugObjectQuery::object(void) const
	?object@QDeclarativeDomValueValueInterceptor@@QBE?AVQDeclarativeDomObject@@XZ @ 1790 NONAME ; class QDeclarativeDomObject QDeclarativeDomValueValueInterceptor::object(void) const
	?object@QDeclarativeDomValueValueSource@@QBE?AVQDeclarativeDomObject@@XZ @ 1791 NONAME ; class QDeclarativeDomObject QDeclarativeDomValueValueSource::object(void) const
	?object@QDeclarativeListReference@@QBEPAVQObject@@XZ @ 1792 NONAME ; class QObject * QDeclarativeListReference::object(void) const
	?object@QDeclarativeOpenMetaObject@@QBEPAVQObject@@XZ @ 1793 NONAME ; class QObject * QDeclarativeOpenMetaObject::object(void) const
	?object@QDeclarativeParentChange@@QBEPAVQDeclarativeItem@@XZ @ 1794 NONAME ; class QDeclarativeItem * QDeclarativeParentChange::object(void) const
	?object@QDeclarativeProperty@@QBEPAVQObject@@XZ @ 1795 NONAME ; class QObject * QDeclarativeProperty::object(void) const
	?object@QDeclarativePropertyChanges@@QBEPAVQObject@@XZ @ 1796 NONAME ; class QObject * QDeclarativePropertyChanges::object(void) const
	?objectClassName@QDeclarativeDomObject@@QBE?AVQByteArray@@XZ @ 1797 NONAME ; class QByteArray QDeclarativeDomObject::objectClassName(void) const
	?objectDebugId@QDeclarativeDebugPropertyReference@@QBEHXZ @ 1798 NONAME ; int QDeclarativeDebugPropertyReference::objectDebugId(void) const
	?objectDebugId@QDeclarativeDebugWatch@@QBEHXZ @ 1799 NONAME ; int QDeclarativeDebugWatch::objectDebugId(void) const
	?objectForId@QDeclarativeDebugService@@SAPAVQObject@@H@Z @ 1800 NONAME ; class QObject * QDeclarativeDebugService::objectForId(int)
	?objectId@QDeclarativeDomObject@@QBE?AVQString@@XZ @ 1801 NONAME ; class QString QDeclarativeDomObject::objectId(void) const
	?objectToString@QDeclarativeDebugService@@SA?AVQString@@PAVQObject@@@Z @ 1802 NONAME ; class QString QDeclarativeDebugService::objectToString(class QObject *)
	?objectType@QDeclarativeDomObject@@QBE?AVQByteArray@@XZ @ 1803 NONAME ; class QByteArray QDeclarativeDomObject::objectType(void) const
	?objectTypeMajorVersion@QDeclarativeDomObject@@QBEHXZ @ 1804 NONAME ; int QDeclarativeDomObject::objectTypeMajorVersion(void) const
	?objectTypeMinorVersion@QDeclarativeDomObject@@QBEHXZ @ 1805 NONAME ; int QDeclarativeDomObject::objectTypeMinorVersion(void) const
	?objects@QDeclarativeDebugContextReference@@QBE?AV?$QList@VQDeclarativeDebugObjectReference@@@@XZ @ 1806 NONAME ; class QList<class QDeclarativeDebugObjectReference> QDeclarativeDebugContextReference::objects(void) const
	?offlineStoragePath@QDeclarativeEngine@@QBE?AVQString@@XZ @ 1807 NONAME ; class QString QDeclarativeEngine::offlineStoragePath(void) const
	?offset@QDeclarativePathView@@QBEMXZ @ 1808 NONAME ; float QDeclarativePathView::offset(void) const
	?offsetChanged@QDeclarativePathView@@IAEXXZ @ 1809 NONAME ; void QDeclarativePathView::offsetChanged(void)
	?operationAt@QDeclarativeState@@QBEPAVQDeclarativeStateOperation@@H@Z @ 1810 NONAME ; class QDeclarativeStateOperation * QDeclarativeState::operationAt(int) const
	?operationCount@QDeclarativeState@@QBEHXZ @ 1811 NONAME ; int QDeclarativeState::operationCount(void) const
	?orientation@QDeclarativeListView@@QBE?AW4Orientation@1@XZ @ 1812 NONAME ; enum QDeclarativeListView::Orientation QDeclarativeListView::orientation(void) const
	?orientationChanged@QDeclarativeListView@@IAEXXZ @ 1813 NONAME ; void QDeclarativeListView::orientationChanged(void)
	?originalParent@QDeclarativeParentChange@@QBEPAVQDeclarativeItem@@XZ @ 1814 NONAME ; class QDeclarativeItem * QDeclarativeParentChange::originalParent(void) const
	?overShoot@QDeclarativeFlickable@@QBE_NXZ @ 1815 NONAME ABSENT ; bool QDeclarativeFlickable::overShoot(void) const
	?overShootChanged@QDeclarativeFlickable@@IAEXXZ @ 1816 NONAME ABSENT ; void QDeclarativeFlickable::overShootChanged(void)
	?override@QDeclarativeAnchorChanges@@UAE_NPAVQDeclarativeActionEvent@@@Z @ 1817 NONAME ; bool QDeclarativeAnchorChanges::override(class QDeclarativeActionEvent *)
	?override@QDeclarativeParentChange@@UAE_NPAVQDeclarativeActionEvent@@@Z @ 1818 NONAME ; bool QDeclarativeParentChange::override(class QDeclarativeActionEvent *)
	?pace@QDeclarativeParticleMotionWander@@QBEMXZ @ 1819 NONAME ABSENT ; float QDeclarativeParticleMotionWander::pace(void) const
	?paceChanged@QDeclarativeParticleMotionWander@@IAEXXZ @ 1820 NONAME ABSENT ; void QDeclarativeParticleMotionWander::paceChanged(void)
	?packetWritten@QPacketProtocol@@IAEXXZ @ 1821 NONAME ; void QPacketProtocol::packetWritten(void)
	?packetsAvailable@QPacketProtocol@@QBE_JXZ @ 1822 NONAME ; long long QPacketProtocol::packetsAvailable(void) const
	?page@QDeclarativeWebView@@QBEPAVQWebPage@@XZ @ 1823 NONAME ABSENT ; class QWebPage * QDeclarativeWebView::page(void) const
	?pageChanged@QDeclarativeFlickable@@IAEXXZ @ 1824 NONAME ; void QDeclarativeFlickable::pageChanged(void)
	?pageUrlChanged@QDeclarativeWebView@@AAEXXZ @ 1825 NONAME ABSENT ; void QDeclarativeWebView::pageUrlChanged(void)
	?paint@QDeclarativeBorderImage@@UAEXPAVQPainter@@PBVQStyleOptionGraphicsItem@@PAVQWidget@@@Z @ 1826 NONAME ; void QDeclarativeBorderImage::paint(class QPainter *, class QStyleOptionGraphicsItem const *, class QWidget *)
	?paint@QDeclarativeImage@@UAEXPAVQPainter@@PBVQStyleOptionGraphicsItem@@PAVQWidget@@@Z @ 1827 NONAME ; void QDeclarativeImage::paint(class QPainter *, class QStyleOptionGraphicsItem const *, class QWidget *)
	?paint@QDeclarativeItem@@UAEXPAVQPainter@@PBVQStyleOptionGraphicsItem@@PAVQWidget@@@Z @ 1828 NONAME ; void QDeclarativeItem::paint(class QPainter *, class QStyleOptionGraphicsItem const *, class QWidget *)
	?paint@QDeclarativePaintedItem@@UAEXPAVQPainter@@PBVQStyleOptionGraphicsItem@@PAVQWidget@@@Z @ 1829 NONAME ; void QDeclarativePaintedItem::paint(class QPainter *, class QStyleOptionGraphicsItem const *, class QWidget *)
	?paint@QDeclarativeParticles@@UAEXPAVQPainter@@PBVQStyleOptionGraphicsItem@@PAVQWidget@@@Z @ 1830 NONAME ABSENT ; void QDeclarativeParticles::paint(class QPainter *, class QStyleOptionGraphicsItem const *, class QWidget *)
	?paint@QDeclarativeRectangle@@UAEXPAVQPainter@@PBVQStyleOptionGraphicsItem@@PAVQWidget@@@Z @ 1831 NONAME ; void QDeclarativeRectangle::paint(class QPainter *, class QStyleOptionGraphicsItem const *, class QWidget *)
	?paint@QDeclarativeText@@UAEXPAVQPainter@@PBVQStyleOptionGraphicsItem@@PAVQWidget@@@Z @ 1832 NONAME ; void QDeclarativeText::paint(class QPainter *, class QStyleOptionGraphicsItem const *, class QWidget *)
	?paintEvent@QDeclarativeView@@MAEXPAVQPaintEvent@@@Z @ 1833 NONAME ; void QDeclarativeView::paintEvent(class QPaintEvent *)
	?paintPage@QDeclarativeWebView@@AAEXABVQRect@@@Z @ 1834 NONAME ABSENT ; void QDeclarativeWebView::paintPage(class QRect const &)
	?paintedGeometryChanged@QDeclarativeImage@@IAEXXZ @ 1835 NONAME ; void QDeclarativeImage::paintedGeometryChanged(void)
	?paintedHeight@QDeclarativeImage@@QBEMXZ @ 1836 NONAME ; float QDeclarativeImage::paintedHeight(void) const
	?paintedWidth@QDeclarativeImage@@QBEMXZ @ 1837 NONAME ; float QDeclarativeImage::paintedWidth(void) const
	?paletteChanged@QDeclarativeSystemPalette@@IAEXXZ @ 1838 NONAME ; void QDeclarativeSystemPalette::paletteChanged(void)
	?parameterNames@QMetaMethodBuilder@@QBE?AV?$QList@VQByteArray@@@@XZ @ 1839 NONAME ; class QList<class QByteArray> QMetaMethodBuilder::parameterNames(void) const
	?parent@QDeclarativeOpenMetaObject@@IBEPAUQAbstractDynamicMetaObject@@XZ @ 1840 NONAME ; struct QAbstractDynamicMetaObject * QDeclarativeOpenMetaObject::parent(void) const
	?parent@QDeclarativeParentChange@@QBEPAVQDeclarativeItem@@XZ @ 1841 NONAME ; class QDeclarativeItem * QDeclarativeParentChange::parent(void) const
	?parentChanged@QDeclarativeItem@@IAEXXZ @ 1842 NONAME ABSENT ; void QDeclarativeItem::parentChanged(void)
	?parentContext@QDeclarativeContext@@QBEPAV1@XZ @ 1843 NONAME ; class QDeclarativeContext * QDeclarativeContext::parentContext(void) const
	?parentItem@QDeclarativeItem@@QBEPAV1@XZ @ 1844 NONAME ; class QDeclarativeItem * QDeclarativeItem::parentItem(void) const
	?parse@QDeclarativeStyledText@@SAXABVQString@@AAVQTextLayout@@@Z @ 1845 NONAME ; void QDeclarativeStyledText::parse(class QString const &, class QTextLayout &)
	?parserStatusCast@QDeclarativeType@@QBEHXZ @ 1846 NONAME ; int QDeclarativeType::parserStatusCast(void) const
	?part@QDeclarativeVisualDataModel@@QBE?AVQString@@XZ @ 1847 NONAME ; class QString QDeclarativeVisualDataModel::part(void) const
	?parts@QDeclarativeVisualDataModel@@QAEPAVQObject@@XZ @ 1848 NONAME ; class QObject * QDeclarativeVisualDataModel::parts(void)
	?path@QDeclarativePath@@QBE?AVQPainterPath@@XZ @ 1849 NONAME ; class QPainterPath QDeclarativePath::path(void) const
	?path@QDeclarativePathView@@QBEPAVQDeclarativePath@@XZ @ 1850 NONAME ; class QDeclarativePath * QDeclarativePathView::path(void) const
	?pathElements@QDeclarativePath@@QAE?AU?$QDeclarativeListProperty@VQDeclarativePathElement@@@@XZ @ 1851 NONAME ABSENT ; struct QDeclarativeListProperty<class QDeclarativePathElement> QDeclarativePath::pathElements(void)
	?pathItemCount@QDeclarativePathView@@QBEHXZ @ 1852 NONAME ; int QDeclarativePathView::pathItemCount(void) const
	?pausedChanged@QDeclarativeAnimatedImage@@IAEXXZ @ 1853 NONAME ; void QDeclarativeAnimatedImage::pausedChanged(void)
	?penChanged@QDeclarativePen@@IAEXXZ @ 1854 NONAME ; void QDeclarativePen::penChanged(void)
	?pendingRequests@QDeclarativePixmapCache@@SAHXZ @ 1855 NONAME ; int QDeclarativePixmapCache::pendingRequests(void)
	?persistentSelection@QDeclarativeTextEdit@@QBE_NXZ @ 1856 NONAME ; bool QDeclarativeTextEdit::persistentSelection(void) const
	?persistentSelectionChanged@QDeclarativeTextEdit@@IAEX_N@Z @ 1857 NONAME ; void QDeclarativeTextEdit::persistentSelectionChanged(bool)
	?pixelCacheSize@QDeclarativePaintedItem@@QBEHXZ @ 1858 NONAME ; int QDeclarativePaintedItem::pixelCacheSize(void) const
	?pixmap@QDeclarativeImage@@QBE?AVQPixmap@@XZ @ 1859 NONAME ; class QPixmap QDeclarativeImage::pixmap(void) const
	?pixmapChanged@QDeclarativeImageBase@@IAEXXZ @ 1860 NONAME ABSENT ; void QDeclarativeImageBase::pixmapChanged(void)
	?pixmapUrl@QDeclarativeGridScaledImage@@QBE?AVQString@@XZ @ 1861 NONAME ; class QString QDeclarativeGridScaledImage::pixmapUrl(void) const
	?playingChanged@QDeclarativeAnimatedImage@@IAEXXZ @ 1862 NONAME ; void QDeclarativeAnimatedImage::playingChanged(void)
	?playingStatusChanged@QDeclarativeAnimatedImage@@AAEXXZ @ 1863 NONAME ; void QDeclarativeAnimatedImage::playingStatusChanged(void)
	?pointAt@QDeclarativePath@@QBE?AVQPointF@@M@Z @ 1864 NONAME ; class QPointF QDeclarativePath::pointAt(float) const
	?pointFFromString@QDeclarativeStringConverters@@YA?AVQPointF@@ABVQString@@PA_N@Z @ 1865 NONAME ; class QPointF QDeclarativeStringConverters::pointFFromString(class QString const &, bool *)
	?position@QDeclarativeDomDynamicProperty@@QBEHXZ @ 1866 NONAME ; int QDeclarativeDomDynamicProperty::position(void) const
	?position@QDeclarativeDomList@@QBEHXZ @ 1867 NONAME ; int QDeclarativeDomList::position(void) const
	?position@QDeclarativeDomObject@@QBEHXZ @ 1868 NONAME ; int QDeclarativeDomObject::position(void) const
	?position@QDeclarativeDomProperty@@QBEHXZ @ 1869 NONAME ; int QDeclarativeDomProperty::position(void) const
	?position@QDeclarativeDomValue@@QBEHXZ @ 1870 NONAME ; int QDeclarativeDomValue::position(void) const
	?position@QDeclarativeGradientStop@@QBEMXZ @ 1871 NONAME ; float QDeclarativeGradientStop::position(void) const
	?positionChanged@QDeclarativeMouseArea@@IAEXPAVQDeclarativeMouseEvent@@@Z @ 1872 NONAME ; void QDeclarativeMouseArea::positionChanged(class QDeclarativeMouseEvent *)
	?positionViewAtIndex@QDeclarativeGridView@@QAEXH@Z @ 1873 NONAME ABSENT ; void QDeclarativeGridView::positionViewAtIndex(int)
	?positionViewAtIndex@QDeclarativeListView@@QAEXH@Z @ 1874 NONAME ABSENT ; void QDeclarativeListView::positionViewAtIndex(int)
	?positionX@QDeclarativeBasePositioner@@IAEXHABUPositionedItem@1@@Z @ 1875 NONAME ; void QDeclarativeBasePositioner::positionX(int, struct QDeclarativeBasePositioner::PositionedItem const &)
	?positionY@QDeclarativeBasePositioner@@IAEXHABUPositionedItem@1@@Z @ 1876 NONAME ; void QDeclarativeBasePositioner::positionY(int, struct QDeclarativeBasePositioner::PositionedItem const &)
	?prePositioning@QDeclarativeBasePositioner@@IAEXXZ @ 1877 NONAME ; void QDeclarativeBasePositioner::prePositioning(void)
	?preferredHeight@QDeclarativeWebView@@QBEHXZ @ 1878 NONAME ABSENT ; int QDeclarativeWebView::preferredHeight(void) const
	?preferredHeightChanged@QDeclarativeWebView@@IAEXXZ @ 1879 NONAME ABSENT ; void QDeclarativeWebView::preferredHeightChanged(void)
	?preferredHighlightBegin@QDeclarativeListView@@QBEMXZ @ 1880 NONAME ; float QDeclarativeListView::preferredHighlightBegin(void) const
	?preferredHighlightEnd@QDeclarativeListView@@QBEMXZ @ 1881 NONAME ; float QDeclarativeListView::preferredHighlightEnd(void) const
	?preferredWidth@QDeclarativeWebView@@QBEHXZ @ 1882 NONAME ABSENT ; int QDeclarativeWebView::preferredWidth(void) const
	?preferredWidthChanged@QDeclarativeWebView@@IAEXXZ @ 1883 NONAME ABSENT ; void QDeclarativeWebView::preferredWidthChanged(void)
	?prepare@QDeclarativeTransition@@QAEXAAV?$QList@VQDeclarativeAction@@@@AAV?$QList@VQDeclarativeProperty@@@@PAVQDeclarativeTransitionManager@@@Z @ 1884 NONAME ; void QDeclarativeTransition::prepare(class QList<class QDeclarativeAction> &, class QList<class QDeclarativeProperty> &, class QDeclarativeTransitionManager *)
	?pressAndHold@QDeclarativeMouseArea@@IAEXPAVQDeclarativeMouseEvent@@@Z @ 1885 NONAME ; void QDeclarativeMouseArea::pressAndHold(class QDeclarativeMouseEvent *)
	?pressDelay@QDeclarativeFlickable@@QBEHXZ @ 1886 NONAME ; int QDeclarativeFlickable::pressDelay(void) const
	?pressDelayChanged@QDeclarativeFlickable@@IAEXXZ @ 1887 NONAME ; void QDeclarativeFlickable::pressDelayChanged(void)
	?pressGrabTime@QDeclarativeWebView@@QBEHXZ @ 1888 NONAME ABSENT ; int QDeclarativeWebView::pressGrabTime(void) const
	?pressGrabTimeChanged@QDeclarativeWebView@@IAEXXZ @ 1889 NONAME ABSENT ; void QDeclarativeWebView::pressGrabTimeChanged(void)
	?pressed@QDeclarativeMouseArea@@IAEXPAVQDeclarativeMouseEvent@@@Z @ 1890 NONAME ; void QDeclarativeMouseArea::pressed(class QDeclarativeMouseEvent *)
	?pressed@QDeclarativeMouseArea@@QBE_NXZ @ 1891 NONAME ; bool QDeclarativeMouseArea::pressed(void) const
	?pressedButtons@QDeclarativeMouseArea@@QBE?AV?$QFlags@W4MouseButton@Qt@@@@XZ @ 1892 NONAME ; class QFlags<enum Qt::MouseButton> QDeclarativeMouseArea::pressedButtons(void) const
	?pressedChanged@QDeclarativeMouseArea@@IAEXXZ @ 1893 NONAME ; void QDeclarativeMouseArea::pressedChanged(void)
	?processPath@QDeclarativePath@@AAEXXZ @ 1894 NONAME ; void QDeclarativePath::processPath(void)
	?progress@QDeclarativeComponent@@QBEMXZ @ 1895 NONAME ; float QDeclarativeComponent::progress(void) const
	?progress@QDeclarativeImageBase@@QBEMXZ @ 1896 NONAME ; float QDeclarativeImageBase::progress(void) const
	?progress@QDeclarativeLoader@@QBEMXZ @ 1897 NONAME ; float QDeclarativeLoader::progress(void) const
	?progress@QDeclarativeWebView@@QBEMXZ @ 1898 NONAME ABSENT ; float QDeclarativeWebView::progress(void) const
	?progress@QDeclarativeXmlListModel@@QBEMXZ @ 1899 NONAME ; float QDeclarativeXmlListModel::progress(void) const
	?progressChanged@QDeclarativeComponent@@IAEXM@Z @ 1900 NONAME ; void QDeclarativeComponent::progressChanged(float)
	?progressChanged@QDeclarativeImageBase@@IAEXM@Z @ 1901 NONAME ; void QDeclarativeImageBase::progressChanged(float)
	?progressChanged@QDeclarativeLoader@@IAEXXZ @ 1902 NONAME ; void QDeclarativeLoader::progressChanged(void)
	?progressChanged@QDeclarativeWebView@@IAEXXZ @ 1903 NONAME ABSENT ; void QDeclarativeWebView::progressChanged(void)
	?progressChanged@QDeclarativeXmlListModel@@IAEXM@Z @ 1904 NONAME ; void QDeclarativeXmlListModel::progressChanged(float)
	?properties@QDeclarativeCustomParserNode@@QBE?AV?$QList@VQDeclarativeCustomParserProperty@@@@XZ @ 1905 NONAME ; class QList<class QDeclarativeCustomParserProperty> QDeclarativeCustomParserNode::properties(void) const
	?properties@QDeclarativeDebugObjectReference@@QBE?AV?$QList@VQDeclarativeDebugPropertyReference@@@@XZ @ 1906 NONAME ; class QList<class QDeclarativeDebugPropertyReference> QDeclarativeDebugObjectReference::properties(void) const
	?properties@QDeclarativeDomObject@@QBE?AV?$QList@VQDeclarativeDomProperty@@@@XZ @ 1907 NONAME ; class QList<class QDeclarativeDomProperty> QDeclarativeDomObject::properties(void) const
	?property@QDeclarativeBind@@QBE?AVQString@@XZ @ 1908 NONAME ; class QString QDeclarativeBind::property(void) const
	?property@QDeclarativeDomObject@@QBE?AVQDeclarativeDomProperty@@ABVQByteArray@@@Z @ 1909 NONAME ; class QDeclarativeDomProperty QDeclarativeDomObject::property(class QByteArray const &) const
	?property@QDeclarativeProperty@@QBE?AVQMetaProperty@@XZ @ 1910 NONAME ; class QMetaProperty QDeclarativeProperty::property(void) const
	?property@QDeclarativeViewSection@@QBE?AVQString@@XZ @ 1911 NONAME ; class QString QDeclarativeViewSection::property(void) const
	?property@QMetaObjectBuilder@@QBE?AVQMetaPropertyBuilder@@H@Z @ 1912 NONAME ; class QMetaPropertyBuilder QMetaObjectBuilder::property(int) const
	?propertyCount@QMetaObjectBuilder@@QBEHXZ @ 1913 NONAME ; int QMetaObjectBuilder::propertyCount(void) const
	?propertyCreated@QDeclarativeOpenMetaObject@@MAEXHAAVQMetaPropertyBuilder@@@Z @ 1914 NONAME ; void QDeclarativeOpenMetaObject::propertyCreated(int, class QMetaPropertyBuilder &)
	?propertyCreated@QDeclarativeOpenMetaObjectType@@MAEXHAAVQMetaPropertyBuilder@@@Z @ 1915 NONAME ; void QDeclarativeOpenMetaObjectType::propertyCreated(int, class QMetaPropertyBuilder &)
	?propertyName@QDeclarativeDomDynamicProperty@@QBE?AVQByteArray@@XZ @ 1916 NONAME ; class QByteArray QDeclarativeDomDynamicProperty::propertyName(void) const
	?propertyName@QDeclarativeDomProperty@@QBE?AVQByteArray@@XZ @ 1917 NONAME ; class QByteArray QDeclarativeDomProperty::propertyName(void) const
	?propertyNameParts@QDeclarativeDomProperty@@QBE?AV?$QList@VQByteArray@@@@XZ @ 1918 NONAME ; class QList<class QByteArray> QDeclarativeDomProperty::propertyNameParts(void) const
	?propertyOffset@QDeclarativeOpenMetaObjectType@@QBEHXZ @ 1919 NONAME ; int QDeclarativeOpenMetaObjectType::propertyOffset(void) const
	?propertyRead@QDeclarativeOpenMetaObject@@MAEXH@Z @ 1920 NONAME ; void QDeclarativeOpenMetaObject::propertyRead(int)
	?propertyType@QDeclarativeDomDynamicProperty@@QBEHXZ @ 1921 NONAME ; int QDeclarativeDomDynamicProperty::propertyType(void) const
	?propertyType@QDeclarativeProperty@@QBEHXZ @ 1922 NONAME ; int QDeclarativeProperty::propertyType(void) const
	?propertyTypeCategory@QDeclarativeProperty@@QBE?AW4PropertyTypeCategory@1@XZ @ 1923 NONAME ; enum QDeclarativeProperty::PropertyTypeCategory QDeclarativeProperty::propertyTypeCategory(void) const
	?propertyTypeName@QDeclarativeDomDynamicProperty@@QBE?AVQByteArray@@XZ @ 1924 NONAME ; class QByteArray QDeclarativeDomDynamicProperty::propertyTypeName(void) const
	?propertyTypeName@QDeclarativeProperty@@QBEPBDXZ @ 1925 NONAME ; char const * QDeclarativeProperty::propertyTypeName(void) const
	?propertyValueInterceptorCast@QDeclarativeType@@QBEHXZ @ 1926 NONAME ; int QDeclarativeType::propertyValueInterceptorCast(void) const
	?propertyValueSourceCast@QDeclarativeType@@QBEHXZ @ 1927 NONAME ; int QDeclarativeType::propertyValueSourceCast(void) const
	?propertyWrite@QDeclarativeOpenMetaObject@@MAEXH@Z @ 1928 NONAME ; void QDeclarativeOpenMetaObject::propertyWrite(int)
	?qListTypeId@QDeclarativeType@@QBEHXZ @ 1929 NONAME ; int QDeclarativeType::qListTypeId(void) const
	?q_func@QDeclarativeContextPrivate@@AAEPAVQDeclarativeContext@@XZ @ 1930 NONAME ABSENT ; class QDeclarativeContext * QDeclarativeContextPrivate::q_func(void)
	?q_func@QDeclarativeContextPrivate@@ABEPBVQDeclarativeContext@@XZ @ 1931 NONAME ABSENT ; class QDeclarativeContext const * QDeclarativeContextPrivate::q_func(void) const
	?q_textChanged@QDeclarativeTextEdit@@AAEXXZ @ 1932 NONAME ; void QDeclarativeTextEdit::q_textChanged(void)
	?q_textChanged@QDeclarativeTextInput@@AAEXXZ @ 1933 NONAME ; void QDeclarativeTextInput::q_textChanged(void)
	?qmlAttachedProperties@QDeclarativeComponent@@SAPAVQDeclarativeComponentAttached@@PAVQObject@@@Z @ 1934 NONAME ; class QDeclarativeComponentAttached * QDeclarativeComponent::qmlAttachedProperties(class QObject *)
	?qmlAttachedProperties@QDeclarativeGridView@@SAPAVQDeclarativeGridViewAttached@@PAVQObject@@@Z @ 1935 NONAME ; class QDeclarativeGridViewAttached * QDeclarativeGridView::qmlAttachedProperties(class QObject *)
	?qmlAttachedProperties@QDeclarativeListView@@SAPAVQDeclarativeListViewAttached@@PAVQObject@@@Z @ 1936 NONAME ; class QDeclarativeListViewAttached * QDeclarativeListView::qmlAttachedProperties(class QObject *)
	?qmlAttachedProperties@QDeclarativePathView@@SAPAVQObject@@PAV2@@Z @ 1937 NONAME ABSENT ; class QObject * QDeclarativePathView::qmlAttachedProperties(class QObject *)
	?qmlAttachedProperties@QDeclarativeVisualItemModel@@SAPAVQDeclarativeVisualItemModelAttached@@PAVQObject@@@Z @ 1938 NONAME ; class QDeclarativeVisualItemModelAttached * QDeclarativeVisualItemModel::qmlAttachedProperties(class QObject *)
	?qmlAttachedProperties@QDeclarativeWebView@@SAPAVQDeclarativeWebViewAttached@@PAVQObject@@@Z @ 1939 NONAME ABSENT ; class QDeclarativeWebViewAttached * QDeclarativeWebView::qmlAttachedProperties(class QObject *)
	?qmlAttachedPropertiesObject@@YAPAVQObject@@PAHPBV1@PBUQMetaObject@@_N@Z @ 1940 NONAME ; class QObject * qmlAttachedPropertiesObject(int *, class QObject const *, struct QMetaObject const *, bool)
	?qmlAttachedPropertiesObjectById@@YAPAVQObject@@HPBV1@_N@Z @ 1941 NONAME ; class QObject * qmlAttachedPropertiesObjectById(int, class QObject const *, bool)
	?qmlContext@@YAPAVQDeclarativeContext@@PBVQObject@@@Z @ 1942 NONAME ; class QDeclarativeContext * qmlContext(class QObject const *)
	?qmlEngine@@YAPAVQDeclarativeEngine@@PBVQObject@@@Z @ 1943 NONAME ; class QDeclarativeEngine * qmlEngine(class QObject const *)
	?qmlExecuteDeferred@@YAXPAVQObject@@@Z @ 1944 NONAME ; void qmlExecuteDeferred(class QObject *)
	?qmlInfo@@YA?AVQDeclarativeInfo@@PBVQObject@@@Z @ 1945 NONAME ; class QDeclarativeInfo qmlInfo(class QObject const *)
	?qmlType@QDeclarativeMetaType@@SAPAVQDeclarativeType@@ABVQByteArray@@HH@Z @ 1946 NONAME ; class QDeclarativeType * QDeclarativeMetaType::qmlType(class QByteArray const &, int, int)
	?qmlType@QDeclarativeMetaType@@SAPAVQDeclarativeType@@H@Z @ 1947 NONAME ; class QDeclarativeType * QDeclarativeMetaType::qmlType(int)
	?qmlType@QDeclarativeMetaType@@SAPAVQDeclarativeType@@PBUQMetaObject@@@Z @ 1948 NONAME ; class QDeclarativeType * QDeclarativeMetaType::qmlType(struct QMetaObject const *)
	?qmlTypeName@QDeclarativeType@@QBE?AVQByteArray@@XZ @ 1949 NONAME ; class QByteArray QDeclarativeType::qmlTypeName(void) const
	?qmlTypeNames@QDeclarativeMetaType@@SA?AV?$QList@VQByteArray@@@@XZ @ 1950 NONAME ; class QList<class QByteArray> QDeclarativeMetaType::qmlTypeNames(void)
	?qmlTypes@QDeclarativeMetaType@@SA?AV?$QList@PAVQDeclarativeType@@@@XZ @ 1951 NONAME ; class QList<class QDeclarativeType *> QDeclarativeMetaType::qmlTypes(void)
	?qt_metacall@QDeclarativeAnchorChanges@@UAEHW4Call@QMetaObject@@HPAPAX@Z @ 1952 NONAME ; int QDeclarativeAnchorChanges::qt_metacall(enum QMetaObject::Call, int, void * *)
	?qt_metacall@QDeclarativeAnchors@@UAEHW4Call@QMetaObject@@HPAPAX@Z @ 1953 NONAME ; int QDeclarativeAnchors::qt_metacall(enum QMetaObject::Call, int, void * *)
	?qt_metacall@QDeclarativeAnimatedImage@@UAEHW4Call@QMetaObject@@HPAPAX@Z @ 1954 NONAME ; int QDeclarativeAnimatedImage::qt_metacall(enum QMetaObject::Call, int, void * *)
	?qt_metacall@QDeclarativeBasePositioner@@UAEHW4Call@QMetaObject@@HPAPAX@Z @ 1955 NONAME ; int QDeclarativeBasePositioner::qt_metacall(enum QMetaObject::Call, int, void * *)
	?qt_metacall@QDeclarativeBehavior@@UAEHW4Call@QMetaObject@@HPAPAX@Z @ 1956 NONAME ; int QDeclarativeBehavior::qt_metacall(enum QMetaObject::Call, int, void * *)
	?qt_metacall@QDeclarativeBind@@UAEHW4Call@QMetaObject@@HPAPAX@Z @ 1957 NONAME ; int QDeclarativeBind::qt_metacall(enum QMetaObject::Call, int, void * *)
	?qt_metacall@QDeclarativeBorderImage@@UAEHW4Call@QMetaObject@@HPAPAX@Z @ 1958 NONAME ; int QDeclarativeBorderImage::qt_metacall(enum QMetaObject::Call, int, void * *)
	?qt_metacall@QDeclarativeColumn@@UAEHW4Call@QMetaObject@@HPAPAX@Z @ 1959 NONAME ; int QDeclarativeColumn::qt_metacall(enum QMetaObject::Call, int, void * *)
	?qt_metacall@QDeclarativeComponent@@UAEHW4Call@QMetaObject@@HPAPAX@Z @ 1960 NONAME ; int QDeclarativeComponent::qt_metacall(enum QMetaObject::Call, int, void * *)
	?qt_metacall@QDeclarativeConnections@@UAEHW4Call@QMetaObject@@HPAPAX@Z @ 1961 NONAME ; int QDeclarativeConnections::qt_metacall(enum QMetaObject::Call, int, void * *)
	?qt_metacall@QDeclarativeContext@@UAEHW4Call@QMetaObject@@HPAPAX@Z @ 1962 NONAME ; int QDeclarativeContext::qt_metacall(enum QMetaObject::Call, int, void * *)
	?qt_metacall@QDeclarativeCurve@@UAEHW4Call@QMetaObject@@HPAPAX@Z @ 1963 NONAME ; int QDeclarativeCurve::qt_metacall(enum QMetaObject::Call, int, void * *)
	?qt_metacall@QDeclarativeDateTimeFormatter@@UAEHW4Call@QMetaObject@@HPAPAX@Z @ 1964 NONAME ABSENT ; int QDeclarativeDateTimeFormatter::qt_metacall(enum QMetaObject::Call, int, void * *)
	?qt_metacall@QDeclarativeDebugClient@@UAEHW4Call@QMetaObject@@HPAPAX@Z @ 1965 NONAME ; int QDeclarativeDebugClient::qt_metacall(enum QMetaObject::Call, int, void * *)
	?qt_metacall@QDeclarativeDebugConnection@@UAEHW4Call@QMetaObject@@HPAPAX@Z @ 1966 NONAME ; int QDeclarativeDebugConnection::qt_metacall(enum QMetaObject::Call, int, void * *)
	?qt_metacall@QDeclarativeDebugEnginesQuery@@UAEHW4Call@QMetaObject@@HPAPAX@Z @ 1967 NONAME ; int QDeclarativeDebugEnginesQuery::qt_metacall(enum QMetaObject::Call, int, void * *)
	?qt_metacall@QDeclarativeDebugExpressionQuery@@UAEHW4Call@QMetaObject@@HPAPAX@Z @ 1968 NONAME ; int QDeclarativeDebugExpressionQuery::qt_metacall(enum QMetaObject::Call, int, void * *)
	?qt_metacall@QDeclarativeDebugObjectExpressionWatch@@UAEHW4Call@QMetaObject@@HPAPAX@Z @ 1969 NONAME ; int QDeclarativeDebugObjectExpressionWatch::qt_metacall(enum QMetaObject::Call, int, void * *)
	?qt_metacall@QDeclarativeDebugObjectQuery@@UAEHW4Call@QMetaObject@@HPAPAX@Z @ 1970 NONAME ; int QDeclarativeDebugObjectQuery::qt_metacall(enum QMetaObject::Call, int, void * *)
	?qt_metacall@QDeclarativeDebugPropertyWatch@@UAEHW4Call@QMetaObject@@HPAPAX@Z @ 1971 NONAME ; int QDeclarativeDebugPropertyWatch::qt_metacall(enum QMetaObject::Call, int, void * *)
	?qt_metacall@QDeclarativeDebugQuery@@UAEHW4Call@QMetaObject@@HPAPAX@Z @ 1972 NONAME ; int QDeclarativeDebugQuery::qt_metacall(enum QMetaObject::Call, int, void * *)
	?qt_metacall@QDeclarativeDebugRootContextQuery@@UAEHW4Call@QMetaObject@@HPAPAX@Z @ 1973 NONAME ; int QDeclarativeDebugRootContextQuery::qt_metacall(enum QMetaObject::Call, int, void * *)
	?qt_metacall@QDeclarativeDebugService@@UAEHW4Call@QMetaObject@@HPAPAX@Z @ 1974 NONAME ; int QDeclarativeDebugService::qt_metacall(enum QMetaObject::Call, int, void * *)
	?qt_metacall@QDeclarativeDebugWatch@@UAEHW4Call@QMetaObject@@HPAPAX@Z @ 1975 NONAME ; int QDeclarativeDebugWatch::qt_metacall(enum QMetaObject::Call, int, void * *)
	?qt_metacall@QDeclarativeDrag@@UAEHW4Call@QMetaObject@@HPAPAX@Z @ 1976 NONAME ; int QDeclarativeDrag::qt_metacall(enum QMetaObject::Call, int, void * *)
	?qt_metacall@QDeclarativeEaseFollow@@UAEHW4Call@QMetaObject@@HPAPAX@Z @ 1977 NONAME ABSENT ; int QDeclarativeEaseFollow::qt_metacall(enum QMetaObject::Call, int, void * *)
	?qt_metacall@QDeclarativeEngine@@UAEHW4Call@QMetaObject@@HPAPAX@Z @ 1978 NONAME ; int QDeclarativeEngine::qt_metacall(enum QMetaObject::Call, int, void * *)
	?qt_metacall@QDeclarativeEngineDebug@@UAEHW4Call@QMetaObject@@HPAPAX@Z @ 1979 NONAME ; int QDeclarativeEngineDebug::qt_metacall(enum QMetaObject::Call, int, void * *)
	?qt_metacall@QDeclarativeExpression@@UAEHW4Call@QMetaObject@@HPAPAX@Z @ 1980 NONAME ; int QDeclarativeExpression::qt_metacall(enum QMetaObject::Call, int, void * *)
	?qt_metacall@QDeclarativeExtensionPlugin@@UAEHW4Call@QMetaObject@@HPAPAX@Z @ 1981 NONAME ; int QDeclarativeExtensionPlugin::qt_metacall(enum QMetaObject::Call, int, void * *)
	?qt_metacall@QDeclarativeFlickable@@UAEHW4Call@QMetaObject@@HPAPAX@Z @ 1982 NONAME ; int QDeclarativeFlickable::qt_metacall(enum QMetaObject::Call, int, void * *)
	?qt_metacall@QDeclarativeFlipable@@UAEHW4Call@QMetaObject@@HPAPAX@Z @ 1983 NONAME ; int QDeclarativeFlipable::qt_metacall(enum QMetaObject::Call, int, void * *)
	?qt_metacall@QDeclarativeFlow@@UAEHW4Call@QMetaObject@@HPAPAX@Z @ 1984 NONAME ; int QDeclarativeFlow::qt_metacall(enum QMetaObject::Call, int, void * *)
	?qt_metacall@QDeclarativeFocusPanel@@UAEHW4Call@QMetaObject@@HPAPAX@Z @ 1985 NONAME ; int QDeclarativeFocusPanel::qt_metacall(enum QMetaObject::Call, int, void * *)
	?qt_metacall@QDeclarativeFocusScope@@UAEHW4Call@QMetaObject@@HPAPAX@Z @ 1986 NONAME ; int QDeclarativeFocusScope::qt_metacall(enum QMetaObject::Call, int, void * *)
	?qt_metacall@QDeclarativeFontLoader@@UAEHW4Call@QMetaObject@@HPAPAX@Z @ 1987 NONAME ; int QDeclarativeFontLoader::qt_metacall(enum QMetaObject::Call, int, void * *)
	?qt_metacall@QDeclarativeGradient@@UAEHW4Call@QMetaObject@@HPAPAX@Z @ 1988 NONAME ; int QDeclarativeGradient::qt_metacall(enum QMetaObject::Call, int, void * *)
	?qt_metacall@QDeclarativeGradientStop@@UAEHW4Call@QMetaObject@@HPAPAX@Z @ 1989 NONAME ; int QDeclarativeGradientStop::qt_metacall(enum QMetaObject::Call, int, void * *)
	?qt_metacall@QDeclarativeGraphicsObjectContainer@@UAEHW4Call@QMetaObject@@HPAPAX@Z @ 1990 NONAME ABSENT ; int QDeclarativeGraphicsObjectContainer::qt_metacall(enum QMetaObject::Call, int, void * *)
	?qt_metacall@QDeclarativeGrid@@UAEHW4Call@QMetaObject@@HPAPAX@Z @ 1991 NONAME ; int QDeclarativeGrid::qt_metacall(enum QMetaObject::Call, int, void * *)
	?qt_metacall@QDeclarativeGridView@@UAEHW4Call@QMetaObject@@HPAPAX@Z @ 1992 NONAME ; int QDeclarativeGridView::qt_metacall(enum QMetaObject::Call, int, void * *)
	?qt_metacall@QDeclarativeImage@@UAEHW4Call@QMetaObject@@HPAPAX@Z @ 1993 NONAME ; int QDeclarativeImage::qt_metacall(enum QMetaObject::Call, int, void * *)
	?qt_metacall@QDeclarativeImageBase@@UAEHW4Call@QMetaObject@@HPAPAX@Z @ 1994 NONAME ; int QDeclarativeImageBase::qt_metacall(enum QMetaObject::Call, int, void * *)
	?qt_metacall@QDeclarativeItem@@UAEHW4Call@QMetaObject@@HPAPAX@Z @ 1995 NONAME ; int QDeclarativeItem::qt_metacall(enum QMetaObject::Call, int, void * *)
	?qt_metacall@QDeclarativeListModel@@UAEHW4Call@QMetaObject@@HPAPAX@Z @ 1996 NONAME ; int QDeclarativeListModel::qt_metacall(enum QMetaObject::Call, int, void * *)
	?qt_metacall@QDeclarativeListView@@UAEHW4Call@QMetaObject@@HPAPAX@Z @ 1997 NONAME ; int QDeclarativeListView::qt_metacall(enum QMetaObject::Call, int, void * *)
	?qt_metacall@QDeclarativeLoader@@UAEHW4Call@QMetaObject@@HPAPAX@Z @ 1998 NONAME ; int QDeclarativeLoader::qt_metacall(enum QMetaObject::Call, int, void * *)
	?qt_metacall@QDeclarativeMouseArea@@UAEHW4Call@QMetaObject@@HPAPAX@Z @ 1999 NONAME ; int QDeclarativeMouseArea::qt_metacall(enum QMetaObject::Call, int, void * *)
	?qt_metacall@QDeclarativeNumberFormatter@@UAEHW4Call@QMetaObject@@HPAPAX@Z @ 2000 NONAME ABSENT ; int QDeclarativeNumberFormatter::qt_metacall(enum QMetaObject::Call, int, void * *)
	?qt_metacall@QDeclarativePaintedItem@@UAEHW4Call@QMetaObject@@HPAPAX@Z @ 2001 NONAME ; int QDeclarativePaintedItem::qt_metacall(enum QMetaObject::Call, int, void * *)
	?qt_metacall@QDeclarativeParentChange@@UAEHW4Call@QMetaObject@@HPAPAX@Z @ 2002 NONAME ; int QDeclarativeParentChange::qt_metacall(enum QMetaObject::Call, int, void * *)
	?qt_metacall@QDeclarativeParticleMotion@@UAEHW4Call@QMetaObject@@HPAPAX@Z @ 2003 NONAME ABSENT ; int QDeclarativeParticleMotion::qt_metacall(enum QMetaObject::Call, int, void * *)
	?qt_metacall@QDeclarativeParticleMotionGravity@@UAEHW4Call@QMetaObject@@HPAPAX@Z @ 2004 NONAME ABSENT ; int QDeclarativeParticleMotionGravity::qt_metacall(enum QMetaObject::Call, int, void * *)
	?qt_metacall@QDeclarativeParticleMotionLinear@@UAEHW4Call@QMetaObject@@HPAPAX@Z @ 2005 NONAME ABSENT ; int QDeclarativeParticleMotionLinear::qt_metacall(enum QMetaObject::Call, int, void * *)
	?qt_metacall@QDeclarativeParticleMotionWander@@UAEHW4Call@QMetaObject@@HPAPAX@Z @ 2006 NONAME ABSENT ; int QDeclarativeParticleMotionWander::qt_metacall(enum QMetaObject::Call, int, void * *)
	?qt_metacall@QDeclarativeParticles@@UAEHW4Call@QMetaObject@@HPAPAX@Z @ 2007 NONAME ABSENT ; int QDeclarativeParticles::qt_metacall(enum QMetaObject::Call, int, void * *)
	?qt_metacall@QDeclarativePath@@UAEHW4Call@QMetaObject@@HPAPAX@Z @ 2008 NONAME ; int QDeclarativePath::qt_metacall(enum QMetaObject::Call, int, void * *)
	?qt_metacall@QDeclarativePathAttribute@@UAEHW4Call@QMetaObject@@HPAPAX@Z @ 2009 NONAME ; int QDeclarativePathAttribute::qt_metacall(enum QMetaObject::Call, int, void * *)
	?qt_metacall@QDeclarativePathCubic@@UAEHW4Call@QMetaObject@@HPAPAX@Z @ 2010 NONAME ; int QDeclarativePathCubic::qt_metacall(enum QMetaObject::Call, int, void * *)
	?qt_metacall@QDeclarativePathElement@@UAEHW4Call@QMetaObject@@HPAPAX@Z @ 2011 NONAME ; int QDeclarativePathElement::qt_metacall(enum QMetaObject::Call, int, void * *)
	?qt_metacall@QDeclarativePathLine@@UAEHW4Call@QMetaObject@@HPAPAX@Z @ 2012 NONAME ; int QDeclarativePathLine::qt_metacall(enum QMetaObject::Call, int, void * *)
	?qt_metacall@QDeclarativePathPercent@@UAEHW4Call@QMetaObject@@HPAPAX@Z @ 2013 NONAME ; int QDeclarativePathPercent::qt_metacall(enum QMetaObject::Call, int, void * *)
	?qt_metacall@QDeclarativePathQuad@@UAEHW4Call@QMetaObject@@HPAPAX@Z @ 2014 NONAME ; int QDeclarativePathQuad::qt_metacall(enum QMetaObject::Call, int, void * *)
	?qt_metacall@QDeclarativePathView@@UAEHW4Call@QMetaObject@@HPAPAX@Z @ 2015 NONAME ; int QDeclarativePathView::qt_metacall(enum QMetaObject::Call, int, void * *)
	?qt_metacall@QDeclarativePen@@UAEHW4Call@QMetaObject@@HPAPAX@Z @ 2016 NONAME ; int QDeclarativePen::qt_metacall(enum QMetaObject::Call, int, void * *)
	?qt_metacall@QDeclarativePixmapReply@@UAEHW4Call@QMetaObject@@HPAPAX@Z @ 2017 NONAME ; int QDeclarativePixmapReply::qt_metacall(enum QMetaObject::Call, int, void * *)
	?qt_metacall@QDeclarativePropertyChanges@@UAEHW4Call@QMetaObject@@HPAPAX@Z @ 2018 NONAME ; int QDeclarativePropertyChanges::qt_metacall(enum QMetaObject::Call, int, void * *)
	?qt_metacall@QDeclarativePropertyMap@@UAEHW4Call@QMetaObject@@HPAPAX@Z @ 2019 NONAME ; int QDeclarativePropertyMap::qt_metacall(enum QMetaObject::Call, int, void * *)
	?qt_metacall@QDeclarativeRectangle@@UAEHW4Call@QMetaObject@@HPAPAX@Z @ 2020 NONAME ; int QDeclarativeRectangle::qt_metacall(enum QMetaObject::Call, int, void * *)
	?qt_metacall@QDeclarativeRepeater@@UAEHW4Call@QMetaObject@@HPAPAX@Z @ 2021 NONAME ; int QDeclarativeRepeater::qt_metacall(enum QMetaObject::Call, int, void * *)
	?qt_metacall@QDeclarativeRow@@UAEHW4Call@QMetaObject@@HPAPAX@Z @ 2022 NONAME ; int QDeclarativeRow::qt_metacall(enum QMetaObject::Call, int, void * *)
	?qt_metacall@QDeclarativeScaleGrid@@UAEHW4Call@QMetaObject@@HPAPAX@Z @ 2023 NONAME ; int QDeclarativeScaleGrid::qt_metacall(enum QMetaObject::Call, int, void * *)
	?qt_metacall@QDeclarativeSpringFollow@@UAEHW4Call@QMetaObject@@HPAPAX@Z @ 2024 NONAME ; int QDeclarativeSpringFollow::qt_metacall(enum QMetaObject::Call, int, void * *)
	?qt_metacall@QDeclarativeState@@UAEHW4Call@QMetaObject@@HPAPAX@Z @ 2025 NONAME ; int QDeclarativeState::qt_metacall(enum QMetaObject::Call, int, void * *)
	?qt_metacall@QDeclarativeStateChangeScript@@UAEHW4Call@QMetaObject@@HPAPAX@Z @ 2026 NONAME ; int QDeclarativeStateChangeScript::qt_metacall(enum QMetaObject::Call, int, void * *)
	?qt_metacall@QDeclarativeStateGroup@@UAEHW4Call@QMetaObject@@HPAPAX@Z @ 2027 NONAME ; int QDeclarativeStateGroup::qt_metacall(enum QMetaObject::Call, int, void * *)
	?qt_metacall@QDeclarativeStateOperation@@UAEHW4Call@QMetaObject@@HPAPAX@Z @ 2028 NONAME ; int QDeclarativeStateOperation::qt_metacall(enum QMetaObject::Call, int, void * *)
	?qt_metacall@QDeclarativeSystemPalette@@UAEHW4Call@QMetaObject@@HPAPAX@Z @ 2029 NONAME ; int QDeclarativeSystemPalette::qt_metacall(enum QMetaObject::Call, int, void * *)
	?qt_metacall@QDeclarativeText@@UAEHW4Call@QMetaObject@@HPAPAX@Z @ 2030 NONAME ; int QDeclarativeText::qt_metacall(enum QMetaObject::Call, int, void * *)
	?qt_metacall@QDeclarativeTextEdit@@UAEHW4Call@QMetaObject@@HPAPAX@Z @ 2031 NONAME ; int QDeclarativeTextEdit::qt_metacall(enum QMetaObject::Call, int, void * *)
	?qt_metacall@QDeclarativeTextInput@@UAEHW4Call@QMetaObject@@HPAPAX@Z @ 2032 NONAME ; int QDeclarativeTextInput::qt_metacall(enum QMetaObject::Call, int, void * *)
	?qt_metacall@QDeclarativeTimer@@UAEHW4Call@QMetaObject@@HPAPAX@Z @ 2033 NONAME ; int QDeclarativeTimer::qt_metacall(enum QMetaObject::Call, int, void * *)
	?qt_metacall@QDeclarativeTransition@@UAEHW4Call@QMetaObject@@HPAPAX@Z @ 2034 NONAME ; int QDeclarativeTransition::qt_metacall(enum QMetaObject::Call, int, void * *)
	?qt_metacall@QDeclarativeValueType@@UAEHW4Call@QMetaObject@@HPAPAX@Z @ 2035 NONAME ; int QDeclarativeValueType::qt_metacall(enum QMetaObject::Call, int, void * *)
	?qt_metacall@QDeclarativeView@@UAEHW4Call@QMetaObject@@HPAPAX@Z @ 2036 NONAME ; int QDeclarativeView::qt_metacall(enum QMetaObject::Call, int, void * *)
	?qt_metacall@QDeclarativeViewSection@@UAEHW4Call@QMetaObject@@HPAPAX@Z @ 2037 NONAME ; int QDeclarativeViewSection::qt_metacall(enum QMetaObject::Call, int, void * *)
	?qt_metacall@QDeclarativeVisualDataModel@@UAEHW4Call@QMetaObject@@HPAPAX@Z @ 2038 NONAME ; int QDeclarativeVisualDataModel::qt_metacall(enum QMetaObject::Call, int, void * *)
	?qt_metacall@QDeclarativeVisualItemModel@@UAEHW4Call@QMetaObject@@HPAPAX@Z @ 2039 NONAME ; int QDeclarativeVisualItemModel::qt_metacall(enum QMetaObject::Call, int, void * *)
	?qt_metacall@QDeclarativeVisualModel@@UAEHW4Call@QMetaObject@@HPAPAX@Z @ 2040 NONAME ; int QDeclarativeVisualModel::qt_metacall(enum QMetaObject::Call, int, void * *)
	?qt_metacall@QDeclarativeWebPage@@UAEHW4Call@QMetaObject@@HPAPAX@Z @ 2041 NONAME ABSENT ; int QDeclarativeWebPage::qt_metacall(enum QMetaObject::Call, int, void * *)
	?qt_metacall@QDeclarativeWebView@@UAEHW4Call@QMetaObject@@HPAPAX@Z @ 2042 NONAME ABSENT ; int QDeclarativeWebView::qt_metacall(enum QMetaObject::Call, int, void * *)
	?qt_metacall@QDeclarativeXmlListModel@@UAEHW4Call@QMetaObject@@HPAPAX@Z @ 2043 NONAME ; int QDeclarativeXmlListModel::qt_metacall(enum QMetaObject::Call, int, void * *)
	?qt_metacall@QDeclarativeXmlListModelRole@@UAEHW4Call@QMetaObject@@HPAPAX@Z @ 2044 NONAME ; int QDeclarativeXmlListModelRole::qt_metacall(enum QMetaObject::Call, int, void * *)
	?qt_metacall@QListModelInterface@@UAEHW4Call@QMetaObject@@HPAPAX@Z @ 2045 NONAME ; int QListModelInterface::qt_metacall(enum QMetaObject::Call, int, void * *)
	?qt_metacall@QPacketProtocol@@UAEHW4Call@QMetaObject@@HPAPAX@Z @ 2046 NONAME ; int QPacketProtocol::qt_metacall(enum QMetaObject::Call, int, void * *)
	?qt_metacast@QDeclarativeAnchorChanges@@UAEPAXPBD@Z @ 2047 NONAME ; void * QDeclarativeAnchorChanges::qt_metacast(char const *)
	?qt_metacast@QDeclarativeAnchors@@UAEPAXPBD@Z @ 2048 NONAME ; void * QDeclarativeAnchors::qt_metacast(char const *)
	?qt_metacast@QDeclarativeAnimatedImage@@UAEPAXPBD@Z @ 2049 NONAME ; void * QDeclarativeAnimatedImage::qt_metacast(char const *)
	?qt_metacast@QDeclarativeBasePositioner@@UAEPAXPBD@Z @ 2050 NONAME ; void * QDeclarativeBasePositioner::qt_metacast(char const *)
	?qt_metacast@QDeclarativeBehavior@@UAEPAXPBD@Z @ 2051 NONAME ; void * QDeclarativeBehavior::qt_metacast(char const *)
	?qt_metacast@QDeclarativeBind@@UAEPAXPBD@Z @ 2052 NONAME ; void * QDeclarativeBind::qt_metacast(char const *)
	?qt_metacast@QDeclarativeBorderImage@@UAEPAXPBD@Z @ 2053 NONAME ; void * QDeclarativeBorderImage::qt_metacast(char const *)
	?qt_metacast@QDeclarativeColumn@@UAEPAXPBD@Z @ 2054 NONAME ; void * QDeclarativeColumn::qt_metacast(char const *)
	?qt_metacast@QDeclarativeComponent@@UAEPAXPBD@Z @ 2055 NONAME ; void * QDeclarativeComponent::qt_metacast(char const *)
	?qt_metacast@QDeclarativeConnections@@UAEPAXPBD@Z @ 2056 NONAME ; void * QDeclarativeConnections::qt_metacast(char const *)
	?qt_metacast@QDeclarativeContext@@UAEPAXPBD@Z @ 2057 NONAME ; void * QDeclarativeContext::qt_metacast(char const *)
	?qt_metacast@QDeclarativeCurve@@UAEPAXPBD@Z @ 2058 NONAME ; void * QDeclarativeCurve::qt_metacast(char const *)
	?qt_metacast@QDeclarativeDateTimeFormatter@@UAEPAXPBD@Z @ 2059 NONAME ABSENT ; void * QDeclarativeDateTimeFormatter::qt_metacast(char const *)
	?qt_metacast@QDeclarativeDebugClient@@UAEPAXPBD@Z @ 2060 NONAME ; void * QDeclarativeDebugClient::qt_metacast(char const *)
	?qt_metacast@QDeclarativeDebugConnection@@UAEPAXPBD@Z @ 2061 NONAME ; void * QDeclarativeDebugConnection::qt_metacast(char const *)
	?qt_metacast@QDeclarativeDebugEnginesQuery@@UAEPAXPBD@Z @ 2062 NONAME ; void * QDeclarativeDebugEnginesQuery::qt_metacast(char const *)
	?qt_metacast@QDeclarativeDebugExpressionQuery@@UAEPAXPBD@Z @ 2063 NONAME ; void * QDeclarativeDebugExpressionQuery::qt_metacast(char const *)
	?qt_metacast@QDeclarativeDebugObjectExpressionWatch@@UAEPAXPBD@Z @ 2064 NONAME ; void * QDeclarativeDebugObjectExpressionWatch::qt_metacast(char const *)
	?qt_metacast@QDeclarativeDebugObjectQuery@@UAEPAXPBD@Z @ 2065 NONAME ; void * QDeclarativeDebugObjectQuery::qt_metacast(char const *)
	?qt_metacast@QDeclarativeDebugPropertyWatch@@UAEPAXPBD@Z @ 2066 NONAME ; void * QDeclarativeDebugPropertyWatch::qt_metacast(char const *)
	?qt_metacast@QDeclarativeDebugQuery@@UAEPAXPBD@Z @ 2067 NONAME ; void * QDeclarativeDebugQuery::qt_metacast(char const *)
	?qt_metacast@QDeclarativeDebugRootContextQuery@@UAEPAXPBD@Z @ 2068 NONAME ; void * QDeclarativeDebugRootContextQuery::qt_metacast(char const *)
	?qt_metacast@QDeclarativeDebugService@@UAEPAXPBD@Z @ 2069 NONAME ; void * QDeclarativeDebugService::qt_metacast(char const *)
	?qt_metacast@QDeclarativeDebugWatch@@UAEPAXPBD@Z @ 2070 NONAME ; void * QDeclarativeDebugWatch::qt_metacast(char const *)
	?qt_metacast@QDeclarativeDrag@@UAEPAXPBD@Z @ 2071 NONAME ; void * QDeclarativeDrag::qt_metacast(char const *)
	?qt_metacast@QDeclarativeEaseFollow@@UAEPAXPBD@Z @ 2072 NONAME ABSENT ; void * QDeclarativeEaseFollow::qt_metacast(char const *)
	?qt_metacast@QDeclarativeEngine@@UAEPAXPBD@Z @ 2073 NONAME ; void * QDeclarativeEngine::qt_metacast(char const *)
	?qt_metacast@QDeclarativeEngineDebug@@UAEPAXPBD@Z @ 2074 NONAME ; void * QDeclarativeEngineDebug::qt_metacast(char const *)
	?qt_metacast@QDeclarativeExpression@@UAEPAXPBD@Z @ 2075 NONAME ; void * QDeclarativeExpression::qt_metacast(char const *)
	?qt_metacast@QDeclarativeExtensionPlugin@@UAEPAXPBD@Z @ 2076 NONAME ; void * QDeclarativeExtensionPlugin::qt_metacast(char const *)
	?qt_metacast@QDeclarativeFlickable@@UAEPAXPBD@Z @ 2077 NONAME ; void * QDeclarativeFlickable::qt_metacast(char const *)
	?qt_metacast@QDeclarativeFlipable@@UAEPAXPBD@Z @ 2078 NONAME ; void * QDeclarativeFlipable::qt_metacast(char const *)
	?qt_metacast@QDeclarativeFlow@@UAEPAXPBD@Z @ 2079 NONAME ; void * QDeclarativeFlow::qt_metacast(char const *)
	?qt_metacast@QDeclarativeFocusPanel@@UAEPAXPBD@Z @ 2080 NONAME ; void * QDeclarativeFocusPanel::qt_metacast(char const *)
	?qt_metacast@QDeclarativeFocusScope@@UAEPAXPBD@Z @ 2081 NONAME ; void * QDeclarativeFocusScope::qt_metacast(char const *)
	?qt_metacast@QDeclarativeFontLoader@@UAEPAXPBD@Z @ 2082 NONAME ; void * QDeclarativeFontLoader::qt_metacast(char const *)
	?qt_metacast@QDeclarativeGradient@@UAEPAXPBD@Z @ 2083 NONAME ; void * QDeclarativeGradient::qt_metacast(char const *)
	?qt_metacast@QDeclarativeGradientStop@@UAEPAXPBD@Z @ 2084 NONAME ; void * QDeclarativeGradientStop::qt_metacast(char const *)
	?qt_metacast@QDeclarativeGraphicsObjectContainer@@UAEPAXPBD@Z @ 2085 NONAME ABSENT ; void * QDeclarativeGraphicsObjectContainer::qt_metacast(char const *)
	?qt_metacast@QDeclarativeGrid@@UAEPAXPBD@Z @ 2086 NONAME ; void * QDeclarativeGrid::qt_metacast(char const *)
	?qt_metacast@QDeclarativeGridView@@UAEPAXPBD@Z @ 2087 NONAME ; void * QDeclarativeGridView::qt_metacast(char const *)
	?qt_metacast@QDeclarativeImage@@UAEPAXPBD@Z @ 2088 NONAME ; void * QDeclarativeImage::qt_metacast(char const *)
	?qt_metacast@QDeclarativeImageBase@@UAEPAXPBD@Z @ 2089 NONAME ; void * QDeclarativeImageBase::qt_metacast(char const *)
	?qt_metacast@QDeclarativeItem@@UAEPAXPBD@Z @ 2090 NONAME ; void * QDeclarativeItem::qt_metacast(char const *)
	?qt_metacast@QDeclarativeListModel@@UAEPAXPBD@Z @ 2091 NONAME ; void * QDeclarativeListModel::qt_metacast(char const *)
	?qt_metacast@QDeclarativeListView@@UAEPAXPBD@Z @ 2092 NONAME ; void * QDeclarativeListView::qt_metacast(char const *)
	?qt_metacast@QDeclarativeLoader@@UAEPAXPBD@Z @ 2093 NONAME ; void * QDeclarativeLoader::qt_metacast(char const *)
	?qt_metacast@QDeclarativeMouseArea@@UAEPAXPBD@Z @ 2094 NONAME ; void * QDeclarativeMouseArea::qt_metacast(char const *)
	?qt_metacast@QDeclarativeNumberFormatter@@UAEPAXPBD@Z @ 2095 NONAME ABSENT ; void * QDeclarativeNumberFormatter::qt_metacast(char const *)
	?qt_metacast@QDeclarativePaintedItem@@UAEPAXPBD@Z @ 2096 NONAME ; void * QDeclarativePaintedItem::qt_metacast(char const *)
	?qt_metacast@QDeclarativeParentChange@@UAEPAXPBD@Z @ 2097 NONAME ; void * QDeclarativeParentChange::qt_metacast(char const *)
	?qt_metacast@QDeclarativeParticleMotion@@UAEPAXPBD@Z @ 2098 NONAME ABSENT ; void * QDeclarativeParticleMotion::qt_metacast(char const *)
	?qt_metacast@QDeclarativeParticleMotionGravity@@UAEPAXPBD@Z @ 2099 NONAME ABSENT ; void * QDeclarativeParticleMotionGravity::qt_metacast(char const *)
	?qt_metacast@QDeclarativeParticleMotionLinear@@UAEPAXPBD@Z @ 2100 NONAME ABSENT ; void * QDeclarativeParticleMotionLinear::qt_metacast(char const *)
	?qt_metacast@QDeclarativeParticleMotionWander@@UAEPAXPBD@Z @ 2101 NONAME ABSENT ; void * QDeclarativeParticleMotionWander::qt_metacast(char const *)
	?qt_metacast@QDeclarativeParticles@@UAEPAXPBD@Z @ 2102 NONAME ABSENT ; void * QDeclarativeParticles::qt_metacast(char const *)
	?qt_metacast@QDeclarativePath@@UAEPAXPBD@Z @ 2103 NONAME ; void * QDeclarativePath::qt_metacast(char const *)
	?qt_metacast@QDeclarativePathAttribute@@UAEPAXPBD@Z @ 2104 NONAME ; void * QDeclarativePathAttribute::qt_metacast(char const *)
	?qt_metacast@QDeclarativePathCubic@@UAEPAXPBD@Z @ 2105 NONAME ; void * QDeclarativePathCubic::qt_metacast(char const *)
	?qt_metacast@QDeclarativePathElement@@UAEPAXPBD@Z @ 2106 NONAME ; void * QDeclarativePathElement::qt_metacast(char const *)
	?qt_metacast@QDeclarativePathLine@@UAEPAXPBD@Z @ 2107 NONAME ; void * QDeclarativePathLine::qt_metacast(char const *)
	?qt_metacast@QDeclarativePathPercent@@UAEPAXPBD@Z @ 2108 NONAME ; void * QDeclarativePathPercent::qt_metacast(char const *)
	?qt_metacast@QDeclarativePathQuad@@UAEPAXPBD@Z @ 2109 NONAME ; void * QDeclarativePathQuad::qt_metacast(char const *)
	?qt_metacast@QDeclarativePathView@@UAEPAXPBD@Z @ 2110 NONAME ; void * QDeclarativePathView::qt_metacast(char const *)
	?qt_metacast@QDeclarativePen@@UAEPAXPBD@Z @ 2111 NONAME ; void * QDeclarativePen::qt_metacast(char const *)
	?qt_metacast@QDeclarativePixmapReply@@UAEPAXPBD@Z @ 2112 NONAME ; void * QDeclarativePixmapReply::qt_metacast(char const *)
	?qt_metacast@QDeclarativePropertyChanges@@UAEPAXPBD@Z @ 2113 NONAME ; void * QDeclarativePropertyChanges::qt_metacast(char const *)
	?qt_metacast@QDeclarativePropertyMap@@UAEPAXPBD@Z @ 2114 NONAME ; void * QDeclarativePropertyMap::qt_metacast(char const *)
	?qt_metacast@QDeclarativeRectangle@@UAEPAXPBD@Z @ 2115 NONAME ; void * QDeclarativeRectangle::qt_metacast(char const *)
	?qt_metacast@QDeclarativeRepeater@@UAEPAXPBD@Z @ 2116 NONAME ; void * QDeclarativeRepeater::qt_metacast(char const *)
	?qt_metacast@QDeclarativeRow@@UAEPAXPBD@Z @ 2117 NONAME ; void * QDeclarativeRow::qt_metacast(char const *)
	?qt_metacast@QDeclarativeScaleGrid@@UAEPAXPBD@Z @ 2118 NONAME ; void * QDeclarativeScaleGrid::qt_metacast(char const *)
	?qt_metacast@QDeclarativeSpringFollow@@UAEPAXPBD@Z @ 2119 NONAME ; void * QDeclarativeSpringFollow::qt_metacast(char const *)
	?qt_metacast@QDeclarativeState@@UAEPAXPBD@Z @ 2120 NONAME ; void * QDeclarativeState::qt_metacast(char const *)
	?qt_metacast@QDeclarativeStateChangeScript@@UAEPAXPBD@Z @ 2121 NONAME ; void * QDeclarativeStateChangeScript::qt_metacast(char const *)
	?qt_metacast@QDeclarativeStateGroup@@UAEPAXPBD@Z @ 2122 NONAME ; void * QDeclarativeStateGroup::qt_metacast(char const *)
	?qt_metacast@QDeclarativeStateOperation@@UAEPAXPBD@Z @ 2123 NONAME ; void * QDeclarativeStateOperation::qt_metacast(char const *)
	?qt_metacast@QDeclarativeSystemPalette@@UAEPAXPBD@Z @ 2124 NONAME ; void * QDeclarativeSystemPalette::qt_metacast(char const *)
	?qt_metacast@QDeclarativeText@@UAEPAXPBD@Z @ 2125 NONAME ; void * QDeclarativeText::qt_metacast(char const *)
	?qt_metacast@QDeclarativeTextEdit@@UAEPAXPBD@Z @ 2126 NONAME ; void * QDeclarativeTextEdit::qt_metacast(char const *)
	?qt_metacast@QDeclarativeTextInput@@UAEPAXPBD@Z @ 2127 NONAME ; void * QDeclarativeTextInput::qt_metacast(char const *)
	?qt_metacast@QDeclarativeTimer@@UAEPAXPBD@Z @ 2128 NONAME ; void * QDeclarativeTimer::qt_metacast(char const *)
	?qt_metacast@QDeclarativeTransition@@UAEPAXPBD@Z @ 2129 NONAME ; void * QDeclarativeTransition::qt_metacast(char const *)
	?qt_metacast@QDeclarativeValueType@@UAEPAXPBD@Z @ 2130 NONAME ; void * QDeclarativeValueType::qt_metacast(char const *)
	?qt_metacast@QDeclarativeView@@UAEPAXPBD@Z @ 2131 NONAME ; void * QDeclarativeView::qt_metacast(char const *)
	?qt_metacast@QDeclarativeViewSection@@UAEPAXPBD@Z @ 2132 NONAME ; void * QDeclarativeViewSection::qt_metacast(char const *)
	?qt_metacast@QDeclarativeVisualDataModel@@UAEPAXPBD@Z @ 2133 NONAME ; void * QDeclarativeVisualDataModel::qt_metacast(char const *)
	?qt_metacast@QDeclarativeVisualItemModel@@UAEPAXPBD@Z @ 2134 NONAME ; void * QDeclarativeVisualItemModel::qt_metacast(char const *)
	?qt_metacast@QDeclarativeVisualModel@@UAEPAXPBD@Z @ 2135 NONAME ; void * QDeclarativeVisualModel::qt_metacast(char const *)
	?qt_metacast@QDeclarativeWebPage@@UAEPAXPBD@Z @ 2136 NONAME ABSENT ; void * QDeclarativeWebPage::qt_metacast(char const *)
	?qt_metacast@QDeclarativeWebView@@UAEPAXPBD@Z @ 2137 NONAME ABSENT ; void * QDeclarativeWebView::qt_metacast(char const *)
	?qt_metacast@QDeclarativeXmlListModel@@UAEPAXPBD@Z @ 2138 NONAME ; void * QDeclarativeXmlListModel::qt_metacast(char const *)
	?qt_metacast@QDeclarativeXmlListModelRole@@UAEPAXPBD@Z @ 2139 NONAME ; void * QDeclarativeXmlListModelRole::qt_metacast(char const *)
	?qt_metacast@QListModelInterface@@UAEPAXPBD@Z @ 2140 NONAME ; void * QListModelInterface::qt_metacast(char const *)
	?qt_metacast@QPacketProtocol@@UAEPAXPBD@Z @ 2141 NONAME ; void * QPacketProtocol::qt_metacast(char const *)
	?qualifier@QDeclarativeDomImport@@QBE?AVQString@@XZ @ 2142 NONAME ; class QString QDeclarativeDomImport::qualifier(void) const
	?query@QDeclarativeXmlListModel@@QBE?AVQString@@XZ @ 2143 NONAME ; class QString QDeclarativeXmlListModel::query(void) const
	?query@QDeclarativeXmlListModelRole@@QBE?AVQString@@XZ @ 2144 NONAME ; class QString QDeclarativeXmlListModelRole::query(void) const
	?queryAvailableEngines@QDeclarativeEngineDebug@@QAEPAVQDeclarativeDebugEnginesQuery@@PAVQObject@@@Z @ 2145 NONAME ; class QDeclarativeDebugEnginesQuery * QDeclarativeEngineDebug::queryAvailableEngines(class QObject *)
	?queryCompleted@QDeclarativeXmlListModel@@AAEXHH@Z @ 2146 NONAME ABSENT ; void QDeclarativeXmlListModel::queryCompleted(int, int)
	?queryExpressionResult@QDeclarativeEngineDebug@@QAEPAVQDeclarativeDebugExpressionQuery@@HABVQString@@PAVQObject@@@Z @ 2147 NONAME ; class QDeclarativeDebugExpressionQuery * QDeclarativeEngineDebug::queryExpressionResult(int, class QString const &, class QObject *)
	?queryId@QDeclarativeDebugWatch@@QBEHXZ @ 2148 NONAME ; int QDeclarativeDebugWatch::queryId(void) const
	?queryObject@QDeclarativeEngineDebug@@QAEPAVQDeclarativeDebugObjectQuery@@ABVQDeclarativeDebugObjectReference@@PAVQObject@@@Z @ 2149 NONAME ; class QDeclarativeDebugObjectQuery * QDeclarativeEngineDebug::queryObject(class QDeclarativeDebugObjectReference const &, class QObject *)
	?queryObjectRecursive@QDeclarativeEngineDebug@@QAEPAVQDeclarativeDebugObjectQuery@@ABVQDeclarativeDebugObjectReference@@PAVQObject@@@Z @ 2150 NONAME ; class QDeclarativeDebugObjectQuery * QDeclarativeEngineDebug::queryObjectRecursive(class QDeclarativeDebugObjectReference const &, class QObject *)
	?queryRootContexts@QDeclarativeEngineDebug@@QAEPAVQDeclarativeDebugRootContextQuery@@ABVQDeclarativeDebugEngineReference@@PAVQObject@@@Z @ 2151 NONAME ; class QDeclarativeDebugRootContextQuery * QDeclarativeEngineDebug::queryRootContexts(class QDeclarativeDebugEngineReference const &, class QObject *)
	?quit@QDeclarativeEngine@@IAEXXZ @ 2152 NONAME ; void QDeclarativeEngine::quit(void)
	?radius@QDeclarativeRectangle@@QBEMXZ @ 2153 NONAME ; float QDeclarativeRectangle::radius(void) const
	?radiusChanged@QDeclarativeRectangle@@IAEXXZ @ 2154 NONAME ; void QDeclarativeRectangle::radiusChanged(void)
	?read@QDeclarativeProperty@@QBE?AVQVariant@@XZ @ 2155 NONAME ; class QVariant QDeclarativeProperty::read(void) const
	?read@QDeclarativeProperty@@SA?AVQVariant@@PAVQObject@@ABVQString@@@Z @ 2156 NONAME ; class QVariant QDeclarativeProperty::read(class QObject *, class QString const &)
	?read@QDeclarativeProperty@@SA?AVQVariant@@PAVQObject@@ABVQString@@PAVQDeclarativeContext@@@Z @ 2157 NONAME ; class QVariant QDeclarativeProperty::read(class QObject *, class QString const &, class QDeclarativeContext *)
	?read@QDeclarativeProperty@@SA?AVQVariant@@PAVQObject@@ABVQString@@PAVQDeclarativeEngine@@@Z @ 2158 NONAME ; class QVariant QDeclarativeProperty::read(class QObject *, class QString const &, class QDeclarativeEngine *)
	?read@QPacketProtocol@@QAE?AVQPacket@@XZ @ 2159 NONAME ; class QPacket QPacketProtocol::read(void)
	?readOnlyChanged@QDeclarativeTextEdit@@IAEX_N@Z @ 2160 NONAME ; void QDeclarativeTextEdit::readOnlyChanged(bool)
	?readOnlyChanged@QDeclarativeTextInput@@IAEX_N@Z @ 2161 NONAME ; void QDeclarativeTextInput::readOnlyChanged(bool)
	?readyRead@QPacketProtocol@@IAEXXZ @ 2162 NONAME ; void QPacketProtocol::readyRead(void)
	?rectFFromString@QDeclarativeStringConverters@@YA?AVQRectF@@ABVQString@@PA_N@Z @ 2163 NONAME ; class QRectF QDeclarativeStringConverters::rectFFromString(class QString const &, bool *)
	?refill@QDeclarativeGridView@@AAEXXZ @ 2164 NONAME ; void QDeclarativeGridView::refill(void)
	?refill@QDeclarativeListView@@AAEXXZ @ 2165 NONAME ; void QDeclarativeListView::refill(void)
	?refill@QDeclarativePathView@@AAEXXZ @ 2166 NONAME ; void QDeclarativePathView::refill(void)
	?refreshExpressions@QDeclarativeContextPrivate@@QAEXXZ @ 2167 NONAME ABSENT ; void QDeclarativeContextPrivate::refreshExpressions(void)
	?regenerate@QDeclarativeRepeater@@AAEXXZ @ 2168 NONAME ; void QDeclarativeRepeater::regenerate(void)
	?registerCustomStringConverter@QDeclarativeMetaType@@SAXHP6A?AVQVariant@@ABVQString@@@Z@Z @ 2169 NONAME ; void QDeclarativeMetaType::registerCustomStringConverter(int, class QVariant (*)(class QString const &))
	?registerType@QDeclarativePrivate@@YAHABURegisterInterface@1@@Z @ 2170 NONAME ; int QDeclarativePrivate::registerType(struct QDeclarativePrivate::RegisterInterface const &)
	?registerType@QDeclarativePrivate@@YAHABURegisterType@1@@Z @ 2171 NONAME ; int QDeclarativePrivate::registerType(struct QDeclarativePrivate::RegisterType const &)
	?relatedMetaObject@QMetaObjectBuilder@@QBEPBUQMetaObject@@H@Z @ 2172 NONAME ; struct QMetaObject const * QMetaObjectBuilder::relatedMetaObject(int) const
	?relatedMetaObjectCount@QMetaObjectBuilder@@QBEHXZ @ 2173 NONAME ; int QMetaObjectBuilder::relatedMetaObjectCount(void) const
	?release@QDeclarativePixmapReply@@AAE_N_N@Z @ 2174 NONAME ; bool QDeclarativePixmapReply::release(bool)
	?release@QDeclarativeVisualDataModel@@UAE?AV?$QFlags@W4ReleaseFlag@QDeclarativeVisualModel@@@@PAVQDeclarativeItem@@@Z @ 2175 NONAME ; class QFlags<enum QDeclarativeVisualModel::ReleaseFlag> QDeclarativeVisualDataModel::release(class QDeclarativeItem *)
	?release@QDeclarativeVisualItemModel@@UAE?AV?$QFlags@W4ReleaseFlag@QDeclarativeVisualModel@@@@PAVQDeclarativeItem@@@Z @ 2176 NONAME ; class QFlags<enum QDeclarativeVisualModel::ReleaseFlag> QDeclarativeVisualItemModel::release(class QDeclarativeItem *)
	?released@QDeclarativeMouseArea@@IAEXPAVQDeclarativeMouseEvent@@@Z @ 2177 NONAME ; void QDeclarativeMouseArea::released(class QDeclarativeMouseEvent *)
	?reload@QDeclarativeXmlListModel@@QAEXXZ @ 2178 NONAME ; void QDeclarativeXmlListModel::reload(void)
	?reloadAction@QDeclarativeWebView@@QBEPAVQAction@@XZ @ 2179 NONAME ABSENT ; class QAction * QDeclarativeWebView::reloadAction(void) const
	?remove@QDeclarativeListModel@@QAEXH@Z @ 2180 NONAME ; void QDeclarativeListModel::remove(int)
	?removeClassInfo@QMetaObjectBuilder@@QAEXH@Z @ 2181 NONAME ; void QMetaObjectBuilder::removeClassInfo(int)
	?removeConstructor@QMetaObjectBuilder@@QAEXH@Z @ 2182 NONAME ; void QMetaObjectBuilder::removeConstructor(int)
	?removeEnumerator@QMetaObjectBuilder@@QAEXH@Z @ 2183 NONAME ; void QMetaObjectBuilder::removeEnumerator(int)
	?removeImageProvider@QDeclarativeEngine@@QAEXABVQString@@@Z @ 2184 NONAME ; void QDeclarativeEngine::removeImageProvider(class QString const &)
	?removeKey@QMetaEnumBuilder@@QAEXH@Z @ 2185 NONAME ; void QMetaEnumBuilder::removeKey(int)
	?removeMethod@QMetaObjectBuilder@@QAEXH@Z @ 2186 NONAME ; void QMetaObjectBuilder::removeMethod(int)
	?removeNotifySignal@QMetaPropertyBuilder@@QAEXXZ @ 2187 NONAME ; void QMetaPropertyBuilder::removeNotifySignal(void)
	?removeProperty@QMetaObjectBuilder@@QAEXH@Z @ 2188 NONAME ; void QMetaObjectBuilder::removeProperty(int)
	?removeRelatedMetaObject@QMetaObjectBuilder@@QAEXH@Z @ 2189 NONAME ; void QMetaObjectBuilder::removeRelatedMetaObject(int)
	?removeState@QDeclarativeStateGroup@@AAEXPAVQDeclarativeState@@@Z @ 2190 NONAME ; void QDeclarativeStateGroup::removeState(class QDeclarativeState *)
	?removeWatch@QDeclarativeEngineDebug@@QAEXPAVQDeclarativeDebugWatch@@@Z @ 2191 NONAME ; void QDeclarativeEngineDebug::removeWatch(class QDeclarativeDebugWatch *)
	?renderingEnabled@QDeclarativeWebView@@QBE_NXZ @ 2192 NONAME ABSENT ; bool QDeclarativeWebView::renderingEnabled(void) const
	?renderingEnabledChanged@QDeclarativeWebView@@IAEXXZ @ 2193 NONAME ABSENT ; void QDeclarativeWebView::renderingEnabledChanged(void)
	?replyFinished@QDeclarativeFontLoader@@AAEXXZ @ 2194 NONAME ; void QDeclarativeFontLoader::replyFinished(void)
	?request@QDeclarativePixmapCache@@SAPAVQDeclarativePixmapReply@@PAVQDeclarativeEngine@@ABVQUrl@@@Z @ 2195 NONAME ABSENT ; class QDeclarativePixmapReply * QDeclarativePixmapCache::request(class QDeclarativeEngine *, class QUrl const &)
	?requestFinished@QDeclarativeBorderImage@@EAEXXZ @ 2196 NONAME ; void QDeclarativeBorderImage::requestFinished(void)
	?requestFinished@QDeclarativeImageBase@@EAEXXZ @ 2197 NONAME ; void QDeclarativeImageBase::requestFinished(void)
	?requestFinished@QDeclarativeXmlListModel@@AAEXXZ @ 2198 NONAME ; void QDeclarativeXmlListModel::requestFinished(void)
	?requestProgress@QDeclarativeImageBase@@AAEX_J0@Z @ 2199 NONAME ; void QDeclarativeImageBase::requestProgress(long long, long long)
	?requestProgress@QDeclarativeXmlListModel@@AAEX_J0@Z @ 2200 NONAME ; void QDeclarativeXmlListModel::requestProgress(long long, long long)
	?reset@QDeclarativeAnchorChanges@@QBE?AVQString@@XZ @ 2201 NONAME ABSENT ; class QString QDeclarativeAnchorChanges::reset(void) const
	?reset@QDeclarativeCompiler@@CAXPAVQDeclarativeCompiledData@@@Z @ 2202 NONAME ; void QDeclarativeCompiler::reset(class QDeclarativeCompiledData *)
	?reset@QDeclarativeProperty@@QBE_NXZ @ 2203 NONAME ; bool QDeclarativeProperty::reset(void) const
	?resetBaseline@QDeclarativeAnchors@@QAEXXZ @ 2204 NONAME ; void QDeclarativeAnchors::resetBaseline(void)
	?resetBottom@QDeclarativeAnchors@@QAEXXZ @ 2205 NONAME ; void QDeclarativeAnchors::resetBottom(void)
	?resetCenterIn@QDeclarativeAnchors@@QAEXXZ @ 2206 NONAME ; void QDeclarativeAnchors::resetCenterIn(void)
	?resetFill@QDeclarativeAnchors@@QAEXXZ @ 2207 NONAME ; void QDeclarativeAnchors::resetFill(void)
	?resetHeight@QDeclarativeItem@@QAEXXZ @ 2208 NONAME ; void QDeclarativeItem::resetHeight(void)
	?resetHorizontalCenter@QDeclarativeAnchors@@QAEXXZ @ 2209 NONAME ; void QDeclarativeAnchors::resetHorizontalCenter(void)
	?resetLeft@QDeclarativeAnchors@@QAEXXZ @ 2210 NONAME ; void QDeclarativeAnchors::resetLeft(void)
	?resetRight@QDeclarativeAnchors@@QAEXXZ @ 2211 NONAME ; void QDeclarativeAnchors::resetRight(void)
	?resetTop@QDeclarativeAnchors@@QAEXXZ @ 2212 NONAME ; void QDeclarativeAnchors::resetTop(void)
	?resetVerticalCenter@QDeclarativeAnchors@@QAEXXZ @ 2213 NONAME ; void QDeclarativeAnchors::resetVerticalCenter(void)
	?resetWidth@QDeclarativeItem@@QAEXXZ @ 2214 NONAME ; void QDeclarativeItem::resetWidth(void)
	?resizeEvent@QDeclarativeView@@MAEXPAVQResizeEvent@@@Z @ 2215 NONAME ; void QDeclarativeView::resizeEvent(class QResizeEvent *)
	?resizeMode@QDeclarativeLoader@@QBE?AW4ResizeMode@1@XZ @ 2216 NONAME ABSENT ; enum QDeclarativeLoader::ResizeMode QDeclarativeLoader::resizeMode(void) const
	?resizeMode@QDeclarativeView@@QBE?AW4ResizeMode@1@XZ @ 2217 NONAME ; enum QDeclarativeView::ResizeMode QDeclarativeView::resizeMode(void) const
	?resizeModeChanged@QDeclarativeLoader@@IAEXXZ @ 2218 NONAME ABSENT ; void QDeclarativeLoader::resizeModeChanged(void)
	?resolvedUrl@QDeclarativeContext@@QAE?AVQUrl@@ABV2@@Z @ 2219 NONAME ; class QUrl QDeclarativeContext::resolvedUrl(class QUrl const &)
	?resources@QDeclarativeItem@@QAE?AU?$QDeclarativeListProperty@VQObject@@@@XZ @ 2220 NONAME ABSENT ; struct QDeclarativeListProperty<class QObject> QDeclarativeItem::resources(void)
	?restart@QDeclarativeTimer@@QAEXXZ @ 2221 NONAME ; void QDeclarativeTimer::restart(void)
	?restoreEntryValues@QDeclarativePropertyChanges@@QBE_NXZ @ 2222 NONAME ; bool QDeclarativePropertyChanges::restoreEntryValues(void) const
	?result@QDeclarativeDebugExpressionQuery@@QBE?AVQVariant@@XZ @ 2223 NONAME ; class QVariant QDeclarativeDebugExpressionQuery::result(void) const
	?returnType@QMetaMethodBuilder@@QBE?AVQByteArray@@XZ @ 2224 NONAME ; class QByteArray QMetaMethodBuilder::returnType(void) const
	?reverse@QDeclarativeAnchorChanges@@UAEXXZ @ 2225 NONAME ABSENT ; void QDeclarativeAnchorChanges::reverse(void)
	?reverse@QDeclarativeParentChange@@UAEXXZ @ 2226 NONAME ABSENT ; void QDeclarativeParentChange::reverse(void)
	?reversible@QDeclarativeTransition@@QBE_NXZ @ 2227 NONAME ; bool QDeclarativeTransition::reversible(void) const
	?reversingMode@QDeclarativeEaseFollow@@QBE?AW4ReversingMode@1@XZ @ 2228 NONAME ABSENT ; enum QDeclarativeEaseFollow::ReversingMode QDeclarativeEaseFollow::reversingMode(void) const
	?reversingModeChanged@QDeclarativeEaseFollow@@IAEXXZ @ 2229 NONAME ABSENT ; void QDeclarativeEaseFollow::reversingModeChanged(void)
	?rewind@QDeclarativeAnchorChanges@@UAEXXZ @ 2230 NONAME ; void QDeclarativeAnchorChanges::rewind(void)
	?rewind@QDeclarativeParentChange@@UAEXXZ @ 2231 NONAME ; void QDeclarativeParentChange::rewind(void)
	?right@QDeclarativeAnchorChanges@@QBE?AVQDeclarativeAnchorLine@@XZ @ 2232 NONAME ABSENT ; class QDeclarativeAnchorLine QDeclarativeAnchorChanges::right(void) const
	?right@QDeclarativeAnchors@@QBE?AVQDeclarativeAnchorLine@@XZ @ 2233 NONAME ABSENT ; class QDeclarativeAnchorLine QDeclarativeAnchors::right(void) const
	?right@QDeclarativeItem@@QBE?AVQDeclarativeAnchorLine@@XZ @ 2234 NONAME ABSENT ; class QDeclarativeAnchorLine QDeclarativeItem::right(void) const
	?right@QDeclarativeScaleGrid@@QBEHXZ @ 2235 NONAME ; int QDeclarativeScaleGrid::right(void) const
	?rightChanged@QDeclarativeAnchors@@IAEXXZ @ 2236 NONAME ; void QDeclarativeAnchors::rightChanged(void)
	?rightMargin@QDeclarativeAnchors@@QBEMXZ @ 2237 NONAME ; float QDeclarativeAnchors::rightMargin(void) const
	?rightMarginChanged@QDeclarativeAnchors@@IAEXXZ @ 2238 NONAME ; void QDeclarativeAnchors::rightMarginChanged(void)
	?roleObjects@QDeclarativeXmlListModel@@QAE?AU?$QDeclarativeListProperty@VQDeclarativeXmlListModelRole@@@@XZ @ 2239 NONAME ABSENT ; struct QDeclarativeListProperty<class QDeclarativeXmlListModelRole> QDeclarativeXmlListModel::roleObjects(void)
	?roles@QDeclarativeListModel@@UBE?AV?$QList@H@@XZ @ 2240 NONAME ; class QList<int> QDeclarativeListModel::roles(void) const
	?roles@QDeclarativeXmlListModel@@UBE?AV?$QList@H@@XZ @ 2241 NONAME ; class QList<int> QDeclarativeXmlListModel::roles(void) const
	?rootContext@QDeclarativeDebugRootContextQuery@@QBE?AVQDeclarativeDebugContextReference@@XZ @ 2242 NONAME ; class QDeclarativeDebugContextReference QDeclarativeDebugRootContextQuery::rootContext(void) const
	?rootContext@QDeclarativeEngine@@QAEPAVQDeclarativeContext@@XZ @ 2243 NONAME ; class QDeclarativeContext * QDeclarativeEngine::rootContext(void)
	?rootContext@QDeclarativeView@@QAEPAVQDeclarativeContext@@XZ @ 2244 NONAME ; class QDeclarativeContext * QDeclarativeView::rootContext(void)
	?rootIndex@QDeclarativeVisualDataModel@@QBE?AVQModelIndex@@XZ @ 2245 NONAME ABSENT ; class QModelIndex QDeclarativeVisualDataModel::rootIndex(void) const
	?rootIndexChanged@QDeclarativeVisualDataModel@@IAEXXZ @ 2246 NONAME ; void QDeclarativeVisualDataModel::rootIndexChanged(void)
	?rootObject@QDeclarativeDomDocument@@QBE?AVQDeclarativeDomObject@@XZ @ 2247 NONAME ; class QDeclarativeDomObject QDeclarativeDomDocument::rootObject(void) const
	?rootObject@QDeclarativeView@@QBEPAVQGraphicsObject@@XZ @ 2248 NONAME ; class QGraphicsObject * QDeclarativeView::rootObject(void) const
	?rotation@QDeclarativeParentChange@@QBEMXZ @ 2249 NONAME ABSENT ; float QDeclarativeParentChange::rotation(void) const
	?rotationIsSet@QDeclarativeParentChange@@QBE_NXZ @ 2250 NONAME ; bool QDeclarativeParentChange::rotationIsSet(void) const
	?rows@QDeclarativeGrid@@QBEHXZ @ 2251 NONAME ; int QDeclarativeGrid::rows(void) const
	?rowsChanged@QDeclarativeGrid@@IAEXXZ @ 2252 NONAME ; void QDeclarativeGrid::rowsChanged(void)
	?runningChanged@QDeclarativeTimer@@IAEXXZ @ 2253 NONAME ; void QDeclarativeTimer::runningChanged(void)
	?saveComponentState@QDeclarativeCompiler@@AAEXXZ @ 2254 NONAME ; void QDeclarativeCompiler::saveComponentState(void)
	?saveCurrentValues@QDeclarativeAnchorChanges@@UAEXXZ @ 2255 NONAME ; void QDeclarativeAnchorChanges::saveCurrentValues(void)
	?saveCurrentValues@QDeclarativeParentChange@@UAEXXZ @ 2256 NONAME ; void QDeclarativeParentChange::saveCurrentValues(void)
	?saveOriginals@QDeclarativeAnchorChanges@@UAEXXZ @ 2257 NONAME ; void QDeclarativeAnchorChanges::saveOriginals(void)
	?saveOriginals@QDeclarativeParentChange@@UAEXXZ @ 2258 NONAME ; void QDeclarativeParentChange::saveOriginals(void)
	?scale@QDeclarativeParentChange@@QBEMXZ @ 2259 NONAME ABSENT ; float QDeclarativeParentChange::scale(void) const
	?scaleIsSet@QDeclarativeParentChange@@QBE_NXZ @ 2260 NONAME ; bool QDeclarativeParentChange::scaleIsSet(void) const
	?sceneEvent@QDeclarativeFocusPanel@@MAE_NPAVQEvent@@@Z @ 2261 NONAME ; bool QDeclarativeFocusPanel::sceneEvent(class QEvent *)
	?sceneEvent@QDeclarativeItem@@MAE_NPAVQEvent@@@Z @ 2262 NONAME ; bool QDeclarativeItem::sceneEvent(class QEvent *)
	?sceneEvent@QDeclarativeMouseArea@@MAE_NPAVQEvent@@@Z @ 2263 NONAME ; bool QDeclarativeMouseArea::sceneEvent(class QEvent *)
	?sceneEvent@QDeclarativeWebView@@MAE_NPAVQEvent@@@Z @ 2264 NONAME ABSENT ; bool QDeclarativeWebView::sceneEvent(class QEvent *)
	?sceneEventFilter@QDeclarativeFlickable@@MAE_NPAVQGraphicsItem@@PAVQEvent@@@Z @ 2265 NONAME ; bool QDeclarativeFlickable::sceneEventFilter(class QGraphicsItem *, class QEvent *)
	?sceneEventFilter@QDeclarativePathView@@MAE_NPAVQGraphicsItem@@PAVQEvent@@@Z @ 2266 NONAME ; bool QDeclarativePathView::sceneEventFilter(class QGraphicsItem *, class QEvent *)
	?sceneHoverMoveEventToMouseEvent@QDeclarativeWebView@@AAEPAVQMouseEvent@@PAVQGraphicsSceneHoverEvent@@@Z @ 2267 NONAME ABSENT ; class QMouseEvent * QDeclarativeWebView::sceneHoverMoveEventToMouseEvent(class QGraphicsSceneHoverEvent *)
	?sceneMouseEventToMouseEvent@QDeclarativeWebView@@AAEPAVQMouseEvent@@PAVQGraphicsSceneMouseEvent@@@Z @ 2268 NONAME ABSENT ; class QMouseEvent * QDeclarativeWebView::sceneMouseEventToMouseEvent(class QGraphicsSceneMouseEvent *)
	?sceneResized@QDeclarativeView@@IAEXVQSize@@@Z @ 2269 NONAME ; void QDeclarativeView::sceneResized(class QSize)
	?sciRequestFinished@QDeclarativeBorderImage@@AAEXXZ @ 2270 NONAME ; void QDeclarativeBorderImage::sciRequestFinished(void)
	?scopeObject@QDeclarativeExpression@@QBEPAVQObject@@XZ @ 2271 NONAME ; class QObject * QDeclarativeExpression::scopeObject(void) const
	?scopeObject@QDeclarativeScriptString@@QBEPAVQObject@@XZ @ 2272 NONAME ; class QObject * QDeclarativeScriptString::scopeObject(void) const
	?script@QDeclarativeScriptString@@QBE?AVQString@@XZ @ 2273 NONAME ; class QString QDeclarativeScriptString::script(void) const
	?script@QDeclarativeStateChangeScript@@QBE?AVQDeclarativeScriptString@@XZ @ 2274 NONAME ; class QDeclarativeScriptString QDeclarativeStateChangeScript::script(void) const
	?sectionCriteria@QDeclarativeListView@@QAEPAVQDeclarativeViewSection@@XZ @ 2275 NONAME ; class QDeclarativeViewSection * QDeclarativeListView::sectionCriteria(void)
	?sectionString@QDeclarativeViewSection@@QAE?AVQString@@ABV2@@Z @ 2276 NONAME ; class QString QDeclarativeViewSection::sectionString(class QString const &)
	?selectAll@QDeclarativeTextEdit@@QAEXXZ @ 2277 NONAME ; void QDeclarativeTextEdit::selectAll(void)
	?selectAll@QDeclarativeTextInput@@QAEXXZ @ 2278 NONAME ; void QDeclarativeTextInput::selectAll(void)
	?selectedText@QDeclarativeTextEdit@@QBE?AVQString@@XZ @ 2279 NONAME ; class QString QDeclarativeTextEdit::selectedText(void) const
	?selectedText@QDeclarativeTextInput@@QBE?AVQString@@XZ @ 2280 NONAME ; class QString QDeclarativeTextInput::selectedText(void) const
	?selectedTextChanged@QDeclarativeTextInput@@IAEXXZ @ 2281 NONAME ; void QDeclarativeTextInput::selectedTextChanged(void)
	?selectedTextColor@QDeclarativeTextEdit@@QBE?AVQColor@@XZ @ 2282 NONAME ; class QColor QDeclarativeTextEdit::selectedTextColor(void) const
	?selectedTextColor@QDeclarativeTextInput@@QBE?AVQColor@@XZ @ 2283 NONAME ; class QColor QDeclarativeTextInput::selectedTextColor(void) const
	?selectedTextColorChanged@QDeclarativeTextEdit@@IAEXABVQColor@@@Z @ 2284 NONAME ; void QDeclarativeTextEdit::selectedTextColorChanged(class QColor const &)
	?selectedTextColorChanged@QDeclarativeTextInput@@IAEXABVQColor@@@Z @ 2285 NONAME ; void QDeclarativeTextInput::selectedTextColorChanged(class QColor const &)
	?selectionChanged@QDeclarativeTextEdit@@IAEXXZ @ 2286 NONAME ; void QDeclarativeTextEdit::selectionChanged(void)
	?selectionChanged@QDeclarativeTextInput@@AAEXXZ @ 2287 NONAME ; void QDeclarativeTextInput::selectionChanged(void)
	?selectionColor@QDeclarativeTextEdit@@QBE?AVQColor@@XZ @ 2288 NONAME ; class QColor QDeclarativeTextEdit::selectionColor(void) const
	?selectionColor@QDeclarativeTextInput@@QBE?AVQColor@@XZ @ 2289 NONAME ; class QColor QDeclarativeTextInput::selectionColor(void) const
	?selectionColorChanged@QDeclarativeTextEdit@@IAEXABVQColor@@@Z @ 2290 NONAME ; void QDeclarativeTextEdit::selectionColorChanged(class QColor const &)
	?selectionColorChanged@QDeclarativeTextInput@@IAEXABVQColor@@@Z @ 2291 NONAME ; void QDeclarativeTextInput::selectionColorChanged(class QColor const &)
	?selectionEnd@QDeclarativeTextEdit@@QBEHXZ @ 2292 NONAME ; int QDeclarativeTextEdit::selectionEnd(void) const
	?selectionEnd@QDeclarativeTextInput@@QBEHXZ @ 2293 NONAME ; int QDeclarativeTextInput::selectionEnd(void) const
	?selectionEndChanged@QDeclarativeTextEdit@@IAEXXZ @ 2294 NONAME ; void QDeclarativeTextEdit::selectionEndChanged(void)
	?selectionEndChanged@QDeclarativeTextInput@@IAEXXZ @ 2295 NONAME ; void QDeclarativeTextInput::selectionEndChanged(void)
	?selectionStart@QDeclarativeTextEdit@@QBEHXZ @ 2296 NONAME ; int QDeclarativeTextEdit::selectionStart(void) const
	?selectionStart@QDeclarativeTextInput@@QBEHXZ @ 2297 NONAME ; int QDeclarativeTextInput::selectionStart(void) const
	?selectionStartChanged@QDeclarativeTextEdit@@IAEXXZ @ 2298 NONAME ; void QDeclarativeTextEdit::selectionStartChanged(void)
	?selectionStartChanged@QDeclarativeTextInput@@IAEXXZ @ 2299 NONAME ; void QDeclarativeTextInput::selectionStartChanged(void)
	?send@QPacketProtocol@@QAE?AVQPacketAutoSend@@XZ @ 2300 NONAME ; class QPacketAutoSend QPacketProtocol::send(void)
	?send@QPacketProtocol@@QAEXABVQPacket@@@Z @ 2301 NONAME ; void QPacketProtocol::send(class QPacket const &)
	?sendMessage@QDeclarativeDebugClient@@QAEXABVQByteArray@@@Z @ 2302 NONAME ; void QDeclarativeDebugClient::sendMessage(class QByteArray const &)
	?sendMessage@QDeclarativeDebugService@@QAEXABVQByteArray@@@Z @ 2303 NONAME ; void QDeclarativeDebugService::sendMessage(class QByteArray const &)
	?sendMouseEvent@QDeclarativeFlickable@@IAE_NPAVQGraphicsSceneMouseEvent@@@Z @ 2304 NONAME ; bool QDeclarativeFlickable::sendMouseEvent(class QGraphicsSceneMouseEvent *)
	?sendMouseEvent@QDeclarativePathView@@IAE_NPAVQGraphicsSceneMouseEvent@@@Z @ 2305 NONAME ; bool QDeclarativePathView::sendMouseEvent(class QGraphicsSceneMouseEvent *)
	?serialize@QMetaObjectBuilder@@QBEXAAVQDataStream@@@Z @ 2306 NONAME ; void QMetaObjectBuilder::serialize(class QDataStream &) const
	?set@QDeclarativeListModel@@QAEXHABVQScriptValue@@@Z @ 2307 NONAME ; void QDeclarativeListModel::set(int, class QScriptValue const &)
	?setAcceleration@QDeclarativeParticleMotionGravity@@QAEXM@Z @ 2308 NONAME ABSENT ; void QDeclarativeParticleMotionGravity::setAcceleration(float)
	?setAcceptedButtons@QDeclarativeMouseArea@@QAEXV?$QFlags@W4MouseButton@Qt@@@@@Z @ 2309 NONAME ; void QDeclarativeMouseArea::setAcceptedButtons(class QFlags<enum Qt::MouseButton>)
	?setAccess@QMetaMethodBuilder@@QAEXW4Access@QMetaMethod@@@Z @ 2310 NONAME ; void QMetaMethodBuilder::setAccess(enum QMetaMethod::Access)
	?setAdd@QDeclarativeBasePositioner@@QAEXPAVQDeclarativeTransition@@@Z @ 2311 NONAME ; void QDeclarativeBasePositioner::setAdd(class QDeclarativeTransition *)
	?setAngle@QDeclarativeParticles@@QAEXM@Z @ 2312 NONAME ABSENT ; void QDeclarativeParticles::setAngle(float)
	?setAngleDeviation@QDeclarativeParticles@@QAEXM@Z @ 2313 NONAME ABSENT ; void QDeclarativeParticles::setAngleDeviation(float)
	?setAnimation@QDeclarativeBehavior@@QAEXPAVQDeclarativeAbstractAnimation@@@Z @ 2314 NONAME ; void QDeclarativeBehavior::setAnimation(class QDeclarativeAbstractAnimation *)
	?setAsynchronous@QDeclarativeImageBase@@QAEX_N@Z @ 2315 NONAME ; void QDeclarativeImageBase::setAsynchronous(bool)
	?setAttributes@QMetaMethodBuilder@@QAEXH@Z @ 2316 NONAME ; void QMetaMethodBuilder::setAttributes(int)
	?setAxis@QDeclarativeDrag@@QAEXW4Axis@1@@Z @ 2317 NONAME ; void QDeclarativeDrag::setAxis(enum QDeclarativeDrag::Axis)
	?setBack@QDeclarativeFlipable@@QAEXPAVQDeclarativeItem@@@Z @ 2318 NONAME ABSENT ; void QDeclarativeFlipable::setBack(class QDeclarativeItem *)
	?setBaseUrl@QDeclarativeContext@@QAEXABVQUrl@@@Z @ 2319 NONAME ; void QDeclarativeContext::setBaseUrl(class QUrl const &)
	?setBaseUrl@QDeclarativeEngine@@QAEXABVQUrl@@@Z @ 2320 NONAME ; void QDeclarativeEngine::setBaseUrl(class QUrl const &)
	?setBaseline@QDeclarativeAnchorChanges@@QAEXABVQDeclarativeAnchorLine@@@Z @ 2321 NONAME ABSENT ; void QDeclarativeAnchorChanges::setBaseline(class QDeclarativeAnchorLine const &)
	?setBaseline@QDeclarativeAnchors@@QAEXABVQDeclarativeAnchorLine@@@Z @ 2322 NONAME ABSENT ; void QDeclarativeAnchors::setBaseline(class QDeclarativeAnchorLine const &)
	?setBaselineOffset@QDeclarativeAnchors@@QAEXM@Z @ 2323 NONAME ; void QDeclarativeAnchors::setBaselineOffset(float)
	?setBaselineOffset@QDeclarativeItem@@QAEXM@Z @ 2324 NONAME ; void QDeclarativeItem::setBaselineOffset(float)
	?setBottom@QDeclarativeAnchorChanges@@QAEXABVQDeclarativeAnchorLine@@@Z @ 2325 NONAME ABSENT ; void QDeclarativeAnchorChanges::setBottom(class QDeclarativeAnchorLine const &)
	?setBottom@QDeclarativeAnchors@@QAEXABVQDeclarativeAnchorLine@@@Z @ 2326 NONAME ABSENT ; void QDeclarativeAnchors::setBottom(class QDeclarativeAnchorLine const &)
	?setBottom@QDeclarativeScaleGrid@@QAEXH@Z @ 2327 NONAME ; void QDeclarativeScaleGrid::setBottom(int)
	?setBottomMargin@QDeclarativeAnchors@@QAEXM@Z @ 2328 NONAME ; void QDeclarativeAnchors::setBottomMargin(float)
	?setCacheBuffer@QDeclarativeGridView@@QAEXH@Z @ 2329 NONAME ; void QDeclarativeGridView::setCacheBuffer(int)
	?setCacheBuffer@QDeclarativeListView@@QAEXH@Z @ 2330 NONAME ; void QDeclarativeListView::setCacheBuffer(int)
	?setCacheFrozen@QDeclarativePaintedItem@@IAEX_N@Z @ 2331 NONAME ; void QDeclarativePaintedItem::setCacheFrozen(bool)
	?setCached@QDeclarativeOpenMetaObject@@QAEX_N@Z @ 2332 NONAME ; void QDeclarativeOpenMetaObject::setCached(bool)
	?setCellHeight@QDeclarativeGridView@@QAEXH@Z @ 2333 NONAME ; void QDeclarativeGridView::setCellHeight(int)
	?setCellWidth@QDeclarativeGridView@@QAEXH@Z @ 2334 NONAME ; void QDeclarativeGridView::setCellWidth(int)
	?setCenterIn@QDeclarativeAnchors@@QAEXPAVQDeclarativeItem@@@Z @ 2335 NONAME ABSENT ; void QDeclarativeAnchors::setCenterIn(class QDeclarativeItem *)
	?setClassName@QMetaObjectBuilder@@QAEXABVQByteArray@@@Z @ 2336 NONAME ; void QMetaObjectBuilder::setClassName(class QByteArray const &)
	?setClip@QDeclarativeItem@@QAEX_N@Z @ 2337 NONAME ; void QDeclarativeItem::setClip(bool)
	?setColor@QDeclarativeGradientStop@@QAEXABVQColor@@@Z @ 2338 NONAME ; void QDeclarativeGradientStop::setColor(class QColor const &)
	?setColor@QDeclarativePen@@QAEXABVQColor@@@Z @ 2339 NONAME ; void QDeclarativePen::setColor(class QColor const &)
	?setColor@QDeclarativeRectangle@@QAEXABVQColor@@@Z @ 2340 NONAME ; void QDeclarativeRectangle::setColor(class QColor const &)
	?setColor@QDeclarativeText@@QAEXABVQColor@@@Z @ 2341 NONAME ; void QDeclarativeText::setColor(class QColor const &)
	?setColor@QDeclarativeTextEdit@@QAEXABVQColor@@@Z @ 2342 NONAME ; void QDeclarativeTextEdit::setColor(class QColor const &)
	?setColor@QDeclarativeTextInput@@QAEXABVQColor@@@Z @ 2343 NONAME ; void QDeclarativeTextInput::setColor(class QColor const &)
	?setColorGroup@QDeclarativeSystemPalette@@QAEXW4ColorGroup@1@@Z @ 2344 NONAME ; void QDeclarativeSystemPalette::setColorGroup(enum QDeclarativeSystemPalette::ColorGroup)
	?setColumn@QDeclarativeError@@QAEXH@Z @ 2345 NONAME ; void QDeclarativeError::setColumn(int)
	?setColumnNumber@QDeclarativeDebugFileReference@@QAEXH@Z @ 2346 NONAME ; void QDeclarativeDebugFileReference::setColumnNumber(int)
	?setColumns@QDeclarativeGrid@@QAEXH@Z @ 2347 NONAME ; void QDeclarativeGrid::setColumns(int)
	?setConsistentTime@QDeclarativeItemPrivate@@SAXH@Z @ 2348 NONAME ABSENT ; void QDeclarativeItemPrivate::setConsistentTime(int)
	?setContent@QDeclarativeWebView@@QAEXABVQByteArray@@ABVQString@@ABVQUrl@@@Z @ 2349 NONAME ABSENT ; void QDeclarativeWebView::setContent(class QByteArray const &, class QString const &, class QUrl const &)
	?setContentHeight@QDeclarativeFlickable@@QAEXM@Z @ 2350 NONAME ; void QDeclarativeFlickable::setContentHeight(float)
	?setContentWidth@QDeclarativeFlickable@@QAEXM@Z @ 2351 NONAME ; void QDeclarativeFlickable::setContentWidth(float)
	?setContentX@QDeclarativeFlickable@@QAEXM@Z @ 2352 NONAME ; void QDeclarativeFlickable::setContentX(float)
	?setContentY@QDeclarativeFlickable@@QAEXM@Z @ 2353 NONAME ; void QDeclarativeFlickable::setContentY(float)
	?setContentsScale@QDeclarativePaintedItem@@QAEXM@Z @ 2354 NONAME ; void QDeclarativePaintedItem::setContentsScale(float)
	?setContentsSize@QDeclarativePaintedItem@@QAEXABVQSize@@@Z @ 2355 NONAME ; void QDeclarativePaintedItem::setContentsSize(class QSize const &)
	?setContext@QDeclarativeScriptString@@QAEXPAVQDeclarativeContext@@@Z @ 2356 NONAME ; void QDeclarativeScriptString::setContext(class QDeclarativeContext *)
	?setContextForObject@QDeclarativeEngine@@SAXPAVQObject@@PAVQDeclarativeContext@@@Z @ 2357 NONAME ; void QDeclarativeEngine::setContextForObject(class QObject *, class QDeclarativeContext *)
	?setContextProperty@QDeclarativeContext@@QAEXABVQString@@ABVQVariant@@@Z @ 2358 NONAME ; void QDeclarativeContext::setContextProperty(class QString const &, class QVariant const &)
	?setContextProperty@QDeclarativeContext@@QAEXABVQString@@PAVQObject@@@Z @ 2359 NONAME ; void QDeclarativeContext::setContextProperty(class QString const &, class QObject *)
	?setControl1X@QDeclarativePathCubic@@QAEXM@Z @ 2360 NONAME ; void QDeclarativePathCubic::setControl1X(float)
	?setControl1Y@QDeclarativePathCubic@@QAEXM@Z @ 2361 NONAME ; void QDeclarativePathCubic::setControl1Y(float)
	?setControl2X@QDeclarativePathCubic@@QAEXM@Z @ 2362 NONAME ; void QDeclarativePathCubic::setControl2X(float)
	?setControl2Y@QDeclarativePathCubic@@QAEXM@Z @ 2363 NONAME ; void QDeclarativePathCubic::setControl2Y(float)
	?setControlX@QDeclarativePathQuad@@QAEXM@Z @ 2364 NONAME ; void QDeclarativePathQuad::setControlX(float)
	?setControlY@QDeclarativePathQuad@@QAEXM@Z @ 2365 NONAME ; void QDeclarativePathQuad::setControlY(float)
	?setCount@QDeclarativeParticles@@QAEXH@Z @ 2366 NONAME ABSENT ; void QDeclarativeParticles::setCount(int)
	?setCreationContext@QDeclarativeComponent@@QAEXPAVQDeclarativeContext@@@Z @ 2367 NONAME ABSENT ; void QDeclarativeComponent::setCreationContext(class QDeclarativeContext *)
	?setCriteria@QDeclarativeViewSection@@QAEXW4SectionCriteria@1@@Z @ 2368 NONAME ; void QDeclarativeViewSection::setCriteria(enum QDeclarativeViewSection::SectionCriteria)
	?setCurrentFrame@QDeclarativeAnimatedImage@@QAEXH@Z @ 2369 NONAME ; void QDeclarativeAnimatedImage::setCurrentFrame(int)
	?setCurrentIndex@QDeclarativeGridView@@QAEXH@Z @ 2370 NONAME ; void QDeclarativeGridView::setCurrentIndex(int)
	?setCurrentIndex@QDeclarativeListView@@QAEXH@Z @ 2371 NONAME ; void QDeclarativeListView::setCurrentIndex(int)
	?setCurrentIndex@QDeclarativePathView@@QAEXH@Z @ 2372 NONAME ; void QDeclarativePathView::setCurrentIndex(int)
	?setCursorDelegate@QDeclarativeTextEdit@@QAEXPAVQDeclarativeComponent@@@Z @ 2373 NONAME ; void QDeclarativeTextEdit::setCursorDelegate(class QDeclarativeComponent *)
	?setCursorDelegate@QDeclarativeTextInput@@QAEXPAVQDeclarativeComponent@@@Z @ 2374 NONAME ; void QDeclarativeTextInput::setCursorDelegate(class QDeclarativeComponent *)
	?setCursorPosition@QDeclarativeTextEdit@@QAEXH@Z @ 2375 NONAME ; void QDeclarativeTextEdit::setCursorPosition(int)
	?setCursorPosition@QDeclarativeTextInput@@QAEXH@Z @ 2376 NONAME ; void QDeclarativeTextInput::setCursorPosition(int)
	?setCursorVisible@QDeclarativeTextEdit@@QAEX_N@Z @ 2377 NONAME ; void QDeclarativeTextEdit::setCursorVisible(bool)
	?setCursorVisible@QDeclarativeTextInput@@QAEX_N@Z @ 2378 NONAME ; void QDeclarativeTextInput::setCursorVisible(bool)
	?setDamping@QDeclarativeSpringFollow@@QAEXM@Z @ 2379 NONAME ; void QDeclarativeSpringFollow::setDamping(float)
	?setData@QDeclarativeComponent@@QAEXABVQByteArray@@ABVQUrl@@@Z @ 2380 NONAME ; void QDeclarativeComponent::setData(class QByteArray const &, class QUrl const &)
	?setData@QListModelInterface@@UAE_NHABV?$QHash@HVQVariant@@@@@Z @ 2381 NONAME ; bool QListModelInterface::setData(int, class QHash<int, class QVariant> const &)
	?setDate@QDeclarativeDateTimeFormatter@@QAEXABVQDate@@@Z @ 2382 NONAME ABSENT ; void QDeclarativeDateTimeFormatter::setDate(class QDate const &)
	?setDateFormat@QDeclarativeDateTimeFormatter@@QAEXABVQString@@@Z @ 2383 NONAME ABSENT ; void QDeclarativeDateTimeFormatter::setDateFormat(class QString const &)
	?setDateTime@QDeclarativeDateTimeFormatter@@QAEXABVQDateTime@@@Z @ 2384 NONAME ABSENT ; void QDeclarativeDateTimeFormatter::setDateTime(class QDateTime const &)
	?setDateTimeFormat@QDeclarativeDateTimeFormatter@@QAEXABVQString@@@Z @ 2385 NONAME ABSENT ; void QDeclarativeDateTimeFormatter::setDateTimeFormat(class QString const &)
	?setDelegate@QDeclarativeGridView@@QAEXPAVQDeclarativeComponent@@@Z @ 2386 NONAME ; void QDeclarativeGridView::setDelegate(class QDeclarativeComponent *)
	?setDelegate@QDeclarativeListView@@QAEXPAVQDeclarativeComponent@@@Z @ 2387 NONAME ; void QDeclarativeListView::setDelegate(class QDeclarativeComponent *)
	?setDelegate@QDeclarativePathView@@QAEXPAVQDeclarativeComponent@@@Z @ 2388 NONAME ; void QDeclarativePathView::setDelegate(class QDeclarativeComponent *)
	?setDelegate@QDeclarativeRepeater@@QAEXPAVQDeclarativeComponent@@@Z @ 2389 NONAME ; void QDeclarativeRepeater::setDelegate(class QDeclarativeComponent *)
	?setDelegate@QDeclarativeViewSection@@QAEXPAVQDeclarativeComponent@@@Z @ 2390 NONAME ; void QDeclarativeViewSection::setDelegate(class QDeclarativeComponent *)
	?setDelegate@QDeclarativeVisualDataModel@@QAEXPAVQDeclarativeComponent@@@Z @ 2391 NONAME ; void QDeclarativeVisualDataModel::setDelegate(class QDeclarativeComponent *)
	?setDescription@QDeclarativeError@@QAEXABVQString@@@Z @ 2392 NONAME ; void QDeclarativeError::setDescription(class QString const &)
	?setDesignable@QMetaPropertyBuilder@@QAEX_N@Z @ 2393 NONAME ; void QMetaPropertyBuilder::setDesignable(bool)
	?setDragMargin@QDeclarativePathView@@QAEXM@Z @ 2394 NONAME ; void QDeclarativePathView::setDragMargin(float)
	?setDuration@QDeclarativeEaseFollow@@QAEXM@Z @ 2395 NONAME ABSENT ; void QDeclarativeEaseFollow::setDuration(float)
	?setDynamic@QMetaPropertyBuilder@@QAEX_N@Z @ 2396 NONAME ; void QMetaPropertyBuilder::setDynamic(bool)
	?setEchoMode@QDeclarativeTextInput@@QAEXW4EchoMode@1@@Z @ 2397 NONAME ; void QDeclarativeTextInput::setEchoMode(enum QDeclarativeTextInput::EchoMode)
	?setEditable@QMetaPropertyBuilder@@QAEX_N@Z @ 2398 NONAME ; void QMetaPropertyBuilder::setEditable(bool)
	?setElideMode@QDeclarativeText@@QAEXW4TextElideMode@1@@Z @ 2399 NONAME ; void QDeclarativeText::setElideMode(enum QDeclarativeText::TextElideMode)
	?setEmissionRate@QDeclarativeParticles@@QAEXH@Z @ 2400 NONAME ABSENT ; void QDeclarativeParticles::setEmissionRate(int)
	?setEmissionVariance@QDeclarativeParticles@@QAEXM@Z @ 2401 NONAME ABSENT ; void QDeclarativeParticles::setEmissionVariance(float)
	?setEnabled@QDeclarativeBehavior@@QAEX_N@Z @ 2402 NONAME ; void QDeclarativeBehavior::setEnabled(bool)
	?setEnabled@QDeclarativeDebugClient@@QAEX_N@Z @ 2403 NONAME ; void QDeclarativeDebugClient::setEnabled(bool)
	?setEnabled@QDeclarativeEaseFollow@@QAEX_N@Z @ 2404 NONAME ABSENT ; void QDeclarativeEaseFollow::setEnabled(bool)
	?setEnabled@QDeclarativeMouseArea@@QAEX_N@Z @ 2405 NONAME ; void QDeclarativeMouseArea::setEnabled(bool)
	?setEnabled@QDeclarativeSpringFollow@@QAEX_N@Z @ 2406 NONAME ; void QDeclarativeSpringFollow::setEnabled(bool)
	?setEnumOrFlag@QMetaPropertyBuilder@@QAEX_N@Z @ 2407 NONAME ; void QMetaPropertyBuilder::setEnumOrFlag(bool)
	?setEpsilon@QDeclarativeSpringFollow@@QAEXM@Z @ 2408 NONAME ; void QDeclarativeSpringFollow::setEpsilon(float)
	?setExpression@QDeclarativeExpression@@QAEXABVQString@@@Z @ 2409 NONAME ; void QDeclarativeExpression::setExpression(class QString const &)
	?setExtends@QDeclarativeState@@QAEXABVQString@@@Z @ 2410 NONAME ; void QDeclarativeState::setExtends(class QString const &)
	?setFadeInDuration@QDeclarativeParticles@@QAEXH@Z @ 2411 NONAME ABSENT ; void QDeclarativeParticles::setFadeInDuration(int)
	?setFadeOutDuration@QDeclarativeParticles@@QAEXH@Z @ 2412 NONAME ABSENT ; void QDeclarativeParticles::setFadeOutDuration(int)
	?setFill@QDeclarativeAnchors@@QAEXPAVQDeclarativeItem@@@Z @ 2413 NONAME ABSENT ; void QDeclarativeAnchors::setFill(class QDeclarativeItem *)
	?setFillColor@QDeclarativePaintedItem@@QAEXABVQColor@@@Z @ 2414 NONAME ; void QDeclarativePaintedItem::setFillColor(class QColor const &)
	?setFillMode@QDeclarativeImage@@QAEXW4FillMode@1@@Z @ 2415 NONAME ; void QDeclarativeImage::setFillMode(enum QDeclarativeImage::FillMode)
	?setFlags@QMetaObjectBuilder@@QAEXV?$QFlags@W4MetaObjectFlag@QMetaObjectBuilder@@@@@Z @ 2416 NONAME ; void QMetaObjectBuilder::setFlags(class QFlags<enum QMetaObjectBuilder::MetaObjectFlag>)
	?setFlickDeceleration@QDeclarativeFlickable@@QAEXM@Z @ 2417 NONAME ; void QDeclarativeFlickable::setFlickDeceleration(float)
	?setFlickDirection@QDeclarativeFlickable@@QAEXW4FlickDirection@1@@Z @ 2418 NONAME ABSENT ; void QDeclarativeFlickable::setFlickDirection(enum QDeclarativeFlickable::FlickDirection)
	?setFlow@QDeclarativeFlow@@QAEXW4Flow@1@@Z @ 2419 NONAME ; void QDeclarativeFlow::setFlow(enum QDeclarativeFlow::Flow)
	?setFlow@QDeclarativeGridView@@QAEXW4Flow@1@@Z @ 2420 NONAME ; void QDeclarativeGridView::setFlow(enum QDeclarativeGridView::Flow)
	?setFocus@QDeclarativeItem@@QAEX_N@Z @ 2421 NONAME ; void QDeclarativeItem::setFocus(bool)
	?setFocusOnPress@QDeclarativeTextEdit@@QAEX_N@Z @ 2422 NONAME ; void QDeclarativeTextEdit::setFocusOnPress(bool)
	?setFocusOnPress@QDeclarativeTextInput@@QAEX_N@Z @ 2423 NONAME ; void QDeclarativeTextInput::setFocusOnPress(bool)
	?setFont@QDeclarativeText@@QAEXABVQFont@@@Z @ 2424 NONAME ; void QDeclarativeText::setFont(class QFont const &)
	?setFont@QDeclarativeTextEdit@@QAEXABVQFont@@@Z @ 2425 NONAME ; void QDeclarativeTextEdit::setFont(class QFont const &)
	?setFont@QDeclarativeTextInput@@QAEXABVQFont@@@Z @ 2426 NONAME ; void QDeclarativeTextInput::setFont(class QFont const &)
	?setFooter@QDeclarativeListView@@QAEXPAVQDeclarativeComponent@@@Z @ 2427 NONAME ; void QDeclarativeListView::setFooter(class QDeclarativeComponent *)
	?setFormat@QDeclarativeNumberFormatter@@QAEXABVQString@@@Z @ 2428 NONAME ABSENT ; void QDeclarativeNumberFormatter::setFormat(class QString const &)
	?setFromState@QDeclarativeTransition@@QAEXABVQString@@@Z @ 2429 NONAME ; void QDeclarativeTransition::setFromState(class QString const &)
	?setFront@QDeclarativeFlipable@@QAEXPAVQDeclarativeItem@@@Z @ 2430 NONAME ABSENT ; void QDeclarativeFlipable::setFront(class QDeclarativeItem *)
	?setGradient@QDeclarativeRectangle@@QAEXPAVQDeclarativeGradient@@@Z @ 2431 NONAME ; void QDeclarativeRectangle::setGradient(class QDeclarativeGradient *)
	?setGraphicsObject@QDeclarativeGraphicsObjectContainer@@QAEXPAVQGraphicsObject@@@Z @ 2432 NONAME ABSENT ; void QDeclarativeGraphicsObjectContainer::setGraphicsObject(class QGraphicsObject *)
	?setGridScaledImage@QDeclarativeBorderImage@@AAEXABVQDeclarativeGridScaledImage@@@Z @ 2433 NONAME ; void QDeclarativeBorderImage::setGridScaledImage(class QDeclarativeGridScaledImage const &)
	?setHAlign@QDeclarativeText@@QAEXW4HAlignment@1@@Z @ 2434 NONAME ; void QDeclarativeText::setHAlign(enum QDeclarativeText::HAlignment)
	?setHAlign@QDeclarativeTextEdit@@QAEXW4HAlignment@1@@Z @ 2435 NONAME ; void QDeclarativeTextEdit::setHAlign(enum QDeclarativeTextEdit::HAlignment)
	?setHAlign@QDeclarativeTextInput@@QAEXW4HAlignment@1@@Z @ 2436 NONAME ; void QDeclarativeTextInput::setHAlign(enum QDeclarativeTextInput::HAlignment)
	?setHeader@QDeclarativeListView@@QAEXPAVQDeclarativeComponent@@@Z @ 2437 NONAME ; void QDeclarativeListView::setHeader(class QDeclarativeComponent *)
	?setHeight@QDeclarativeItem@@QAEXM@Z @ 2438 NONAME ; void QDeclarativeItem::setHeight(float)
	?setHeight@QDeclarativeParentChange@@QAEXM@Z @ 2439 NONAME ABSENT ; void QDeclarativeParentChange::setHeight(float)
	?setHighlight@QDeclarativeGridView@@QAEXPAVQDeclarativeComponent@@@Z @ 2440 NONAME ; void QDeclarativeGridView::setHighlight(class QDeclarativeComponent *)
	?setHighlight@QDeclarativeListView@@QAEXPAVQDeclarativeComponent@@@Z @ 2441 NONAME ; void QDeclarativeListView::setHighlight(class QDeclarativeComponent *)
	?setHighlightFollowsCurrentItem@QDeclarativeGridView@@QAEX_N@Z @ 2442 NONAME ; void QDeclarativeGridView::setHighlightFollowsCurrentItem(bool)
	?setHighlightFollowsCurrentItem@QDeclarativeListView@@QAEX_N@Z @ 2443 NONAME ; void QDeclarativeListView::setHighlightFollowsCurrentItem(bool)
	?setHighlightMoveSpeed@QDeclarativeListView@@QAEXM@Z @ 2444 NONAME ; void QDeclarativeListView::setHighlightMoveSpeed(float)
	?setHighlightRangeMode@QDeclarativeListView@@QAEXW4HighlightRangeMode@1@@Z @ 2445 NONAME ; void QDeclarativeListView::setHighlightRangeMode(enum QDeclarativeListView::HighlightRangeMode)
	?setHighlightResizeSpeed@QDeclarativeListView@@QAEXM@Z @ 2446 NONAME ; void QDeclarativeListView::setHighlightResizeSpeed(float)
	?setHorizontalCenter@QDeclarativeAnchorChanges@@QAEXABVQDeclarativeAnchorLine@@@Z @ 2447 NONAME ABSENT ; void QDeclarativeAnchorChanges::setHorizontalCenter(class QDeclarativeAnchorLine const &)
	?setHorizontalCenter@QDeclarativeAnchors@@QAEXABVQDeclarativeAnchorLine@@@Z @ 2448 NONAME ABSENT ; void QDeclarativeAnchors::setHorizontalCenter(class QDeclarativeAnchorLine const &)
	?setHorizontalCenterOffset@QDeclarativeAnchors@@QAEXM@Z @ 2449 NONAME ; void QDeclarativeAnchors::setHorizontalCenterOffset(float)
	?setHorizontalTileMode@QDeclarativeBorderImage@@QAEXW4TileMode@1@@Z @ 2450 NONAME ; void QDeclarativeBorderImage::setHorizontalTileMode(enum QDeclarativeBorderImage::TileMode)
	?setHovered@QDeclarativeMouseArea@@IAEX_N@Z @ 2451 NONAME ; void QDeclarativeMouseArea::setHovered(bool)
	?setHtml@QDeclarativeWebView@@QAEXABVQString@@ABVQUrl@@@Z @ 2452 NONAME ABSENT ; void QDeclarativeWebView::setHtml(class QString const &, class QUrl const &)
	?setIdProperty@QDeclarativeContextPrivate@@QAEXHPAVQObject@@@Z @ 2453 NONAME ABSENT ; void QDeclarativeContextPrivate::setIdProperty(int, class QObject *)
	?setIdPropertyData@QDeclarativeContextPrivate@@QAEXPAVQDeclarativeIntegerCache@@@Z @ 2454 NONAME ABSENT ; void QDeclarativeContextPrivate::setIdPropertyData(class QDeclarativeIntegerCache *)
	?setImplicitHeight@QDeclarativeItem@@IAEXM@Z @ 2455 NONAME ; void QDeclarativeItem::setImplicitHeight(float)
	?setImplicitWidth@QDeclarativeItem@@IAEXM@Z @ 2456 NONAME ; void QDeclarativeItem::setImplicitWidth(float)
	?setInputMask@QDeclarativeTextInput@@QAEXABVQString@@@Z @ 2457 NONAME ; void QDeclarativeTextInput::setInputMask(class QString const &)
	?setInteractive@QDeclarativeFlickable@@QAEX_N@Z @ 2458 NONAME ; void QDeclarativeFlickable::setInteractive(bool)
	?setInterval@QDeclarativeTimer@@QAEXH@Z @ 2459 NONAME ; void QDeclarativeTimer::setInterval(int)
	?setIsExplicit@QDeclarativePropertyChanges@@QAEX_N@Z @ 2460 NONAME ; void QDeclarativePropertyChanges::setIsExplicit(bool)
	?setIsFlag@QMetaEnumBuilder@@QAEX_N@Z @ 2461 NONAME ; void QMetaEnumBuilder::setIsFlag(bool)
	?setIsKey@QDeclarativeXmlListModelRole@@QAEX_N@Z @ 2462 NONAME ; void QDeclarativeXmlListModelRole::setIsKey(bool)
	?setKeepMouseGrab@QDeclarativeItem@@QAEX_N@Z @ 2463 NONAME ; void QDeclarativeItem::setKeepMouseGrab(bool)
	?setLeft@QDeclarativeAnchorChanges@@QAEXABVQDeclarativeAnchorLine@@@Z @ 2464 NONAME ABSENT ; void QDeclarativeAnchorChanges::setLeft(class QDeclarativeAnchorLine const &)
	?setLeft@QDeclarativeAnchors@@QAEXABVQDeclarativeAnchorLine@@@Z @ 2465 NONAME ABSENT ; void QDeclarativeAnchors::setLeft(class QDeclarativeAnchorLine const &)
	?setLeft@QDeclarativeScaleGrid@@QAEXH@Z @ 2466 NONAME ; void QDeclarativeScaleGrid::setLeft(int)
	?setLeftMargin@QDeclarativeAnchors@@QAEXM@Z @ 2467 NONAME ; void QDeclarativeAnchors::setLeftMargin(float)
	?setLifeSpan@QDeclarativeParticles@@QAEXH@Z @ 2468 NONAME ABSENT ; void QDeclarativeParticles::setLifeSpan(int)
	?setLifeSpanDeviation@QDeclarativeParticles@@QAEXH@Z @ 2469 NONAME ABSENT ; void QDeclarativeParticles::setLifeSpanDeviation(int)
	?setLine@QDeclarativeError@@QAEXH@Z @ 2470 NONAME ; void QDeclarativeError::setLine(int)
	?setLineNumber@QDeclarativeDebugFileReference@@QAEXH@Z @ 2471 NONAME ; void QDeclarativeDebugFileReference::setLineNumber(int)
	?setList@QDeclarativeListAccessor@@QAEXABVQVariant@@PAVQDeclarativeEngine@@@Z @ 2472 NONAME ; void QDeclarativeListAccessor::setList(class QVariant const &, class QDeclarativeEngine *)
	?setLoading@QDeclarativePixmapReply@@AAEXXZ @ 2473 NONAME ; void QDeclarativePixmapReply::setLoading(void)
	?setLongStyle@QDeclarativeDateTimeFormatter@@QAEX_N@Z @ 2474 NONAME ABSENT ; void QDeclarativeDateTimeFormatter::setLongStyle(bool)
	?setMargins@QDeclarativeAnchors@@QAEXM@Z @ 2475 NONAME ; void QDeclarativeAnchors::setMargins(float)
	?setMass@QDeclarativeSpringFollow@@QAEXM@Z @ 2476 NONAME ; void QDeclarativeSpringFollow::setMass(float)
	?setMaxLength@QDeclarativeTextInput@@QAEXH@Z @ 2477 NONAME ; void QDeclarativeTextInput::setMaxLength(int)
	?setMaximumEasingTime@QDeclarativeEaseFollow@@QAEXM@Z @ 2478 NONAME ABSENT ; void QDeclarativeEaseFollow::setMaximumEasingTime(float)
	?setMaximumFlickVelocity@QDeclarativeFlickable@@QAEXM@Z @ 2479 NONAME ; void QDeclarativeFlickable::setMaximumFlickVelocity(float)
	?setMaximumPacketSize@QPacketProtocol@@QAEHH@Z @ 2480 NONAME ; int QPacketProtocol::setMaximumPacketSize(int)
	?setModel@QDeclarativeGridView@@QAEXABVQVariant@@@Z @ 2481 NONAME ; void QDeclarativeGridView::setModel(class QVariant const &)
	?setModel@QDeclarativeListView@@QAEXABVQVariant@@@Z @ 2482 NONAME ; void QDeclarativeListView::setModel(class QVariant const &)
	?setModel@QDeclarativePathView@@QAEXABVQVariant@@@Z @ 2483 NONAME ; void QDeclarativePathView::setModel(class QVariant const &)
	?setModel@QDeclarativeRepeater@@QAEXABVQVariant@@@Z @ 2484 NONAME ; void QDeclarativeRepeater::setModel(class QVariant const &)
	?setModel@QDeclarativeVisualDataModel@@QAEXABVQVariant@@@Z @ 2485 NONAME ; void QDeclarativeVisualDataModel::setModel(class QVariant const &)
	?setModulus@QDeclarativeSpringFollow@@QAEXM@Z @ 2486 NONAME ; void QDeclarativeSpringFollow::setModulus(float)
	?setMotion@QDeclarativeParticles@@QAEXPAVQDeclarativeParticleMotion@@@Z @ 2487 NONAME ABSENT ; void QDeclarativeParticles::setMotion(class QDeclarativeParticleMotion *)
	?setMove@QDeclarativeBasePositioner@@QAEXPAVQDeclarativeTransition@@@Z @ 2488 NONAME ; void QDeclarativeBasePositioner::setMove(class QDeclarativeTransition *)
	?setName@QDeclarativeFontLoader@@QAEXABVQString@@@Z @ 2489 NONAME ; void QDeclarativeFontLoader::setName(class QString const &)
	?setName@QDeclarativePathAttribute@@QAEXABVQString@@@Z @ 2490 NONAME ; void QDeclarativePathAttribute::setName(class QString const &)
	?setName@QDeclarativeState@@QAEXABVQString@@@Z @ 2491 NONAME ; void QDeclarativeState::setName(class QString const &)
	?setName@QDeclarativeStateChangeScript@@QAEXABVQString@@@Z @ 2492 NONAME ; void QDeclarativeStateChangeScript::setName(class QString const &)
	?setName@QDeclarativeXmlListModelRole@@QAEXABVQString@@@Z @ 2493 NONAME ; void QDeclarativeXmlListModelRole::setName(class QString const &)
	?setNamespaceDeclarations@QDeclarativeXmlListModel@@QAEXABVQString@@@Z @ 2494 NONAME ; void QDeclarativeXmlListModel::setNamespaceDeclarations(class QString const &)
	?setNetworkAccessManagerFactory@QDeclarativeEngine@@QAEXPAVQDeclarativeNetworkAccessManagerFactory@@@Z @ 2495 NONAME ; void QDeclarativeEngine::setNetworkAccessManagerFactory(class QDeclarativeNetworkAccessManagerFactory *)
	?setNewWindowComponent@QDeclarativeWebView@@QAEXPAVQDeclarativeComponent@@@Z @ 2496 NONAME ABSENT ; void QDeclarativeWebView::setNewWindowComponent(class QDeclarativeComponent *)
	?setNewWindowParent@QDeclarativeWebView@@QAEXPAVQDeclarativeItem@@@Z @ 2497 NONAME ABSENT ; void QDeclarativeWebView::setNewWindowParent(class QDeclarativeItem *)
	?setNotifyOnValueChanged@QDeclarativeExpression@@QAEX_N@Z @ 2498 NONAME ; void QDeclarativeExpression::setNotifyOnValueChanged(bool)
	?setNotifySignal@QMetaPropertyBuilder@@QAEXABVQMetaMethodBuilder@@@Z @ 2499 NONAME ; void QMetaPropertyBuilder::setNotifySignal(class QMetaMethodBuilder const &)
	?setNumber@QDeclarativeNumberFormatter@@QAEXABM@Z @ 2500 NONAME ABSENT ; void QDeclarativeNumberFormatter::setNumber(float const &)
	?setObject@QDeclarativeAnchorChanges@@QAEXPAVQDeclarativeItem@@@Z @ 2501 NONAME ; void QDeclarativeAnchorChanges::setObject(class QDeclarativeItem *)
	?setObject@QDeclarativeBind@@QAEXPAVQObject@@@Z @ 2502 NONAME ; void QDeclarativeBind::setObject(class QObject *)
	?setObject@QDeclarativeParentChange@@QAEXPAVQDeclarativeItem@@@Z @ 2503 NONAME ; void QDeclarativeParentChange::setObject(class QDeclarativeItem *)
	?setObject@QDeclarativePropertyChanges@@QAEXPAVQObject@@@Z @ 2504 NONAME ; void QDeclarativePropertyChanges::setObject(class QObject *)
	?setOfflineStoragePath@QDeclarativeEngine@@QAEXABVQString@@@Z @ 2505 NONAME ; void QDeclarativeEngine::setOfflineStoragePath(class QString const &)
	?setOffset@QDeclarativePathView@@QAEXM@Z @ 2506 NONAME ; void QDeclarativePathView::setOffset(float)
	?setOrientation@QDeclarativeListView@@QAEXW4Orientation@1@@Z @ 2507 NONAME ; void QDeclarativeListView::setOrientation(enum QDeclarativeListView::Orientation)
	?setOverShoot@QDeclarativeFlickable@@QAEX_N@Z @ 2508 NONAME ABSENT ; void QDeclarativeFlickable::setOverShoot(bool)
	?setPace@QDeclarativeParticleMotionWander@@QAEXM@Z @ 2509 NONAME ABSENT ; void QDeclarativeParticleMotionWander::setPace(float)
	?setPage@QDeclarativeWebView@@QAEXPAVQWebPage@@@Z @ 2510 NONAME ABSENT ; void QDeclarativeWebView::setPage(class QWebPage *)
	?setParameterNames@QMetaMethodBuilder@@QAEXABV?$QList@VQByteArray@@@@@Z @ 2511 NONAME ; void QMetaMethodBuilder::setParameterNames(class QList<class QByteArray> const &)
	?setParent@QDeclarativeItem@@QAEXPAV1@@Z @ 2512 NONAME ABSENT ; void QDeclarativeItem::setParent(class QDeclarativeItem *)
	?setParent@QDeclarativeParentChange@@QAEXPAVQDeclarativeItem@@@Z @ 2513 NONAME ; void QDeclarativeParentChange::setParent(class QDeclarativeItem *)
	?setParentItem@QDeclarativeItem@@QAEXPAV1@@Z @ 2514 NONAME ; void QDeclarativeItem::setParentItem(class QDeclarativeItem *)
	?setPart@QDeclarativeVisualDataModel@@QAEXABVQString@@@Z @ 2515 NONAME ; void QDeclarativeVisualDataModel::setPart(class QString const &)
	?setPath@QDeclarativePathView@@QAEXPAVQDeclarativePath@@@Z @ 2516 NONAME ; void QDeclarativePathView::setPath(class QDeclarativePath *)
	?setPathItemCount@QDeclarativePathView@@QAEXH@Z @ 2517 NONAME ; void QDeclarativePathView::setPathItemCount(int)
	?setPaused@QDeclarativeAnimatedImage@@QAEX_N@Z @ 2518 NONAME ; void QDeclarativeAnimatedImage::setPaused(bool)
	?setPersistentSelection@QDeclarativeTextEdit@@QAEX_N@Z @ 2519 NONAME ; void QDeclarativeTextEdit::setPersistentSelection(bool)
	?setPixelCacheSize@QDeclarativePaintedItem@@QAEXH@Z @ 2520 NONAME ; void QDeclarativePaintedItem::setPixelCacheSize(int)
	?setPixmap@QDeclarativeImage@@QAEXABVQPixmap@@@Z @ 2521 NONAME ; void QDeclarativeImage::setPixmap(class QPixmap const &)
	?setPlaying@QDeclarativeAnimatedImage@@QAEX_N@Z @ 2522 NONAME ; void QDeclarativeAnimatedImage::setPlaying(bool)
	?setPosition@QDeclarativeGradientStop@@QAEXM@Z @ 2523 NONAME ; void QDeclarativeGradientStop::setPosition(float)
	?setPreferredHeight@QDeclarativeWebView@@QAEXH@Z @ 2524 NONAME ABSENT ; void QDeclarativeWebView::setPreferredHeight(int)
	?setPreferredHighlightBegin@QDeclarativeListView@@QAEXM@Z @ 2525 NONAME ; void QDeclarativeListView::setPreferredHighlightBegin(float)
	?setPreferredHighlightEnd@QDeclarativeListView@@QAEXM@Z @ 2526 NONAME ; void QDeclarativeListView::setPreferredHighlightEnd(float)
	?setPreferredWidth@QDeclarativeWebView@@QAEXH@Z @ 2527 NONAME ABSENT ; void QDeclarativeWebView::setPreferredWidth(int)
	?setPressDelay@QDeclarativeFlickable@@QAEXH@Z @ 2528 NONAME ; void QDeclarativeFlickable::setPressDelay(int)
	?setPressGrabTime@QDeclarativeWebView@@QAEXH@Z @ 2529 NONAME ABSENT ; void QDeclarativeWebView::setPressGrabTime(int)
	?setPressed@QDeclarativeMouseArea@@IAE_N_N@Z @ 2530 NONAME ; bool QDeclarativeMouseArea::setPressed(bool)
	?setProperty@QDeclarativeBind@@QAEXABVQString@@@Z @ 2531 NONAME ; void QDeclarativeBind::setProperty(class QString const &)
	?setProperty@QDeclarativeListModel@@QAEXHABVQString@@ABVQVariant@@@Z @ 2532 NONAME ; void QDeclarativeListModel::setProperty(int, class QString const &, class QVariant const &)
	?setProperty@QDeclarativeViewSection@@QAEXABVQString@@@Z @ 2533 NONAME ; void QDeclarativeViewSection::setProperty(class QString const &)
	?setQuery@QDeclarativeXmlListModel@@QAEXABVQString@@@Z @ 2534 NONAME ; void QDeclarativeXmlListModel::setQuery(class QString const &)
	?setQuery@QDeclarativeXmlListModelRole@@QAEXABVQString@@@Z @ 2535 NONAME ; void QDeclarativeXmlListModelRole::setQuery(class QString const &)
	?setRadius@QDeclarativeRectangle@@QAEXM@Z @ 2536 NONAME ; void QDeclarativeRectangle::setRadius(float)
	?setReadOnly@QDeclarativeTextEdit@@QAEX_N@Z @ 2537 NONAME ; void QDeclarativeTextEdit::setReadOnly(bool)
	?setReadOnly@QDeclarativeTextInput@@QAEX_N@Z @ 2538 NONAME ; void QDeclarativeTextInput::setReadOnly(bool)
	?setReadable@QMetaPropertyBuilder@@QAEX_N@Z @ 2539 NONAME ; void QMetaPropertyBuilder::setReadable(bool)
	?setRenderingEnabled@QDeclarativeWebView@@QAEX_N@Z @ 2540 NONAME ABSENT ; void QDeclarativeWebView::setRenderingEnabled(bool)
	?setRepeating@QDeclarativeTimer@@QAEX_N@Z @ 2541 NONAME ; void QDeclarativeTimer::setRepeating(bool)
	?setReset@QDeclarativeAnchorChanges@@QAEXABVQString@@@Z @ 2542 NONAME ABSENT ; void QDeclarativeAnchorChanges::setReset(class QString const &)
	?setResettable@QMetaPropertyBuilder@@QAEX_N@Z @ 2543 NONAME ; void QMetaPropertyBuilder::setResettable(bool)
	?setResizeMode@QDeclarativeLoader@@QAEXW4ResizeMode@1@@Z @ 2544 NONAME ABSENT ; void QDeclarativeLoader::setResizeMode(enum QDeclarativeLoader::ResizeMode)
	?setResizeMode@QDeclarativeView@@QAEXW4ResizeMode@1@@Z @ 2545 NONAME ; void QDeclarativeView::setResizeMode(enum QDeclarativeView::ResizeMode)
	?setRestoreEntryValues@QDeclarativePropertyChanges@@QAEX_N@Z @ 2546 NONAME ; void QDeclarativePropertyChanges::setRestoreEntryValues(bool)
	?setReturnType@QMetaMethodBuilder@@QAEXABVQByteArray@@@Z @ 2547 NONAME ; void QMetaMethodBuilder::setReturnType(class QByteArray const &)
	?setReversed@QDeclarativeTransition@@QAEX_N@Z @ 2548 NONAME ; void QDeclarativeTransition::setReversed(bool)
	?setReversible@QDeclarativeTransition@@QAEX_N@Z @ 2549 NONAME ; void QDeclarativeTransition::setReversible(bool)
	?setReversingMode@QDeclarativeEaseFollow@@QAEXW4ReversingMode@1@@Z @ 2550 NONAME ABSENT ; void QDeclarativeEaseFollow::setReversingMode(enum QDeclarativeEaseFollow::ReversingMode)
	?setRight@QDeclarativeAnchorChanges@@QAEXABVQDeclarativeAnchorLine@@@Z @ 2551 NONAME ABSENT ; void QDeclarativeAnchorChanges::setRight(class QDeclarativeAnchorLine const &)
	?setRight@QDeclarativeAnchors@@QAEXABVQDeclarativeAnchorLine@@@Z @ 2552 NONAME ABSENT ; void QDeclarativeAnchors::setRight(class QDeclarativeAnchorLine const &)
	?setRight@QDeclarativeScaleGrid@@QAEXH@Z @ 2553 NONAME ; void QDeclarativeScaleGrid::setRight(int)
	?setRightMargin@QDeclarativeAnchors@@QAEXM@Z @ 2554 NONAME ; void QDeclarativeAnchors::setRightMargin(float)
	?setRootIndex@QDeclarativeVisualDataModel@@QAEXABVQModelIndex@@@Z @ 2555 NONAME ABSENT ; void QDeclarativeVisualDataModel::setRootIndex(class QModelIndex const &)
	?setRootObject@QDeclarativeView@@MAEXPAVQObject@@@Z @ 2556 NONAME ; void QDeclarativeView::setRootObject(class QObject *)
	?setRotation@QDeclarativeParentChange@@QAEXM@Z @ 2557 NONAME ABSENT ; void QDeclarativeParentChange::setRotation(float)
	?setRows@QDeclarativeGrid@@QAEXH@Z @ 2558 NONAME ; void QDeclarativeGrid::setRows(int)
	?setRunning@QDeclarativeTimer@@QAEX_N@Z @ 2559 NONAME ; void QDeclarativeTimer::setRunning(bool)
	?setScale@QDeclarativeParentChange@@QAEXM@Z @ 2560 NONAME ABSENT ; void QDeclarativeParentChange::setScale(float)
	?setScopeObject@QDeclarativeScriptString@@QAEXPAVQObject@@@Z @ 2561 NONAME ; void QDeclarativeScriptString::setScopeObject(class QObject *)
	?setScript@QDeclarativeScriptString@@QAEXABVQString@@@Z @ 2562 NONAME ; void QDeclarativeScriptString::setScript(class QString const &)
	?setScript@QDeclarativeStateChangeScript@@QAEXABVQDeclarativeScriptString@@@Z @ 2563 NONAME ; void QDeclarativeStateChangeScript::setScript(class QDeclarativeScriptString const &)
	?setScriptable@QMetaPropertyBuilder@@QAEX_N@Z @ 2564 NONAME ; void QMetaPropertyBuilder::setScriptable(bool)
	?setSelectedState@QDeclarativeDebuggerStatus@@UAEX_N@Z @ 2565 NONAME ; void QDeclarativeDebuggerStatus::setSelectedState(bool)
	?setSelectedTextColor@QDeclarativeTextEdit@@QAEXABVQColor@@@Z @ 2566 NONAME ; void QDeclarativeTextEdit::setSelectedTextColor(class QColor const &)
	?setSelectedTextColor@QDeclarativeTextInput@@QAEXABVQColor@@@Z @ 2567 NONAME ; void QDeclarativeTextInput::setSelectedTextColor(class QColor const &)
	?setSelectionColor@QDeclarativeTextEdit@@QAEXABVQColor@@@Z @ 2568 NONAME ; void QDeclarativeTextEdit::setSelectionColor(class QColor const &)
	?setSelectionColor@QDeclarativeTextInput@@QAEXABVQColor@@@Z @ 2569 NONAME ; void QDeclarativeTextInput::setSelectionColor(class QColor const &)
	?setSelectionEnd@QDeclarativeTextEdit@@QAEXH@Z @ 2570 NONAME ABSENT ; void QDeclarativeTextEdit::setSelectionEnd(int)
	?setSelectionEnd@QDeclarativeTextInput@@QAEXH@Z @ 2571 NONAME ABSENT ; void QDeclarativeTextInput::setSelectionEnd(int)
	?setSelectionStart@QDeclarativeTextEdit@@QAEXH@Z @ 2572 NONAME ABSENT ; void QDeclarativeTextEdit::setSelectionStart(int)
	?setSelectionStart@QDeclarativeTextInput@@QAEXH@Z @ 2573 NONAME ABSENT ; void QDeclarativeTextInput::setSelectionStart(int)
	?setSmooth@QDeclarativeItem@@QAEX_N@Z @ 2574 NONAME ; void QDeclarativeItem::setSmooth(bool)
	?setSmoothCache@QDeclarativePaintedItem@@QAEX_N@Z @ 2575 NONAME ; void QDeclarativePaintedItem::setSmoothCache(bool)
	?setSnapMode@QDeclarativeListView@@QAEXW4SnapMode@1@@Z @ 2576 NONAME ; void QDeclarativeListView::setSnapMode(enum QDeclarativeListView::SnapMode)
	?setSnapPosition@QDeclarativePathView@@QAEXM@Z @ 2577 NONAME ABSENT ; void QDeclarativePathView::setSnapPosition(float)
	?setSource@QDeclarativeAnimatedImage@@UAEXABVQUrl@@@Z @ 2578 NONAME ; void QDeclarativeAnimatedImage::setSource(class QUrl const &)
	?setSource@QDeclarativeBorderImage@@UAEXABVQUrl@@@Z @ 2579 NONAME ; void QDeclarativeBorderImage::setSource(class QUrl const &)
	?setSource@QDeclarativeFontLoader@@QAEXABVQUrl@@@Z @ 2580 NONAME ; void QDeclarativeFontLoader::setSource(class QUrl const &)
	?setSource@QDeclarativeImageBase@@UAEXABVQUrl@@@Z @ 2581 NONAME ; void QDeclarativeImageBase::setSource(class QUrl const &)
	?setSource@QDeclarativeLoader@@QAEXABVQUrl@@@Z @ 2582 NONAME ; void QDeclarativeLoader::setSource(class QUrl const &)
	?setSource@QDeclarativeParticles@@QAEXABVQUrl@@@Z @ 2583 NONAME ABSENT ; void QDeclarativeParticles::setSource(class QUrl const &)
	?setSource@QDeclarativeView@@QAEXABVQUrl@@@Z @ 2584 NONAME ; void QDeclarativeView::setSource(class QUrl const &)
	?setSource@QDeclarativeXmlListModel@@QAEXABVQUrl@@@Z @ 2585 NONAME ; void QDeclarativeXmlListModel::setSource(class QUrl const &)
	?setSourceComponent@QDeclarativeLoader@@QAEXPAVQDeclarativeComponent@@@Z @ 2586 NONAME ; void QDeclarativeLoader::setSourceComponent(class QDeclarativeComponent *)
	?setSourceLocation@QDeclarativeExpression@@QAEXABVQString@@H@Z @ 2587 NONAME ; void QDeclarativeExpression::setSourceLocation(class QString const &, int)
	?setSourceValue@QDeclarativeEaseFollow@@QAEXM@Z @ 2588 NONAME ABSENT ; void QDeclarativeEaseFollow::setSourceValue(float)
	?setSourceValue@QDeclarativeSpringFollow@@QAEXM@Z @ 2589 NONAME ABSENT ; void QDeclarativeSpringFollow::setSourceValue(float)
	?setSpacing@QDeclarativeBasePositioner@@QAEXH@Z @ 2590 NONAME ; void QDeclarativeBasePositioner::setSpacing(int)
	?setSpacing@QDeclarativeListView@@QAEXM@Z @ 2591 NONAME ; void QDeclarativeListView::setSpacing(float)
	?setSpring@QDeclarativeSpringFollow@@QAEXM@Z @ 2592 NONAME ; void QDeclarativeSpringFollow::setSpring(float)
	?setStartX@QDeclarativePath@@QAEXM@Z @ 2593 NONAME ; void QDeclarativePath::setStartX(float)
	?setStartY@QDeclarativePath@@QAEXM@Z @ 2594 NONAME ; void QDeclarativePath::setStartY(float)
	?setState@QDeclarativeDebugQuery@@AAEXW4State@1@@Z @ 2595 NONAME ; void QDeclarativeDebugQuery::setState(enum QDeclarativeDebugQuery::State)
	?setState@QDeclarativeDebugWatch@@AAEXW4State@1@@Z @ 2596 NONAME ; void QDeclarativeDebugWatch::setState(enum QDeclarativeDebugWatch::State)
	?setState@QDeclarativeItem@@QAEXABVQString@@@Z @ 2597 NONAME ABSENT ; void QDeclarativeItem::setState(class QString const &)
	?setState@QDeclarativeStateGroup@@QAEXABVQString@@@Z @ 2598 NONAME ; void QDeclarativeStateGroup::setState(class QString const &)
	?setStateGroup@QDeclarativeState@@QAEXPAVQDeclarativeStateGroup@@@Z @ 2599 NONAME ; void QDeclarativeState::setStateGroup(class QDeclarativeStateGroup *)
	?setStaticMetacallFunction@QMetaObjectBuilder@@QAEXP6AHW4Call@QMetaObject@@HPAPAX@Z@Z @ 2600 NONAME ; void QMetaObjectBuilder::setStaticMetacallFunction(int (*)(enum QMetaObject::Call, int, void * *))
	?setStatusText@QDeclarativeWebView@@AAEXABVQString@@@Z @ 2601 NONAME ABSENT ; void QDeclarativeWebView::setStatusText(class QString const &)
	?setStdCppSet@QMetaPropertyBuilder@@QAEX_N@Z @ 2602 NONAME ; void QMetaPropertyBuilder::setStdCppSet(bool)
	?setStored@QMetaPropertyBuilder@@QAEX_N@Z @ 2603 NONAME ; void QMetaPropertyBuilder::setStored(bool)
	?setStyle@QDeclarativeText@@QAEXW4TextStyle@1@@Z @ 2604 NONAME ; void QDeclarativeText::setStyle(enum QDeclarativeText::TextStyle)
	?setStyleColor@QDeclarativeText@@QAEXABVQColor@@@Z @ 2605 NONAME ; void QDeclarativeText::setStyleColor(class QColor const &)
	?setSuperClass@QMetaObjectBuilder@@QAEXPBUQMetaObject@@@Z @ 2606 NONAME ; void QMetaObjectBuilder::setSuperClass(struct QMetaObject const *)
	?setSynchronizedResizing@QDeclarativeGraphicsObjectContainer@@QAEX_N@Z @ 2607 NONAME ABSENT ; void QDeclarativeGraphicsObjectContainer::setSynchronizedResizing(bool)
	?setTag@QMetaMethodBuilder@@QAEXABVQByteArray@@@Z @ 2608 NONAME ; void QMetaMethodBuilder::setTag(class QByteArray const &)
	?setTarget@QDeclarativeBehavior@@UAEXABVQDeclarativeProperty@@@Z @ 2609 NONAME ; void QDeclarativeBehavior::setTarget(class QDeclarativeProperty const &)
	?setTarget@QDeclarativeConnections@@QAEXPAVQObject@@@Z @ 2610 NONAME ; void QDeclarativeConnections::setTarget(class QObject *)
	?setTarget@QDeclarativeDrag@@QAEXPAVQDeclarativeItem@@@Z @ 2611 NONAME ABSENT ; void QDeclarativeDrag::setTarget(class QDeclarativeItem *)
	?setTarget@QDeclarativeEaseFollow@@UAEXABVQDeclarativeProperty@@@Z @ 2612 NONAME ABSENT ; void QDeclarativeEaseFollow::setTarget(class QDeclarativeProperty const &)
	?setTarget@QDeclarativeSpringFollow@@UAEXABVQDeclarativeProperty@@@Z @ 2613 NONAME ; void QDeclarativeSpringFollow::setTarget(class QDeclarativeProperty const &)
	?setText@QDeclarativeText@@QAEXABVQString@@@Z @ 2614 NONAME ; void QDeclarativeText::setText(class QString const &)
	?setText@QDeclarativeTextEdit@@QAEXABVQString@@@Z @ 2615 NONAME ; void QDeclarativeTextEdit::setText(class QString const &)
	?setText@QDeclarativeTextInput@@QAEXABVQString@@@Z @ 2616 NONAME ; void QDeclarativeTextInput::setText(class QString const &)
	?setTextFormat@QDeclarativeText@@QAEXW4TextFormat@1@@Z @ 2617 NONAME ; void QDeclarativeText::setTextFormat(enum QDeclarativeText::TextFormat)
	?setTextFormat@QDeclarativeTextEdit@@QAEXW4TextFormat@1@@Z @ 2618 NONAME ; void QDeclarativeTextEdit::setTextFormat(enum QDeclarativeTextEdit::TextFormat)
	?setTextInteractionFlags@QDeclarativeTextEdit@@QAEXV?$QFlags@W4TextInteractionFlag@Qt@@@@@Z @ 2619 NONAME ; void QDeclarativeTextEdit::setTextInteractionFlags(class QFlags<enum Qt::TextInteractionFlag>)
	?setTextMargin@QDeclarativeTextEdit@@QAEXM@Z @ 2620 NONAME ; void QDeclarativeTextEdit::setTextMargin(float)
	?setTime@QDeclarativeDateTimeFormatter@@QAEXABVQTime@@@Z @ 2621 NONAME ABSENT ; void QDeclarativeDateTimeFormatter::setTime(class QTime const &)
	?setTimeFormat@QDeclarativeDateTimeFormatter@@QAEXABVQString@@@Z @ 2622 NONAME ABSENT ; void QDeclarativeDateTimeFormatter::setTimeFormat(class QString const &)
	?setToState@QDeclarativeTransition@@QAEXABVQString@@@Z @ 2623 NONAME ; void QDeclarativeTransition::setToState(class QString const &)
	?setTop@QDeclarativeAnchorChanges@@QAEXABVQDeclarativeAnchorLine@@@Z @ 2624 NONAME ABSENT ; void QDeclarativeAnchorChanges::setTop(class QDeclarativeAnchorLine const &)
	?setTop@QDeclarativeAnchors@@QAEXABVQDeclarativeAnchorLine@@@Z @ 2625 NONAME ABSENT ; void QDeclarativeAnchors::setTop(class QDeclarativeAnchorLine const &)
	?setTop@QDeclarativeScaleGrid@@QAEXH@Z @ 2626 NONAME ; void QDeclarativeScaleGrid::setTop(int)
	?setTopMargin@QDeclarativeAnchors@@QAEXM@Z @ 2627 NONAME ; void QDeclarativeAnchors::setTopMargin(float)
	?setTransformOrigin@QDeclarativeItem@@QAEXW4TransformOrigin@1@@Z @ 2628 NONAME ; void QDeclarativeItem::setTransformOrigin(enum QDeclarativeItem::TransformOrigin)
	?setTriggeredOnStart@QDeclarativeTimer@@QAEX_N@Z @ 2629 NONAME ; void QDeclarativeTimer::setTriggeredOnStart(bool)
	?setUrl@QDeclarativeDebugFileReference@@QAEXABVQUrl@@@Z @ 2630 NONAME ; void QDeclarativeDebugFileReference::setUrl(class QUrl const &)
	?setUrl@QDeclarativeError@@QAEXABVQUrl@@@Z @ 2631 NONAME ; void QDeclarativeError::setUrl(class QUrl const &)
	?setUrl@QDeclarativeWebView@@QAEXABVQUrl@@@Z @ 2632 NONAME ABSENT ; void QDeclarativeWebView::setUrl(class QUrl const &)
	?setUser@QMetaPropertyBuilder@@QAEX_N@Z @ 2633 NONAME ; void QMetaPropertyBuilder::setUser(bool)
	?setVAlign@QDeclarativeText@@QAEXW4VAlignment@1@@Z @ 2634 NONAME ; void QDeclarativeText::setVAlign(enum QDeclarativeText::VAlignment)
	?setVAlign@QDeclarativeTextEdit@@QAEXW4VAlignment@1@@Z @ 2635 NONAME ; void QDeclarativeTextEdit::setVAlign(enum QDeclarativeTextEdit::VAlignment)
	?setValidator@QDeclarativeTextInput@@QAEXPAVQValidator@@@Z @ 2636 NONAME ; void QDeclarativeTextInput::setValidator(class QValidator *)
	?setValue@QDeclarativeBind@@QAEXABVQVariant@@@Z @ 2637 NONAME ; void QDeclarativeBind::setValue(class QVariant const &)
	?setValue@QDeclarativeOpenMetaObject@@QAEXABVQByteArray@@ABVQVariant@@@Z @ 2638 NONAME ; void QDeclarativeOpenMetaObject::setValue(class QByteArray const &, class QVariant const &)
	?setValue@QDeclarativeOpenMetaObject@@QAEXHABVQVariant@@@Z @ 2639 NONAME ; void QDeclarativeOpenMetaObject::setValue(int, class QVariant const &)
	?setValue@QDeclarativePathAttribute@@QAEXM@Z @ 2640 NONAME ; void QDeclarativePathAttribute::setValue(float)
	?setValue@QDeclarativePathPercent@@QAEXM@Z @ 2641 NONAME ; void QDeclarativePathPercent::setValue(float)
	?setVelocity@QDeclarativeEaseFollow@@QAEXM@Z @ 2642 NONAME ABSENT ; void QDeclarativeEaseFollow::setVelocity(float)
	?setVelocity@QDeclarativeParticles@@QAEXM@Z @ 2643 NONAME ABSENT ; void QDeclarativeParticles::setVelocity(float)
	?setVelocity@QDeclarativeSpringFollow@@QAEXM@Z @ 2644 NONAME ; void QDeclarativeSpringFollow::setVelocity(float)
	?setVelocityDeviation@QDeclarativeParticles@@QAEXM@Z @ 2645 NONAME ABSENT ; void QDeclarativeParticles::setVelocityDeviation(float)
	?setVerticalCenter@QDeclarativeAnchorChanges@@QAEXABVQDeclarativeAnchorLine@@@Z @ 2646 NONAME ABSENT ; void QDeclarativeAnchorChanges::setVerticalCenter(class QDeclarativeAnchorLine const &)
	?setVerticalCenter@QDeclarativeAnchors@@QAEXABVQDeclarativeAnchorLine@@@Z @ 2647 NONAME ABSENT ; void QDeclarativeAnchors::setVerticalCenter(class QDeclarativeAnchorLine const &)
	?setVerticalCenterOffset@QDeclarativeAnchors@@QAEXM@Z @ 2648 NONAME ; void QDeclarativeAnchors::setVerticalCenterOffset(float)
	?setVerticalTileMode@QDeclarativeBorderImage@@QAEXW4TileMode@1@@Z @ 2649 NONAME ; void QDeclarativeBorderImage::setVerticalTileMode(enum QDeclarativeBorderImage::TileMode)
	?setWhen@QDeclarativeBind@@QAEX_N@Z @ 2650 NONAME ; void QDeclarativeBind::setWhen(bool)
	?setWhen@QDeclarativeState@@QAEXPAVQDeclarativeBinding@@@Z @ 2651 NONAME ; void QDeclarativeState::setWhen(class QDeclarativeBinding *)
	?setWidth@QDeclarativeItem@@QAEXM@Z @ 2652 NONAME ; void QDeclarativeItem::setWidth(float)
	?setWidth@QDeclarativeParentChange@@QAEXM@Z @ 2653 NONAME ABSENT ; void QDeclarativeParentChange::setWidth(float)
	?setWidth@QDeclarativePen@@QAEXH@Z @ 2654 NONAME ; void QDeclarativePen::setWidth(int)
	?setWrap@QDeclarativeText@@QAEX_N@Z @ 2655 NONAME ABSENT ; void QDeclarativeText::setWrap(bool)
	?setWrap@QDeclarativeTextEdit@@QAEX_N@Z @ 2656 NONAME ABSENT ; void QDeclarativeTextEdit::setWrap(bool)
	?setWrapEnabled@QDeclarativeGridView@@QAEX_N@Z @ 2657 NONAME ; void QDeclarativeGridView::setWrapEnabled(bool)
	?setWrapEnabled@QDeclarativeListView@@QAEX_N@Z @ 2658 NONAME ; void QDeclarativeListView::setWrapEnabled(bool)
	?setWritable@QMetaPropertyBuilder@@QAEX_N@Z @ 2659 NONAME ; void QMetaPropertyBuilder::setWritable(bool)
	?setX@QDeclarativeCurve@@QAEXM@Z @ 2660 NONAME ; void QDeclarativeCurve::setX(float)
	?setX@QDeclarativeParentChange@@QAEXM@Z @ 2661 NONAME ABSENT ; void QDeclarativeParentChange::setX(float)
	?setXAttractor@QDeclarativeParticleMotionGravity@@QAEXM@Z @ 2662 NONAME ABSENT ; void QDeclarativeParticleMotionGravity::setXAttractor(float)
	?setXVariance@QDeclarativeParticleMotionWander@@QAEXM@Z @ 2663 NONAME ABSENT ; void QDeclarativeParticleMotionWander::setXVariance(float)
	?setXmax@QDeclarativeDrag@@QAEXM@Z @ 2664 NONAME ; void QDeclarativeDrag::setXmax(float)
	?setXmin@QDeclarativeDrag@@QAEXM@Z @ 2665 NONAME ; void QDeclarativeDrag::setXmin(float)
	?setXml@QDeclarativeXmlListModel@@QAEXABVQString@@@Z @ 2666 NONAME ; void QDeclarativeXmlListModel::setXml(class QString const &)
	?setY@QDeclarativeCurve@@QAEXM@Z @ 2667 NONAME ; void QDeclarativeCurve::setY(float)
	?setY@QDeclarativeParentChange@@QAEXM@Z @ 2668 NONAME ABSENT ; void QDeclarativeParentChange::setY(float)
	?setYAttractor@QDeclarativeParticleMotionGravity@@QAEXM@Z @ 2669 NONAME ABSENT ; void QDeclarativeParticleMotionGravity::setYAttractor(float)
	?setYVariance@QDeclarativeParticleMotionWander@@QAEXM@Z @ 2670 NONAME ABSENT ; void QDeclarativeParticleMotionWander::setYVariance(float)
	?setYmax@QDeclarativeDrag@@QAEXM@Z @ 2671 NONAME ; void QDeclarativeDrag::setYmax(float)
	?setYmin@QDeclarativeDrag@@QAEXM@Z @ 2672 NONAME ; void QDeclarativeDrag::setYmin(float)
	?setZoomFactor@QDeclarativeWebView@@QAEXM@Z @ 2673 NONAME ABSENT ; void QDeclarativeWebView::setZoomFactor(float)
	?settings@QDeclarativeWebView@@QBEPAVQWebSettings@@XZ @ 2674 NONAME ABSENT ; class QWebSettings * QDeclarativeWebView::settings(void) const
	?settingsObject@QDeclarativeWebView@@QBEPAVQDeclarativeWebSettings@@XZ @ 2675 NONAME ABSENT ; class QDeclarativeWebSettings * QDeclarativeWebView::settingsObject(void) const
	?shadow@QDeclarativeSystemPalette@@QBE?AVQColor@@XZ @ 2676 NONAME ; class QColor QDeclarativeSystemPalette::shadow(void) const
	?side@QDeclarativeFlipable@@QBE?AW4Side@1@XZ @ 2677 NONAME ; enum QDeclarativeFlipable::Side QDeclarativeFlipable::side(void) const
	?sideChanged@QDeclarativeFlipable@@IAEXXZ @ 2678 NONAME ; void QDeclarativeFlipable::sideChanged(void)
	?signalOffset@QDeclarativeOpenMetaObjectType@@QBEHXZ @ 2679 NONAME ; int QDeclarativeOpenMetaObjectType::signalOffset(void) const
	?signature@QMetaMethodBuilder@@QBE?AVQByteArray@@XZ @ 2680 NONAME ; class QByteArray QMetaMethodBuilder::signature(void) const
	?size@QDeclarativePropertyMap@@QBEHXZ @ 2681 NONAME ; int QDeclarativePropertyMap::size(void) const
	?sizeChange@QDeclarativeGridView@@AAEXXZ @ 2682 NONAME ABSENT ; void QDeclarativeGridView::sizeChange(void)
	?sizeChanged@QDeclarativeView@@AAEXXZ @ 2683 NONAME ABSENT ; void QDeclarativeView::sizeChanged(void)
	?sizeFFromString@QDeclarativeStringConverters@@YA?AVQSizeF@@ABVQString@@PA_N@Z @ 2684 NONAME ; class QSizeF QDeclarativeStringConverters::sizeFFromString(class QString const &, bool *)
	?sizeHint@QDeclarativeView@@UBE?AVQSize@@XZ @ 2685 NONAME ; class QSize QDeclarativeView::sizeHint(void) const
	?smooth@QDeclarativeItem@@QBE_NXZ @ 2686 NONAME ; bool QDeclarativeItem::smooth(void) const
	?smoothCache@QDeclarativePaintedItem@@QBE_NXZ @ 2687 NONAME ; bool QDeclarativePaintedItem::smoothCache(void) const
	?smoothChanged@QDeclarativeItem@@IAEXXZ @ 2688 NONAME ABSENT ; void QDeclarativeItem::smoothChanged(void)
	?snapMode@QDeclarativeListView@@QBE?AW4SnapMode@1@XZ @ 2689 NONAME ; enum QDeclarativeListView::SnapMode QDeclarativeListView::snapMode(void) const
	?snapPosition@QDeclarativePathView@@QBEMXZ @ 2690 NONAME ABSENT ; float QDeclarativePathView::snapPosition(void) const
	?source@QDeclarativeDebugObjectReference@@QBE?AVQDeclarativeDebugFileReference@@XZ @ 2691 NONAME ; class QDeclarativeDebugFileReference QDeclarativeDebugObjectReference::source(void) const
	?source@QDeclarativeFontLoader@@QBE?AVQUrl@@XZ @ 2692 NONAME ; class QUrl QDeclarativeFontLoader::source(void) const
	?source@QDeclarativeImageBase@@QBE?AVQUrl@@XZ @ 2693 NONAME ; class QUrl QDeclarativeImageBase::source(void) const
	?source@QDeclarativeLoader@@QBE?AVQUrl@@XZ @ 2694 NONAME ; class QUrl QDeclarativeLoader::source(void) const
	?source@QDeclarativeParticles@@QBE?AVQUrl@@XZ @ 2695 NONAME ABSENT ; class QUrl QDeclarativeParticles::source(void) const
	?source@QDeclarativeView@@QBE?AVQUrl@@XZ @ 2696 NONAME ; class QUrl QDeclarativeView::source(void) const
	?source@QDeclarativeXmlListModel@@QBE?AVQUrl@@XZ @ 2697 NONAME ; class QUrl QDeclarativeXmlListModel::source(void) const
	?sourceChanged@QDeclarativeEaseFollow@@IAEXXZ @ 2698 NONAME ABSENT ; void QDeclarativeEaseFollow::sourceChanged(void)
	?sourceChanged@QDeclarativeImageBase@@IAEXABVQUrl@@@Z @ 2699 NONAME ; void QDeclarativeImageBase::sourceChanged(class QUrl const &)
	?sourceChanged@QDeclarativeLoader@@IAEXXZ @ 2700 NONAME ; void QDeclarativeLoader::sourceChanged(void)
	?sourceChanged@QDeclarativeParticles@@IAEXXZ @ 2701 NONAME ABSENT ; void QDeclarativeParticles::sourceChanged(void)
	?sourceComponent@QDeclarativeLoader@@QBEPAVQDeclarativeComponent@@XZ @ 2702 NONAME ; class QDeclarativeComponent * QDeclarativeLoader::sourceComponent(void) const
	?sourceFile@QDeclarativeExpression@@QBE?AVQString@@XZ @ 2703 NONAME ; class QString QDeclarativeExpression::sourceFile(void) const
	?sourceValue@QDeclarativeEaseFollow@@QBEMXZ @ 2704 NONAME ABSENT ; float QDeclarativeEaseFollow::sourceValue(void) const
	?sourceValue@QDeclarativeSpringFollow@@QBEMXZ @ 2705 NONAME ABSENT ; float QDeclarativeSpringFollow::sourceValue(void) const
	?spacing@QDeclarativeBasePositioner@@QBEHXZ @ 2706 NONAME ; int QDeclarativeBasePositioner::spacing(void) const
	?spacing@QDeclarativeListView@@QBEMXZ @ 2707 NONAME ; float QDeclarativeListView::spacing(void) const
	?spacingChanged@QDeclarativeBasePositioner@@IAEXXZ @ 2708 NONAME ; void QDeclarativeBasePositioner::spacingChanged(void)
	?spacingChanged@QDeclarativeListView@@IAEXXZ @ 2709 NONAME ; void QDeclarativeListView::spacingChanged(void)
	?spring@QDeclarativeSpringFollow@@QBEMXZ @ 2710 NONAME ; float QDeclarativeSpringFollow::spring(void) const
	?start@QDeclarativeTimer@@QAEXXZ @ 2711 NONAME ; void QDeclarativeTimer::start(void)
	?startX@QDeclarativePath@@QBEMXZ @ 2712 NONAME ; float QDeclarativePath::startX(void) const
	?startY@QDeclarativePath@@QBEMXZ @ 2713 NONAME ; float QDeclarativePath::startY(void) const
	?state@QDeclarativeDebugQuery@@QBE?AW4State@1@XZ @ 2714 NONAME ; enum QDeclarativeDebugQuery::State QDeclarativeDebugQuery::state(void) const
	?state@QDeclarativeDebugWatch@@QBE?AW4State@1@XZ @ 2715 NONAME ; enum QDeclarativeDebugWatch::State QDeclarativeDebugWatch::state(void) const
	?state@QDeclarativeItem@@QBE?AVQString@@XZ @ 2716 NONAME ABSENT ; class QString QDeclarativeItem::state(void) const
	?state@QDeclarativeStateGroup@@QBE?AVQString@@XZ @ 2717 NONAME ; class QString QDeclarativeStateGroup::state(void) const
	?stateChanged@QDeclarativeDebugQuery@@IAEXW4State@1@@Z @ 2718 NONAME ; void QDeclarativeDebugQuery::stateChanged(enum QDeclarativeDebugQuery::State)
	?stateChanged@QDeclarativeDebugWatch@@IAEXW4State@1@@Z @ 2719 NONAME ; void QDeclarativeDebugWatch::stateChanged(enum QDeclarativeDebugWatch::State)
	?stateChanged@QDeclarativeItem@@IAEXABVQString@@@Z @ 2720 NONAME ; void QDeclarativeItem::stateChanged(class QString const &)
	?stateChanged@QDeclarativeStateGroup@@IAEXABVQString@@@Z @ 2721 NONAME ; void QDeclarativeStateGroup::stateChanged(class QString const &)
	?stateGroup@QDeclarativeState@@QBEPAVQDeclarativeStateGroup@@XZ @ 2722 NONAME ; class QDeclarativeStateGroup * QDeclarativeState::stateGroup(void) const
	?states@QDeclarativeItem@@QAE?AU?$QDeclarativeListProperty@VQDeclarativeState@@@@XZ @ 2723 NONAME ABSENT ; struct QDeclarativeListProperty<class QDeclarativeState> QDeclarativeItem::states(void)
	?states@QDeclarativeStateGroup@@QBE?AV?$QList@PAVQDeclarativeState@@@@XZ @ 2724 NONAME ; class QList<class QDeclarativeState *> QDeclarativeStateGroup::states(void) const
	?statesProperty@QDeclarativeStateGroup@@QAE?AU?$QDeclarativeListProperty@VQDeclarativeState@@@@XZ @ 2725 NONAME ABSENT ; struct QDeclarativeListProperty<class QDeclarativeState> QDeclarativeStateGroup::statesProperty(void)
	?staticMetacallFunction@QMetaObjectBuilder@@QBEP6AHW4Call@QMetaObject@@HPAPAX@ZXZ @ 2726 NONAME ; int (*)(enum QMetaObject::Call, int, void * *) QMetaObjectBuilder::staticMetacallFunction(void) const
	?status@QDeclarativeComponent@@QBE?AW4Status@1@XZ @ 2727 NONAME ; enum QDeclarativeComponent::Status QDeclarativeComponent::status(void) const
	?status@QDeclarativeFontLoader@@QBE?AW4Status@1@XZ @ 2728 NONAME ; enum QDeclarativeFontLoader::Status QDeclarativeFontLoader::status(void) const
	?status@QDeclarativeImageBase@@QBE?AW4Status@1@XZ @ 2729 NONAME ; enum QDeclarativeImageBase::Status QDeclarativeImageBase::status(void) const
	?status@QDeclarativeLoader@@QBE?AW4Status@1@XZ @ 2730 NONAME ; enum QDeclarativeLoader::Status QDeclarativeLoader::status(void) const
	?status@QDeclarativePixmapReply@@QBE?AW4Status@1@XZ @ 2731 NONAME ; enum QDeclarativePixmapReply::Status QDeclarativePixmapReply::status(void) const
	?status@QDeclarativeView@@QBE?AW4Status@1@XZ @ 2732 NONAME ; enum QDeclarativeView::Status QDeclarativeView::status(void) const
	?status@QDeclarativeWebView@@QBE?AW4Status@1@XZ @ 2733 NONAME ABSENT ; enum QDeclarativeWebView::Status QDeclarativeWebView::status(void) const
	?status@QDeclarativeXmlListModel@@QBE?AW4Status@1@XZ @ 2734 NONAME ; enum QDeclarativeXmlListModel::Status QDeclarativeXmlListModel::status(void) const
	?statusChanged@QDeclarativeComponent@@IAEXW4Status@1@@Z @ 2735 NONAME ; void QDeclarativeComponent::statusChanged(enum QDeclarativeComponent::Status)
	?statusChanged@QDeclarativeFontLoader@@IAEXXZ @ 2736 NONAME ; void QDeclarativeFontLoader::statusChanged(void)
	?statusChanged@QDeclarativeImageBase@@IAEXW4Status@1@@Z @ 2737 NONAME ; void QDeclarativeImageBase::statusChanged(enum QDeclarativeImageBase::Status)
	?statusChanged@QDeclarativeLoader@@IAEXXZ @ 2738 NONAME ; void QDeclarativeLoader::statusChanged(void)
	?statusChanged@QDeclarativeView@@IAEXW4Status@1@@Z @ 2739 NONAME ; void QDeclarativeView::statusChanged(enum QDeclarativeView::Status)
	?statusChanged@QDeclarativeWebView@@IAEXW4Status@1@@Z @ 2740 NONAME ABSENT ; void QDeclarativeWebView::statusChanged(enum QDeclarativeWebView::Status)
	?statusChanged@QDeclarativeXmlListModel@@IAEXW4Status@1@@Z @ 2741 NONAME ; void QDeclarativeXmlListModel::statusChanged(enum QDeclarativeXmlListModel::Status)
	?statusText@QDeclarativeWebView@@QBE?AVQString@@XZ @ 2742 NONAME ABSENT ; class QString QDeclarativeWebView::statusText(void) const
	?statusTextChanged@QDeclarativeWebView@@IAEXXZ @ 2743 NONAME ABSENT ; void QDeclarativeWebView::statusTextChanged(void)
	?stop@QDeclarativeTimer@@QAEXXZ @ 2744 NONAME ; void QDeclarativeTimer::stop(void)
	?stop@QDeclarativeTransition@@QAEXXZ @ 2745 NONAME ; void QDeclarativeTransition::stop(void)
	?stopAction@QDeclarativeWebView@@QBEPAVQAction@@XZ @ 2746 NONAME ABSENT ; class QAction * QDeclarativeWebView::stopAction(void) const
	?stops@QDeclarativeGradient@@QAE?AU?$QDeclarativeListProperty@VQDeclarativeGradientStop@@@@XZ @ 2747 NONAME ABSENT ; struct QDeclarativeListProperty<class QDeclarativeGradientStop> QDeclarativeGradient::stops(void)
	?stringToRule@QDeclarativeGridScaledImage@@CA?AW4TileMode@QDeclarativeBorderImage@@ABVQString@@@Z @ 2748 NONAME ; enum QDeclarativeBorderImage::TileMode QDeclarativeGridScaledImage::stringToRule(class QString const &)
	?stringValue@QDeclarativeVisualDataModel@@UAE?AVQString@@HABV2@@Z @ 2749 NONAME ; class QString QDeclarativeVisualDataModel::stringValue(int, class QString const &)
	?stringValue@QDeclarativeVisualItemModel@@UAE?AVQString@@HABV2@@Z @ 2750 NONAME ; class QString QDeclarativeVisualItemModel::stringValue(int, class QString const &)
	?stringValue@QDeclarativeVisualModel@@UAE?AVQString@@HABV2@@Z @ 2751 NONAME ; class QString QDeclarativeVisualModel::stringValue(int, class QString const &)
	?style@QDeclarativeText@@QBE?AW4TextStyle@1@XZ @ 2752 NONAME ; enum QDeclarativeText::TextStyle QDeclarativeText::style(void) const
	?styleChanged@QDeclarativeText@@IAEXW4TextStyle@1@@Z @ 2753 NONAME ; void QDeclarativeText::styleChanged(enum QDeclarativeText::TextStyle)
	?styleColor@QDeclarativeText@@QBE?AVQColor@@XZ @ 2754 NONAME ; class QColor QDeclarativeText::styleColor(void) const
	?styleColorChanged@QDeclarativeText@@IAEXABVQColor@@@Z @ 2755 NONAME ; void QDeclarativeText::styleColorChanged(class QColor const &)
	?superClass@QMetaObjectBuilder@@QBEPBUQMetaObject@@XZ @ 2756 NONAME ; struct QMetaObject const * QMetaObjectBuilder::superClass(void) const
	?syncChanged@QDeclarativeSpringFollow@@IAEXXZ @ 2757 NONAME ; void QDeclarativeSpringFollow::syncChanged(void)
	?synchronizedResizing@QDeclarativeGraphicsObjectContainer@@QBE_NXZ @ 2758 NONAME ABSENT ; bool QDeclarativeGraphicsObjectContainer::synchronizedResizing(void) const
	?tag@QMetaMethodBuilder@@QBE?AVQByteArray@@XZ @ 2759 NONAME ; class QByteArray QMetaMethodBuilder::tag(void) const
	?target@QDeclarativeConnections@@QBEPAVQObject@@XZ @ 2760 NONAME ; class QObject * QDeclarativeConnections::target(void) const
	?target@QDeclarativeDrag@@QBEPAVQDeclarativeItem@@XZ @ 2761 NONAME ABSENT ; class QDeclarativeItem * QDeclarativeDrag::target(void) const
	?targetChanged@QDeclarativeConnections@@IAEXXZ @ 2762 NONAME ; void QDeclarativeConnections::targetChanged(void)
	?targetChanged@QDeclarativeDrag@@IAEXXZ @ 2763 NONAME ; void QDeclarativeDrag::targetChanged(void)
	?testLiteralAssignment@QDeclarativeCompiler@@AAE_NABVQMetaProperty@@PAVValue@QDeclarativeParser@@@Z @ 2764 NONAME ; bool QDeclarativeCompiler::testLiteralAssignment(class QMetaProperty const &, class QDeclarativeParser::Value *)
	?testQualifiedEnumAssignment@QDeclarativeCompiler@@AAE_NABVQMetaProperty@@PAVObject@QDeclarativeParser@@PAVValue@4@PA_N@Z @ 2765 NONAME ; bool QDeclarativeCompiler::testQualifiedEnumAssignment(class QMetaProperty const &, class QDeclarativeParser::Object *, class QDeclarativeParser::Value *, bool *)
	?text@QDeclarativeNumberFormatter@@QBE?AVQString@@XZ @ 2766 NONAME ABSENT ; class QString QDeclarativeNumberFormatter::text(void) const
	?text@QDeclarativeSystemPalette@@QBE?AVQColor@@XZ @ 2767 NONAME ; class QColor QDeclarativeSystemPalette::text(void) const
	?text@QDeclarativeText@@QBE?AVQString@@XZ @ 2768 NONAME ; class QString QDeclarativeText::text(void) const
	?text@QDeclarativeTextEdit@@QBE?AVQString@@XZ @ 2769 NONAME ; class QString QDeclarativeTextEdit::text(void) const
	?text@QDeclarativeTextInput@@QBE?AVQString@@XZ @ 2770 NONAME ; class QString QDeclarativeTextInput::text(void) const
	?textChanged@QDeclarativeDateTimeFormatter@@IAEXXZ @ 2771 NONAME ABSENT ; void QDeclarativeDateTimeFormatter::textChanged(void)
	?textChanged@QDeclarativeNumberFormatter@@IAEXXZ @ 2772 NONAME ABSENT ; void QDeclarativeNumberFormatter::textChanged(void)
	?textChanged@QDeclarativeText@@IAEXABVQString@@@Z @ 2773 NONAME ; void QDeclarativeText::textChanged(class QString const &)
	?textChanged@QDeclarativeTextEdit@@IAEXABVQString@@@Z @ 2774 NONAME ; void QDeclarativeTextEdit::textChanged(class QString const &)
	?textChanged@QDeclarativeTextInput@@IAEXXZ @ 2775 NONAME ; void QDeclarativeTextInput::textChanged(void)
	?textFormat@QDeclarativeText@@QBE?AW4TextFormat@1@XZ @ 2776 NONAME ; enum QDeclarativeText::TextFormat QDeclarativeText::textFormat(void) const
	?textFormat@QDeclarativeTextEdit@@QBE?AW4TextFormat@1@XZ @ 2777 NONAME ; enum QDeclarativeTextEdit::TextFormat QDeclarativeTextEdit::textFormat(void) const
	?textFormatChanged@QDeclarativeText@@IAEXW4TextFormat@1@@Z @ 2778 NONAME ; void QDeclarativeText::textFormatChanged(enum QDeclarativeText::TextFormat)
	?textFormatChanged@QDeclarativeTextEdit@@IAEXW4TextFormat@1@@Z @ 2779 NONAME ; void QDeclarativeTextEdit::textFormatChanged(enum QDeclarativeTextEdit::TextFormat)
	?textInteractionFlags@QDeclarativeTextEdit@@QBE?AV?$QFlags@W4TextInteractionFlag@Qt@@@@XZ @ 2780 NONAME ; class QFlags<enum Qt::TextInteractionFlag> QDeclarativeTextEdit::textInteractionFlags(void) const
	?textMargin@QDeclarativeTextEdit@@QBEMXZ @ 2781 NONAME ; float QDeclarativeTextEdit::textMargin(void) const
	?textMarginChanged@QDeclarativeTextEdit@@IAEXM@Z @ 2782 NONAME ; void QDeclarativeTextEdit::textMarginChanged(float)
	?ticked@QDeclarativeFlickable@@MAEXXZ @ 2783 NONAME ; void QDeclarativeFlickable::ticked(void)
	?ticked@QDeclarativePathView@@AAEXXZ @ 2784 NONAME ; void QDeclarativePathView::ticked(void)
	?ticked@QDeclarativeTimer@@AAEXXZ @ 2785 NONAME ; void QDeclarativeTimer::ticked(void)
	?time@QDeclarativeDateTimeFormatter@@QBE?AVQTime@@XZ @ 2786 NONAME ABSENT ; class QTime QDeclarativeDateTimeFormatter::time(void) const
	?timeFormat@QDeclarativeDateTimeFormatter@@QBE?AVQString@@XZ @ 2787 NONAME ABSENT ; class QString QDeclarativeDateTimeFormatter::timeFormat(void) const
	?timeFromString@QDeclarativeStringConverters@@YA?AVQTime@@ABVQString@@PA_N@Z @ 2788 NONAME ; class QTime QDeclarativeStringConverters::timeFromString(class QString const &, bool *)
	?timeText@QDeclarativeDateTimeFormatter@@QBE?AVQString@@XZ @ 2789 NONAME ABSENT ; class QString QDeclarativeDateTimeFormatter::timeText(void) const
	?timerEvent@QDeclarativeFlickable@@MAEXPAVQTimerEvent@@@Z @ 2790 NONAME ; void QDeclarativeFlickable::timerEvent(class QTimerEvent *)
	?timerEvent@QDeclarativeMouseArea@@MAEXPAVQTimerEvent@@@Z @ 2791 NONAME ; void QDeclarativeMouseArea::timerEvent(class QTimerEvent *)
	?timerEvent@QDeclarativeView@@MAEXPAVQTimerEvent@@@Z @ 2792 NONAME ; void QDeclarativeView::timerEvent(class QTimerEvent *)
	?timerEvent@QDeclarativeWebView@@MAEXPAVQTimerEvent@@@Z @ 2793 NONAME ABSENT ; void QDeclarativeWebView::timerEvent(class QTimerEvent *)
	?title@QDeclarativeWebView@@QBE?AVQString@@XZ @ 2794 NONAME ABSENT ; class QString QDeclarativeWebView::title(void) const
	?titleChanged@QDeclarativeWebView@@IAEXABVQString@@@Z @ 2795 NONAME ABSENT ; void QDeclarativeWebView::titleChanged(class QString const &)
	?toBinding@QDeclarativeDomValue@@QBE?AVQDeclarativeDomValueBinding@@XZ @ 2796 NONAME ; class QDeclarativeDomValueBinding QDeclarativeDomValue::toBinding(void) const
	?toComponent@QDeclarativeDomObject@@QBE?AVQDeclarativeDomComponent@@XZ @ 2797 NONAME ; class QDeclarativeDomComponent QDeclarativeDomObject::toComponent(void) const
	?toList@QDeclarativeDomValue@@QBE?AVQDeclarativeDomList@@XZ @ 2798 NONAME ; class QDeclarativeDomList QDeclarativeDomValue::toList(void) const
	?toLiteral@QDeclarativeDomValue@@QBE?AVQDeclarativeDomValueLiteral@@XZ @ 2799 NONAME ; class QDeclarativeDomValueLiteral QDeclarativeDomValue::toLiteral(void) const
	?toMetaObject@QMetaObjectBuilder@@QBEPAUQMetaObject@@XZ @ 2800 NONAME ; struct QMetaObject * QMetaObjectBuilder::toMetaObject(void) const
	?toObject@QDeclarativeDomValue@@QBE?AVQDeclarativeDomObject@@XZ @ 2801 NONAME ; class QDeclarativeDomObject QDeclarativeDomValue::toObject(void) const
	?toQObject@QDeclarativeMetaType@@SAPAVQObject@@ABVQVariant@@PA_N@Z @ 2802 NONAME ; class QObject * QDeclarativeMetaType::toQObject(class QVariant const &, bool *)
	?toQmlType@QDeclarativeCompiler@@CAPAVQDeclarativeType@@PAVObject@QDeclarativeParser@@@Z @ 2803 NONAME ; class QDeclarativeType * QDeclarativeCompiler::toQmlType(class QDeclarativeParser::Object *)
	?toRelocatableData@QMetaObjectBuilder@@QBE?AVQByteArray@@PA_N@Z @ 2804 NONAME ; class QByteArray QMetaObjectBuilder::toRelocatableData(bool *) const
	?toState@QDeclarativeTransition@@QBE?AVQString@@XZ @ 2805 NONAME ; class QString QDeclarativeTransition::toState(void) const
	?toString@QDeclarativeError@@QBE?AVQString@@XZ @ 2806 NONAME ; class QString QDeclarativeError::toString(void) const
	?toString@QDeclarativeListModel@@UBE?AVQString@@H@Z @ 2807 NONAME ; class QString QDeclarativeListModel::toString(int) const
	?toString@QDeclarativeXmlListModel@@UBE?AVQString@@H@Z @ 2808 NONAME ; class QString QDeclarativeXmlListModel::toString(int) const
	?toValueInterceptor@QDeclarativeDomValue@@QBE?AVQDeclarativeDomValueValueInterceptor@@XZ @ 2809 NONAME ; class QDeclarativeDomValueValueInterceptor QDeclarativeDomValue::toValueInterceptor(void) const
	?toValueSource@QDeclarativeDomValue@@QBE?AVQDeclarativeDomValueValueSource@@XZ @ 2810 NONAME ; class QDeclarativeDomValueValueSource QDeclarativeDomValue::toValueSource(void) const
	?top@QDeclarativeAnchorChanges@@QBE?AVQDeclarativeAnchorLine@@XZ @ 2811 NONAME ABSENT ; class QDeclarativeAnchorLine QDeclarativeAnchorChanges::top(void) const
	?top@QDeclarativeAnchors@@QBE?AVQDeclarativeAnchorLine@@XZ @ 2812 NONAME ABSENT ; class QDeclarativeAnchorLine QDeclarativeAnchors::top(void) const
	?top@QDeclarativeItem@@QBE?AVQDeclarativeAnchorLine@@XZ @ 2813 NONAME ABSENT ; class QDeclarativeAnchorLine QDeclarativeItem::top(void) const
	?top@QDeclarativeScaleGrid@@QBEHXZ @ 2814 NONAME ; int QDeclarativeScaleGrid::top(void) const
	?topChanged@QDeclarativeAnchors@@IAEXXZ @ 2815 NONAME ; void QDeclarativeAnchors::topChanged(void)
	?topMargin@QDeclarativeAnchors@@QBEMXZ @ 2816 NONAME ; float QDeclarativeAnchors::topMargin(void) const
	?topMarginChanged@QDeclarativeAnchors@@IAEXXZ @ 2817 NONAME ; void QDeclarativeAnchors::topMarginChanged(void)
	?tr@QDeclarativeAnchorChanges@@SA?AVQString@@PBD0@Z @ 2818 NONAME ; class QString QDeclarativeAnchorChanges::tr(char const *, char const *)
	?tr@QDeclarativeAnchorChanges@@SA?AVQString@@PBD0H@Z @ 2819 NONAME ; class QString QDeclarativeAnchorChanges::tr(char const *, char const *, int)
	?tr@QDeclarativeAnchors@@SA?AVQString@@PBD0@Z @ 2820 NONAME ; class QString QDeclarativeAnchors::tr(char const *, char const *)
	?tr@QDeclarativeAnchors@@SA?AVQString@@PBD0H@Z @ 2821 NONAME ; class QString QDeclarativeAnchors::tr(char const *, char const *, int)
	?tr@QDeclarativeAnimatedImage@@SA?AVQString@@PBD0@Z @ 2822 NONAME ; class QString QDeclarativeAnimatedImage::tr(char const *, char const *)
	?tr@QDeclarativeAnimatedImage@@SA?AVQString@@PBD0H@Z @ 2823 NONAME ; class QString QDeclarativeAnimatedImage::tr(char const *, char const *, int)
	?tr@QDeclarativeBasePositioner@@SA?AVQString@@PBD0@Z @ 2824 NONAME ; class QString QDeclarativeBasePositioner::tr(char const *, char const *)
	?tr@QDeclarativeBasePositioner@@SA?AVQString@@PBD0H@Z @ 2825 NONAME ; class QString QDeclarativeBasePositioner::tr(char const *, char const *, int)
	?tr@QDeclarativeBehavior@@SA?AVQString@@PBD0@Z @ 2826 NONAME ; class QString QDeclarativeBehavior::tr(char const *, char const *)
	?tr@QDeclarativeBehavior@@SA?AVQString@@PBD0H@Z @ 2827 NONAME ; class QString QDeclarativeBehavior::tr(char const *, char const *, int)
	?tr@QDeclarativeBind@@SA?AVQString@@PBD0@Z @ 2828 NONAME ; class QString QDeclarativeBind::tr(char const *, char const *)
	?tr@QDeclarativeBind@@SA?AVQString@@PBD0H@Z @ 2829 NONAME ; class QString QDeclarativeBind::tr(char const *, char const *, int)
	?tr@QDeclarativeBorderImage@@SA?AVQString@@PBD0@Z @ 2830 NONAME ; class QString QDeclarativeBorderImage::tr(char const *, char const *)
	?tr@QDeclarativeBorderImage@@SA?AVQString@@PBD0H@Z @ 2831 NONAME ; class QString QDeclarativeBorderImage::tr(char const *, char const *, int)
	?tr@QDeclarativeColumn@@SA?AVQString@@PBD0@Z @ 2832 NONAME ; class QString QDeclarativeColumn::tr(char const *, char const *)
	?tr@QDeclarativeColumn@@SA?AVQString@@PBD0H@Z @ 2833 NONAME ; class QString QDeclarativeColumn::tr(char const *, char const *, int)
	?tr@QDeclarativeComponent@@SA?AVQString@@PBD0@Z @ 2834 NONAME ; class QString QDeclarativeComponent::tr(char const *, char const *)
	?tr@QDeclarativeComponent@@SA?AVQString@@PBD0H@Z @ 2835 NONAME ; class QString QDeclarativeComponent::tr(char const *, char const *, int)
	?tr@QDeclarativeConnections@@SA?AVQString@@PBD0@Z @ 2836 NONAME ; class QString QDeclarativeConnections::tr(char const *, char const *)
	?tr@QDeclarativeConnections@@SA?AVQString@@PBD0H@Z @ 2837 NONAME ; class QString QDeclarativeConnections::tr(char const *, char const *, int)
	?tr@QDeclarativeContext@@SA?AVQString@@PBD0@Z @ 2838 NONAME ; class QString QDeclarativeContext::tr(char const *, char const *)
	?tr@QDeclarativeContext@@SA?AVQString@@PBD0H@Z @ 2839 NONAME ; class QString QDeclarativeContext::tr(char const *, char const *, int)
	?tr@QDeclarativeCurve@@SA?AVQString@@PBD0@Z @ 2840 NONAME ; class QString QDeclarativeCurve::tr(char const *, char const *)
	?tr@QDeclarativeCurve@@SA?AVQString@@PBD0H@Z @ 2841 NONAME ; class QString QDeclarativeCurve::tr(char const *, char const *, int)
	?tr@QDeclarativeDateTimeFormatter@@SA?AVQString@@PBD0@Z @ 2842 NONAME ABSENT ; class QString QDeclarativeDateTimeFormatter::tr(char const *, char const *)
	?tr@QDeclarativeDateTimeFormatter@@SA?AVQString@@PBD0H@Z @ 2843 NONAME ABSENT ; class QString QDeclarativeDateTimeFormatter::tr(char const *, char const *, int)
	?tr@QDeclarativeDebugClient@@SA?AVQString@@PBD0@Z @ 2844 NONAME ; class QString QDeclarativeDebugClient::tr(char const *, char const *)
	?tr@QDeclarativeDebugClient@@SA?AVQString@@PBD0H@Z @ 2845 NONAME ; class QString QDeclarativeDebugClient::tr(char const *, char const *, int)
	?tr@QDeclarativeDebugConnection@@SA?AVQString@@PBD0@Z @ 2846 NONAME ; class QString QDeclarativeDebugConnection::tr(char const *, char const *)
	?tr@QDeclarativeDebugConnection@@SA?AVQString@@PBD0H@Z @ 2847 NONAME ; class QString QDeclarativeDebugConnection::tr(char const *, char const *, int)
	?tr@QDeclarativeDebugEnginesQuery@@SA?AVQString@@PBD0@Z @ 2848 NONAME ; class QString QDeclarativeDebugEnginesQuery::tr(char const *, char const *)
	?tr@QDeclarativeDebugEnginesQuery@@SA?AVQString@@PBD0H@Z @ 2849 NONAME ; class QString QDeclarativeDebugEnginesQuery::tr(char const *, char const *, int)
	?tr@QDeclarativeDebugExpressionQuery@@SA?AVQString@@PBD0@Z @ 2850 NONAME ; class QString QDeclarativeDebugExpressionQuery::tr(char const *, char const *)
	?tr@QDeclarativeDebugExpressionQuery@@SA?AVQString@@PBD0H@Z @ 2851 NONAME ; class QString QDeclarativeDebugExpressionQuery::tr(char const *, char const *, int)
	?tr@QDeclarativeDebugObjectExpressionWatch@@SA?AVQString@@PBD0@Z @ 2852 NONAME ; class QString QDeclarativeDebugObjectExpressionWatch::tr(char const *, char const *)
	?tr@QDeclarativeDebugObjectExpressionWatch@@SA?AVQString@@PBD0H@Z @ 2853 NONAME ; class QString QDeclarativeDebugObjectExpressionWatch::tr(char const *, char const *, int)
	?tr@QDeclarativeDebugObjectQuery@@SA?AVQString@@PBD0@Z @ 2854 NONAME ; class QString QDeclarativeDebugObjectQuery::tr(char const *, char const *)
	?tr@QDeclarativeDebugObjectQuery@@SA?AVQString@@PBD0H@Z @ 2855 NONAME ; class QString QDeclarativeDebugObjectQuery::tr(char const *, char const *, int)
	?tr@QDeclarativeDebugPropertyWatch@@SA?AVQString@@PBD0@Z @ 2856 NONAME ; class QString QDeclarativeDebugPropertyWatch::tr(char const *, char const *)
	?tr@QDeclarativeDebugPropertyWatch@@SA?AVQString@@PBD0H@Z @ 2857 NONAME ; class QString QDeclarativeDebugPropertyWatch::tr(char const *, char const *, int)
	?tr@QDeclarativeDebugQuery@@SA?AVQString@@PBD0@Z @ 2858 NONAME ; class QString QDeclarativeDebugQuery::tr(char const *, char const *)
	?tr@QDeclarativeDebugQuery@@SA?AVQString@@PBD0H@Z @ 2859 NONAME ; class QString QDeclarativeDebugQuery::tr(char const *, char const *, int)
	?tr@QDeclarativeDebugRootContextQuery@@SA?AVQString@@PBD0@Z @ 2860 NONAME ; class QString QDeclarativeDebugRootContextQuery::tr(char const *, char const *)
	?tr@QDeclarativeDebugRootContextQuery@@SA?AVQString@@PBD0H@Z @ 2861 NONAME ; class QString QDeclarativeDebugRootContextQuery::tr(char const *, char const *, int)
	?tr@QDeclarativeDebugService@@SA?AVQString@@PBD0@Z @ 2862 NONAME ; class QString QDeclarativeDebugService::tr(char const *, char const *)
	?tr@QDeclarativeDebugService@@SA?AVQString@@PBD0H@Z @ 2863 NONAME ; class QString QDeclarativeDebugService::tr(char const *, char const *, int)
	?tr@QDeclarativeDebugWatch@@SA?AVQString@@PBD0@Z @ 2864 NONAME ; class QString QDeclarativeDebugWatch::tr(char const *, char const *)
	?tr@QDeclarativeDebugWatch@@SA?AVQString@@PBD0H@Z @ 2865 NONAME ; class QString QDeclarativeDebugWatch::tr(char const *, char const *, int)
	?tr@QDeclarativeDrag@@SA?AVQString@@PBD0@Z @ 2866 NONAME ; class QString QDeclarativeDrag::tr(char const *, char const *)
	?tr@QDeclarativeDrag@@SA?AVQString@@PBD0H@Z @ 2867 NONAME ; class QString QDeclarativeDrag::tr(char const *, char const *, int)
	?tr@QDeclarativeEaseFollow@@SA?AVQString@@PBD0@Z @ 2868 NONAME ABSENT ; class QString QDeclarativeEaseFollow::tr(char const *, char const *)
	?tr@QDeclarativeEaseFollow@@SA?AVQString@@PBD0H@Z @ 2869 NONAME ABSENT ; class QString QDeclarativeEaseFollow::tr(char const *, char const *, int)
	?tr@QDeclarativeEngine@@SA?AVQString@@PBD0@Z @ 2870 NONAME ; class QString QDeclarativeEngine::tr(char const *, char const *)
	?tr@QDeclarativeEngine@@SA?AVQString@@PBD0H@Z @ 2871 NONAME ; class QString QDeclarativeEngine::tr(char const *, char const *, int)
	?tr@QDeclarativeEngineDebug@@SA?AVQString@@PBD0@Z @ 2872 NONAME ; class QString QDeclarativeEngineDebug::tr(char const *, char const *)
	?tr@QDeclarativeEngineDebug@@SA?AVQString@@PBD0H@Z @ 2873 NONAME ; class QString QDeclarativeEngineDebug::tr(char const *, char const *, int)
	?tr@QDeclarativeExpression@@SA?AVQString@@PBD0@Z @ 2874 NONAME ; class QString QDeclarativeExpression::tr(char const *, char const *)
	?tr@QDeclarativeExpression@@SA?AVQString@@PBD0H@Z @ 2875 NONAME ; class QString QDeclarativeExpression::tr(char const *, char const *, int)
	?tr@QDeclarativeExtensionPlugin@@SA?AVQString@@PBD0@Z @ 2876 NONAME ; class QString QDeclarativeExtensionPlugin::tr(char const *, char const *)
	?tr@QDeclarativeExtensionPlugin@@SA?AVQString@@PBD0H@Z @ 2877 NONAME ; class QString QDeclarativeExtensionPlugin::tr(char const *, char const *, int)
	?tr@QDeclarativeFlickable@@SA?AVQString@@PBD0@Z @ 2878 NONAME ; class QString QDeclarativeFlickable::tr(char const *, char const *)
	?tr@QDeclarativeFlickable@@SA?AVQString@@PBD0H@Z @ 2879 NONAME ; class QString QDeclarativeFlickable::tr(char const *, char const *, int)
	?tr@QDeclarativeFlipable@@SA?AVQString@@PBD0@Z @ 2880 NONAME ; class QString QDeclarativeFlipable::tr(char const *, char const *)
	?tr@QDeclarativeFlipable@@SA?AVQString@@PBD0H@Z @ 2881 NONAME ; class QString QDeclarativeFlipable::tr(char const *, char const *, int)
	?tr@QDeclarativeFlow@@SA?AVQString@@PBD0@Z @ 2882 NONAME ; class QString QDeclarativeFlow::tr(char const *, char const *)
	?tr@QDeclarativeFlow@@SA?AVQString@@PBD0H@Z @ 2883 NONAME ; class QString QDeclarativeFlow::tr(char const *, char const *, int)
	?tr@QDeclarativeFocusPanel@@SA?AVQString@@PBD0@Z @ 2884 NONAME ; class QString QDeclarativeFocusPanel::tr(char const *, char const *)
	?tr@QDeclarativeFocusPanel@@SA?AVQString@@PBD0H@Z @ 2885 NONAME ; class QString QDeclarativeFocusPanel::tr(char const *, char const *, int)
	?tr@QDeclarativeFocusScope@@SA?AVQString@@PBD0@Z @ 2886 NONAME ; class QString QDeclarativeFocusScope::tr(char const *, char const *)
	?tr@QDeclarativeFocusScope@@SA?AVQString@@PBD0H@Z @ 2887 NONAME ; class QString QDeclarativeFocusScope::tr(char const *, char const *, int)
	?tr@QDeclarativeFontLoader@@SA?AVQString@@PBD0@Z @ 2888 NONAME ; class QString QDeclarativeFontLoader::tr(char const *, char const *)
	?tr@QDeclarativeFontLoader@@SA?AVQString@@PBD0H@Z @ 2889 NONAME ; class QString QDeclarativeFontLoader::tr(char const *, char const *, int)
	?tr@QDeclarativeGradient@@SA?AVQString@@PBD0@Z @ 2890 NONAME ; class QString QDeclarativeGradient::tr(char const *, char const *)
	?tr@QDeclarativeGradient@@SA?AVQString@@PBD0H@Z @ 2891 NONAME ; class QString QDeclarativeGradient::tr(char const *, char const *, int)
	?tr@QDeclarativeGradientStop@@SA?AVQString@@PBD0@Z @ 2892 NONAME ; class QString QDeclarativeGradientStop::tr(char const *, char const *)
	?tr@QDeclarativeGradientStop@@SA?AVQString@@PBD0H@Z @ 2893 NONAME ; class QString QDeclarativeGradientStop::tr(char const *, char const *, int)
	?tr@QDeclarativeGraphicsObjectContainer@@SA?AVQString@@PBD0@Z @ 2894 NONAME ABSENT ; class QString QDeclarativeGraphicsObjectContainer::tr(char const *, char const *)
	?tr@QDeclarativeGraphicsObjectContainer@@SA?AVQString@@PBD0H@Z @ 2895 NONAME ABSENT ; class QString QDeclarativeGraphicsObjectContainer::tr(char const *, char const *, int)
	?tr@QDeclarativeGrid@@SA?AVQString@@PBD0@Z @ 2896 NONAME ; class QString QDeclarativeGrid::tr(char const *, char const *)
	?tr@QDeclarativeGrid@@SA?AVQString@@PBD0H@Z @ 2897 NONAME ; class QString QDeclarativeGrid::tr(char const *, char const *, int)
	?tr@QDeclarativeGridView@@SA?AVQString@@PBD0@Z @ 2898 NONAME ; class QString QDeclarativeGridView::tr(char const *, char const *)
	?tr@QDeclarativeGridView@@SA?AVQString@@PBD0H@Z @ 2899 NONAME ; class QString QDeclarativeGridView::tr(char const *, char const *, int)
	?tr@QDeclarativeImage@@SA?AVQString@@PBD0@Z @ 2900 NONAME ; class QString QDeclarativeImage::tr(char const *, char const *)
	?tr@QDeclarativeImage@@SA?AVQString@@PBD0H@Z @ 2901 NONAME ; class QString QDeclarativeImage::tr(char const *, char const *, int)
	?tr@QDeclarativeImageBase@@SA?AVQString@@PBD0@Z @ 2902 NONAME ; class QString QDeclarativeImageBase::tr(char const *, char const *)
	?tr@QDeclarativeImageBase@@SA?AVQString@@PBD0H@Z @ 2903 NONAME ; class QString QDeclarativeImageBase::tr(char const *, char const *, int)
	?tr@QDeclarativeItem@@SA?AVQString@@PBD0@Z @ 2904 NONAME ; class QString QDeclarativeItem::tr(char const *, char const *)
	?tr@QDeclarativeItem@@SA?AVQString@@PBD0H@Z @ 2905 NONAME ; class QString QDeclarativeItem::tr(char const *, char const *, int)
	?tr@QDeclarativeListModel@@SA?AVQString@@PBD0@Z @ 2906 NONAME ; class QString QDeclarativeListModel::tr(char const *, char const *)
	?tr@QDeclarativeListModel@@SA?AVQString@@PBD0H@Z @ 2907 NONAME ; class QString QDeclarativeListModel::tr(char const *, char const *, int)
	?tr@QDeclarativeListView@@SA?AVQString@@PBD0@Z @ 2908 NONAME ; class QString QDeclarativeListView::tr(char const *, char const *)
	?tr@QDeclarativeListView@@SA?AVQString@@PBD0H@Z @ 2909 NONAME ; class QString QDeclarativeListView::tr(char const *, char const *, int)
	?tr@QDeclarativeLoader@@SA?AVQString@@PBD0@Z @ 2910 NONAME ; class QString QDeclarativeLoader::tr(char const *, char const *)
	?tr@QDeclarativeLoader@@SA?AVQString@@PBD0H@Z @ 2911 NONAME ; class QString QDeclarativeLoader::tr(char const *, char const *, int)
	?tr@QDeclarativeMouseArea@@SA?AVQString@@PBD0@Z @ 2912 NONAME ; class QString QDeclarativeMouseArea::tr(char const *, char const *)
	?tr@QDeclarativeMouseArea@@SA?AVQString@@PBD0H@Z @ 2913 NONAME ; class QString QDeclarativeMouseArea::tr(char const *, char const *, int)
	?tr@QDeclarativeNumberFormatter@@SA?AVQString@@PBD0@Z @ 2914 NONAME ABSENT ; class QString QDeclarativeNumberFormatter::tr(char const *, char const *)
	?tr@QDeclarativeNumberFormatter@@SA?AVQString@@PBD0H@Z @ 2915 NONAME ABSENT ; class QString QDeclarativeNumberFormatter::tr(char const *, char const *, int)
	?tr@QDeclarativePaintedItem@@SA?AVQString@@PBD0@Z @ 2916 NONAME ; class QString QDeclarativePaintedItem::tr(char const *, char const *)
	?tr@QDeclarativePaintedItem@@SA?AVQString@@PBD0H@Z @ 2917 NONAME ; class QString QDeclarativePaintedItem::tr(char const *, char const *, int)
	?tr@QDeclarativeParentChange@@SA?AVQString@@PBD0@Z @ 2918 NONAME ; class QString QDeclarativeParentChange::tr(char const *, char const *)
	?tr@QDeclarativeParentChange@@SA?AVQString@@PBD0H@Z @ 2919 NONAME ; class QString QDeclarativeParentChange::tr(char const *, char const *, int)
	?tr@QDeclarativeParticleMotion@@SA?AVQString@@PBD0@Z @ 2920 NONAME ABSENT ; class QString QDeclarativeParticleMotion::tr(char const *, char const *)
	?tr@QDeclarativeParticleMotion@@SA?AVQString@@PBD0H@Z @ 2921 NONAME ABSENT ; class QString QDeclarativeParticleMotion::tr(char const *, char const *, int)
	?tr@QDeclarativeParticleMotionGravity@@SA?AVQString@@PBD0@Z @ 2922 NONAME ABSENT ; class QString QDeclarativeParticleMotionGravity::tr(char const *, char const *)
	?tr@QDeclarativeParticleMotionGravity@@SA?AVQString@@PBD0H@Z @ 2923 NONAME ABSENT ; class QString QDeclarativeParticleMotionGravity::tr(char const *, char const *, int)
	?tr@QDeclarativeParticleMotionLinear@@SA?AVQString@@PBD0@Z @ 2924 NONAME ABSENT ; class QString QDeclarativeParticleMotionLinear::tr(char const *, char const *)
	?tr@QDeclarativeParticleMotionLinear@@SA?AVQString@@PBD0H@Z @ 2925 NONAME ABSENT ; class QString QDeclarativeParticleMotionLinear::tr(char const *, char const *, int)
	?tr@QDeclarativeParticleMotionWander@@SA?AVQString@@PBD0@Z @ 2926 NONAME ABSENT ; class QString QDeclarativeParticleMotionWander::tr(char const *, char const *)
	?tr@QDeclarativeParticleMotionWander@@SA?AVQString@@PBD0H@Z @ 2927 NONAME ABSENT ; class QString QDeclarativeParticleMotionWander::tr(char const *, char const *, int)
	?tr@QDeclarativeParticles@@SA?AVQString@@PBD0@Z @ 2928 NONAME ABSENT ; class QString QDeclarativeParticles::tr(char const *, char const *)
	?tr@QDeclarativeParticles@@SA?AVQString@@PBD0H@Z @ 2929 NONAME ABSENT ; class QString QDeclarativeParticles::tr(char const *, char const *, int)
	?tr@QDeclarativePath@@SA?AVQString@@PBD0@Z @ 2930 NONAME ; class QString QDeclarativePath::tr(char const *, char const *)
	?tr@QDeclarativePath@@SA?AVQString@@PBD0H@Z @ 2931 NONAME ; class QString QDeclarativePath::tr(char const *, char const *, int)
	?tr@QDeclarativePathAttribute@@SA?AVQString@@PBD0@Z @ 2932 NONAME ; class QString QDeclarativePathAttribute::tr(char const *, char const *)
	?tr@QDeclarativePathAttribute@@SA?AVQString@@PBD0H@Z @ 2933 NONAME ; class QString QDeclarativePathAttribute::tr(char const *, char const *, int)
	?tr@QDeclarativePathCubic@@SA?AVQString@@PBD0@Z @ 2934 NONAME ; class QString QDeclarativePathCubic::tr(char const *, char const *)
	?tr@QDeclarativePathCubic@@SA?AVQString@@PBD0H@Z @ 2935 NONAME ; class QString QDeclarativePathCubic::tr(char const *, char const *, int)
	?tr@QDeclarativePathElement@@SA?AVQString@@PBD0@Z @ 2936 NONAME ; class QString QDeclarativePathElement::tr(char const *, char const *)
	?tr@QDeclarativePathElement@@SA?AVQString@@PBD0H@Z @ 2937 NONAME ; class QString QDeclarativePathElement::tr(char const *, char const *, int)
	?tr@QDeclarativePathLine@@SA?AVQString@@PBD0@Z @ 2938 NONAME ; class QString QDeclarativePathLine::tr(char const *, char const *)
	?tr@QDeclarativePathLine@@SA?AVQString@@PBD0H@Z @ 2939 NONAME ; class QString QDeclarativePathLine::tr(char const *, char const *, int)
	?tr@QDeclarativePathPercent@@SA?AVQString@@PBD0@Z @ 2940 NONAME ; class QString QDeclarativePathPercent::tr(char const *, char const *)
	?tr@QDeclarativePathPercent@@SA?AVQString@@PBD0H@Z @ 2941 NONAME ; class QString QDeclarativePathPercent::tr(char const *, char const *, int)
	?tr@QDeclarativePathQuad@@SA?AVQString@@PBD0@Z @ 2942 NONAME ; class QString QDeclarativePathQuad::tr(char const *, char const *)
	?tr@QDeclarativePathQuad@@SA?AVQString@@PBD0H@Z @ 2943 NONAME ; class QString QDeclarativePathQuad::tr(char const *, char const *, int)
	?tr@QDeclarativePathView@@SA?AVQString@@PBD0@Z @ 2944 NONAME ; class QString QDeclarativePathView::tr(char const *, char const *)
	?tr@QDeclarativePathView@@SA?AVQString@@PBD0H@Z @ 2945 NONAME ; class QString QDeclarativePathView::tr(char const *, char const *, int)
	?tr@QDeclarativePen@@SA?AVQString@@PBD0@Z @ 2946 NONAME ; class QString QDeclarativePen::tr(char const *, char const *)
	?tr@QDeclarativePen@@SA?AVQString@@PBD0H@Z @ 2947 NONAME ; class QString QDeclarativePen::tr(char const *, char const *, int)
	?tr@QDeclarativePixmapReply@@SA?AVQString@@PBD0@Z @ 2948 NONAME ; class QString QDeclarativePixmapReply::tr(char const *, char const *)
	?tr@QDeclarativePixmapReply@@SA?AVQString@@PBD0H@Z @ 2949 NONAME ; class QString QDeclarativePixmapReply::tr(char const *, char const *, int)
	?tr@QDeclarativePropertyChanges@@SA?AVQString@@PBD0@Z @ 2950 NONAME ; class QString QDeclarativePropertyChanges::tr(char const *, char const *)
	?tr@QDeclarativePropertyChanges@@SA?AVQString@@PBD0H@Z @ 2951 NONAME ; class QString QDeclarativePropertyChanges::tr(char const *, char const *, int)
	?tr@QDeclarativePropertyMap@@SA?AVQString@@PBD0@Z @ 2952 NONAME ; class QString QDeclarativePropertyMap::tr(char const *, char const *)
	?tr@QDeclarativePropertyMap@@SA?AVQString@@PBD0H@Z @ 2953 NONAME ; class QString QDeclarativePropertyMap::tr(char const *, char const *, int)
	?tr@QDeclarativeRectangle@@SA?AVQString@@PBD0@Z @ 2954 NONAME ; class QString QDeclarativeRectangle::tr(char const *, char const *)
	?tr@QDeclarativeRectangle@@SA?AVQString@@PBD0H@Z @ 2955 NONAME ; class QString QDeclarativeRectangle::tr(char const *, char const *, int)
	?tr@QDeclarativeRepeater@@SA?AVQString@@PBD0@Z @ 2956 NONAME ; class QString QDeclarativeRepeater::tr(char const *, char const *)
	?tr@QDeclarativeRepeater@@SA?AVQString@@PBD0H@Z @ 2957 NONAME ; class QString QDeclarativeRepeater::tr(char const *, char const *, int)
	?tr@QDeclarativeRow@@SA?AVQString@@PBD0@Z @ 2958 NONAME ; class QString QDeclarativeRow::tr(char const *, char const *)
	?tr@QDeclarativeRow@@SA?AVQString@@PBD0H@Z @ 2959 NONAME ; class QString QDeclarativeRow::tr(char const *, char const *, int)
	?tr@QDeclarativeScaleGrid@@SA?AVQString@@PBD0@Z @ 2960 NONAME ; class QString QDeclarativeScaleGrid::tr(char const *, char const *)
	?tr@QDeclarativeScaleGrid@@SA?AVQString@@PBD0H@Z @ 2961 NONAME ; class QString QDeclarativeScaleGrid::tr(char const *, char const *, int)
	?tr@QDeclarativeSpringFollow@@SA?AVQString@@PBD0@Z @ 2962 NONAME ; class QString QDeclarativeSpringFollow::tr(char const *, char const *)
	?tr@QDeclarativeSpringFollow@@SA?AVQString@@PBD0H@Z @ 2963 NONAME ; class QString QDeclarativeSpringFollow::tr(char const *, char const *, int)
	?tr@QDeclarativeState@@SA?AVQString@@PBD0@Z @ 2964 NONAME ; class QString QDeclarativeState::tr(char const *, char const *)
	?tr@QDeclarativeState@@SA?AVQString@@PBD0H@Z @ 2965 NONAME ; class QString QDeclarativeState::tr(char const *, char const *, int)
	?tr@QDeclarativeStateChangeScript@@SA?AVQString@@PBD0@Z @ 2966 NONAME ; class QString QDeclarativeStateChangeScript::tr(char const *, char const *)
	?tr@QDeclarativeStateChangeScript@@SA?AVQString@@PBD0H@Z @ 2967 NONAME ; class QString QDeclarativeStateChangeScript::tr(char const *, char const *, int)
	?tr@QDeclarativeStateGroup@@SA?AVQString@@PBD0@Z @ 2968 NONAME ; class QString QDeclarativeStateGroup::tr(char const *, char const *)
	?tr@QDeclarativeStateGroup@@SA?AVQString@@PBD0H@Z @ 2969 NONAME ; class QString QDeclarativeStateGroup::tr(char const *, char const *, int)
	?tr@QDeclarativeStateOperation@@SA?AVQString@@PBD0@Z @ 2970 NONAME ; class QString QDeclarativeStateOperation::tr(char const *, char const *)
	?tr@QDeclarativeStateOperation@@SA?AVQString@@PBD0H@Z @ 2971 NONAME ; class QString QDeclarativeStateOperation::tr(char const *, char const *, int)
	?tr@QDeclarativeSystemPalette@@SA?AVQString@@PBD0@Z @ 2972 NONAME ; class QString QDeclarativeSystemPalette::tr(char const *, char const *)
	?tr@QDeclarativeSystemPalette@@SA?AVQString@@PBD0H@Z @ 2973 NONAME ; class QString QDeclarativeSystemPalette::tr(char const *, char const *, int)
	?tr@QDeclarativeText@@SA?AVQString@@PBD0@Z @ 2974 NONAME ; class QString QDeclarativeText::tr(char const *, char const *)
	?tr@QDeclarativeText@@SA?AVQString@@PBD0H@Z @ 2975 NONAME ; class QString QDeclarativeText::tr(char const *, char const *, int)
	?tr@QDeclarativeTextEdit@@SA?AVQString@@PBD0@Z @ 2976 NONAME ; class QString QDeclarativeTextEdit::tr(char const *, char const *)
	?tr@QDeclarativeTextEdit@@SA?AVQString@@PBD0H@Z @ 2977 NONAME ; class QString QDeclarativeTextEdit::tr(char const *, char const *, int)
	?tr@QDeclarativeTextInput@@SA?AVQString@@PBD0@Z @ 2978 NONAME ; class QString QDeclarativeTextInput::tr(char const *, char const *)
	?tr@QDeclarativeTextInput@@SA?AVQString@@PBD0H@Z @ 2979 NONAME ; class QString QDeclarativeTextInput::tr(char const *, char const *, int)
	?tr@QDeclarativeTimer@@SA?AVQString@@PBD0@Z @ 2980 NONAME ; class QString QDeclarativeTimer::tr(char const *, char const *)
	?tr@QDeclarativeTimer@@SA?AVQString@@PBD0H@Z @ 2981 NONAME ; class QString QDeclarativeTimer::tr(char const *, char const *, int)
	?tr@QDeclarativeTransition@@SA?AVQString@@PBD0@Z @ 2982 NONAME ; class QString QDeclarativeTransition::tr(char const *, char const *)
	?tr@QDeclarativeTransition@@SA?AVQString@@PBD0H@Z @ 2983 NONAME ; class QString QDeclarativeTransition::tr(char const *, char const *, int)
	?tr@QDeclarativeValueType@@SA?AVQString@@PBD0@Z @ 2984 NONAME ; class QString QDeclarativeValueType::tr(char const *, char const *)
	?tr@QDeclarativeValueType@@SA?AVQString@@PBD0H@Z @ 2985 NONAME ; class QString QDeclarativeValueType::tr(char const *, char const *, int)
	?tr@QDeclarativeView@@SA?AVQString@@PBD0@Z @ 2986 NONAME ; class QString QDeclarativeView::tr(char const *, char const *)
	?tr@QDeclarativeView@@SA?AVQString@@PBD0H@Z @ 2987 NONAME ; class QString QDeclarativeView::tr(char const *, char const *, int)
	?tr@QDeclarativeViewSection@@SA?AVQString@@PBD0@Z @ 2988 NONAME ; class QString QDeclarativeViewSection::tr(char const *, char const *)
	?tr@QDeclarativeViewSection@@SA?AVQString@@PBD0H@Z @ 2989 NONAME ; class QString QDeclarativeViewSection::tr(char const *, char const *, int)
	?tr@QDeclarativeVisualDataModel@@SA?AVQString@@PBD0@Z @ 2990 NONAME ; class QString QDeclarativeVisualDataModel::tr(char const *, char const *)
	?tr@QDeclarativeVisualDataModel@@SA?AVQString@@PBD0H@Z @ 2991 NONAME ; class QString QDeclarativeVisualDataModel::tr(char const *, char const *, int)
	?tr@QDeclarativeVisualItemModel@@SA?AVQString@@PBD0@Z @ 2992 NONAME ; class QString QDeclarativeVisualItemModel::tr(char const *, char const *)
	?tr@QDeclarativeVisualItemModel@@SA?AVQString@@PBD0H@Z @ 2993 NONAME ; class QString QDeclarativeVisualItemModel::tr(char const *, char const *, int)
	?tr@QDeclarativeVisualModel@@SA?AVQString@@PBD0@Z @ 2994 NONAME ; class QString QDeclarativeVisualModel::tr(char const *, char const *)
	?tr@QDeclarativeVisualModel@@SA?AVQString@@PBD0H@Z @ 2995 NONAME ; class QString QDeclarativeVisualModel::tr(char const *, char const *, int)
	?tr@QDeclarativeWebPage@@SA?AVQString@@PBD0@Z @ 2996 NONAME ABSENT ; class QString QDeclarativeWebPage::tr(char const *, char const *)
	?tr@QDeclarativeWebPage@@SA?AVQString@@PBD0H@Z @ 2997 NONAME ABSENT ; class QString QDeclarativeWebPage::tr(char const *, char const *, int)
	?tr@QDeclarativeWebView@@SA?AVQString@@PBD0@Z @ 2998 NONAME ABSENT ; class QString QDeclarativeWebView::tr(char const *, char const *)
	?tr@QDeclarativeWebView@@SA?AVQString@@PBD0H@Z @ 2999 NONAME ABSENT ; class QString QDeclarativeWebView::tr(char const *, char const *, int)
	?tr@QDeclarativeXmlListModel@@SA?AVQString@@PBD0@Z @ 3000 NONAME ; class QString QDeclarativeXmlListModel::tr(char const *, char const *)
	?tr@QDeclarativeXmlListModel@@SA?AVQString@@PBD0H@Z @ 3001 NONAME ; class QString QDeclarativeXmlListModel::tr(char const *, char const *, int)
	?tr@QDeclarativeXmlListModelRole@@SA?AVQString@@PBD0@Z @ 3002 NONAME ; class QString QDeclarativeXmlListModelRole::tr(char const *, char const *)
	?tr@QDeclarativeXmlListModelRole@@SA?AVQString@@PBD0H@Z @ 3003 NONAME ; class QString QDeclarativeXmlListModelRole::tr(char const *, char const *, int)
	?tr@QListModelInterface@@SA?AVQString@@PBD0@Z @ 3004 NONAME ; class QString QListModelInterface::tr(char const *, char const *)
	?tr@QListModelInterface@@SA?AVQString@@PBD0H@Z @ 3005 NONAME ; class QString QListModelInterface::tr(char const *, char const *, int)
	?tr@QPacketProtocol@@SA?AVQString@@PBD0@Z @ 3006 NONAME ; class QString QPacketProtocol::tr(char const *, char const *)
	?tr@QPacketProtocol@@SA?AVQString@@PBD0H@Z @ 3007 NONAME ; class QString QPacketProtocol::tr(char const *, char const *, int)
	?trUtf8@QDeclarativeAnchorChanges@@SA?AVQString@@PBD0@Z @ 3008 NONAME ; class QString QDeclarativeAnchorChanges::trUtf8(char const *, char const *)
	?trUtf8@QDeclarativeAnchorChanges@@SA?AVQString@@PBD0H@Z @ 3009 NONAME ; class QString QDeclarativeAnchorChanges::trUtf8(char const *, char const *, int)
	?trUtf8@QDeclarativeAnchors@@SA?AVQString@@PBD0@Z @ 3010 NONAME ; class QString QDeclarativeAnchors::trUtf8(char const *, char const *)
	?trUtf8@QDeclarativeAnchors@@SA?AVQString@@PBD0H@Z @ 3011 NONAME ; class QString QDeclarativeAnchors::trUtf8(char const *, char const *, int)
	?trUtf8@QDeclarativeAnimatedImage@@SA?AVQString@@PBD0@Z @ 3012 NONAME ; class QString QDeclarativeAnimatedImage::trUtf8(char const *, char const *)
	?trUtf8@QDeclarativeAnimatedImage@@SA?AVQString@@PBD0H@Z @ 3013 NONAME ; class QString QDeclarativeAnimatedImage::trUtf8(char const *, char const *, int)
	?trUtf8@QDeclarativeBasePositioner@@SA?AVQString@@PBD0@Z @ 3014 NONAME ; class QString QDeclarativeBasePositioner::trUtf8(char const *, char const *)
	?trUtf8@QDeclarativeBasePositioner@@SA?AVQString@@PBD0H@Z @ 3015 NONAME ; class QString QDeclarativeBasePositioner::trUtf8(char const *, char const *, int)
	?trUtf8@QDeclarativeBehavior@@SA?AVQString@@PBD0@Z @ 3016 NONAME ; class QString QDeclarativeBehavior::trUtf8(char const *, char const *)
	?trUtf8@QDeclarativeBehavior@@SA?AVQString@@PBD0H@Z @ 3017 NONAME ; class QString QDeclarativeBehavior::trUtf8(char const *, char const *, int)
	?trUtf8@QDeclarativeBind@@SA?AVQString@@PBD0@Z @ 3018 NONAME ; class QString QDeclarativeBind::trUtf8(char const *, char const *)
	?trUtf8@QDeclarativeBind@@SA?AVQString@@PBD0H@Z @ 3019 NONAME ; class QString QDeclarativeBind::trUtf8(char const *, char const *, int)
	?trUtf8@QDeclarativeBorderImage@@SA?AVQString@@PBD0@Z @ 3020 NONAME ; class QString QDeclarativeBorderImage::trUtf8(char const *, char const *)
	?trUtf8@QDeclarativeBorderImage@@SA?AVQString@@PBD0H@Z @ 3021 NONAME ; class QString QDeclarativeBorderImage::trUtf8(char const *, char const *, int)
	?trUtf8@QDeclarativeColumn@@SA?AVQString@@PBD0@Z @ 3022 NONAME ; class QString QDeclarativeColumn::trUtf8(char const *, char const *)
	?trUtf8@QDeclarativeColumn@@SA?AVQString@@PBD0H@Z @ 3023 NONAME ; class QString QDeclarativeColumn::trUtf8(char const *, char const *, int)
	?trUtf8@QDeclarativeComponent@@SA?AVQString@@PBD0@Z @ 3024 NONAME ; class QString QDeclarativeComponent::trUtf8(char const *, char const *)
	?trUtf8@QDeclarativeComponent@@SA?AVQString@@PBD0H@Z @ 3025 NONAME ; class QString QDeclarativeComponent::trUtf8(char const *, char const *, int)
	?trUtf8@QDeclarativeConnections@@SA?AVQString@@PBD0@Z @ 3026 NONAME ; class QString QDeclarativeConnections::trUtf8(char const *, char const *)
	?trUtf8@QDeclarativeConnections@@SA?AVQString@@PBD0H@Z @ 3027 NONAME ; class QString QDeclarativeConnections::trUtf8(char const *, char const *, int)
	?trUtf8@QDeclarativeContext@@SA?AVQString@@PBD0@Z @ 3028 NONAME ; class QString QDeclarativeContext::trUtf8(char const *, char const *)
	?trUtf8@QDeclarativeContext@@SA?AVQString@@PBD0H@Z @ 3029 NONAME ; class QString QDeclarativeContext::trUtf8(char const *, char const *, int)
	?trUtf8@QDeclarativeCurve@@SA?AVQString@@PBD0@Z @ 3030 NONAME ; class QString QDeclarativeCurve::trUtf8(char const *, char const *)
	?trUtf8@QDeclarativeCurve@@SA?AVQString@@PBD0H@Z @ 3031 NONAME ; class QString QDeclarativeCurve::trUtf8(char const *, char const *, int)
	?trUtf8@QDeclarativeDateTimeFormatter@@SA?AVQString@@PBD0@Z @ 3032 NONAME ABSENT ; class QString QDeclarativeDateTimeFormatter::trUtf8(char const *, char const *)
	?trUtf8@QDeclarativeDateTimeFormatter@@SA?AVQString@@PBD0H@Z @ 3033 NONAME ABSENT ; class QString QDeclarativeDateTimeFormatter::trUtf8(char const *, char const *, int)
	?trUtf8@QDeclarativeDebugClient@@SA?AVQString@@PBD0@Z @ 3034 NONAME ; class QString QDeclarativeDebugClient::trUtf8(char const *, char const *)
	?trUtf8@QDeclarativeDebugClient@@SA?AVQString@@PBD0H@Z @ 3035 NONAME ; class QString QDeclarativeDebugClient::trUtf8(char const *, char const *, int)
	?trUtf8@QDeclarativeDebugConnection@@SA?AVQString@@PBD0@Z @ 3036 NONAME ; class QString QDeclarativeDebugConnection::trUtf8(char const *, char const *)
	?trUtf8@QDeclarativeDebugConnection@@SA?AVQString@@PBD0H@Z @ 3037 NONAME ; class QString QDeclarativeDebugConnection::trUtf8(char const *, char const *, int)
	?trUtf8@QDeclarativeDebugEnginesQuery@@SA?AVQString@@PBD0@Z @ 3038 NONAME ; class QString QDeclarativeDebugEnginesQuery::trUtf8(char const *, char const *)
	?trUtf8@QDeclarativeDebugEnginesQuery@@SA?AVQString@@PBD0H@Z @ 3039 NONAME ; class QString QDeclarativeDebugEnginesQuery::trUtf8(char const *, char const *, int)
	?trUtf8@QDeclarativeDebugExpressionQuery@@SA?AVQString@@PBD0@Z @ 3040 NONAME ; class QString QDeclarativeDebugExpressionQuery::trUtf8(char const *, char const *)
	?trUtf8@QDeclarativeDebugExpressionQuery@@SA?AVQString@@PBD0H@Z @ 3041 NONAME ; class QString QDeclarativeDebugExpressionQuery::trUtf8(char const *, char const *, int)
	?trUtf8@QDeclarativeDebugObjectExpressionWatch@@SA?AVQString@@PBD0@Z @ 3042 NONAME ; class QString QDeclarativeDebugObjectExpressionWatch::trUtf8(char const *, char const *)
	?trUtf8@QDeclarativeDebugObjectExpressionWatch@@SA?AVQString@@PBD0H@Z @ 3043 NONAME ; class QString QDeclarativeDebugObjectExpressionWatch::trUtf8(char const *, char const *, int)
	?trUtf8@QDeclarativeDebugObjectQuery@@SA?AVQString@@PBD0@Z @ 3044 NONAME ; class QString QDeclarativeDebugObjectQuery::trUtf8(char const *, char const *)
	?trUtf8@QDeclarativeDebugObjectQuery@@SA?AVQString@@PBD0H@Z @ 3045 NONAME ; class QString QDeclarativeDebugObjectQuery::trUtf8(char const *, char const *, int)
	?trUtf8@QDeclarativeDebugPropertyWatch@@SA?AVQString@@PBD0@Z @ 3046 NONAME ; class QString QDeclarativeDebugPropertyWatch::trUtf8(char const *, char const *)
	?trUtf8@QDeclarativeDebugPropertyWatch@@SA?AVQString@@PBD0H@Z @ 3047 NONAME ; class QString QDeclarativeDebugPropertyWatch::trUtf8(char const *, char const *, int)
	?trUtf8@QDeclarativeDebugQuery@@SA?AVQString@@PBD0@Z @ 3048 NONAME ; class QString QDeclarativeDebugQuery::trUtf8(char const *, char const *)
	?trUtf8@QDeclarativeDebugQuery@@SA?AVQString@@PBD0H@Z @ 3049 NONAME ; class QString QDeclarativeDebugQuery::trUtf8(char const *, char const *, int)
	?trUtf8@QDeclarativeDebugRootContextQuery@@SA?AVQString@@PBD0@Z @ 3050 NONAME ; class QString QDeclarativeDebugRootContextQuery::trUtf8(char const *, char const *)
	?trUtf8@QDeclarativeDebugRootContextQuery@@SA?AVQString@@PBD0H@Z @ 3051 NONAME ; class QString QDeclarativeDebugRootContextQuery::trUtf8(char const *, char const *, int)
	?trUtf8@QDeclarativeDebugService@@SA?AVQString@@PBD0@Z @ 3052 NONAME ; class QString QDeclarativeDebugService::trUtf8(char const *, char const *)
	?trUtf8@QDeclarativeDebugService@@SA?AVQString@@PBD0H@Z @ 3053 NONAME ; class QString QDeclarativeDebugService::trUtf8(char const *, char const *, int)
	?trUtf8@QDeclarativeDebugWatch@@SA?AVQString@@PBD0@Z @ 3054 NONAME ; class QString QDeclarativeDebugWatch::trUtf8(char const *, char const *)
	?trUtf8@QDeclarativeDebugWatch@@SA?AVQString@@PBD0H@Z @ 3055 NONAME ; class QString QDeclarativeDebugWatch::trUtf8(char const *, char const *, int)
	?trUtf8@QDeclarativeDrag@@SA?AVQString@@PBD0@Z @ 3056 NONAME ; class QString QDeclarativeDrag::trUtf8(char const *, char const *)
	?trUtf8@QDeclarativeDrag@@SA?AVQString@@PBD0H@Z @ 3057 NONAME ; class QString QDeclarativeDrag::trUtf8(char const *, char const *, int)
	?trUtf8@QDeclarativeEaseFollow@@SA?AVQString@@PBD0@Z @ 3058 NONAME ABSENT ; class QString QDeclarativeEaseFollow::trUtf8(char const *, char const *)
	?trUtf8@QDeclarativeEaseFollow@@SA?AVQString@@PBD0H@Z @ 3059 NONAME ABSENT ; class QString QDeclarativeEaseFollow::trUtf8(char const *, char const *, int)
	?trUtf8@QDeclarativeEngine@@SA?AVQString@@PBD0@Z @ 3060 NONAME ; class QString QDeclarativeEngine::trUtf8(char const *, char const *)
	?trUtf8@QDeclarativeEngine@@SA?AVQString@@PBD0H@Z @ 3061 NONAME ; class QString QDeclarativeEngine::trUtf8(char const *, char const *, int)
	?trUtf8@QDeclarativeEngineDebug@@SA?AVQString@@PBD0@Z @ 3062 NONAME ; class QString QDeclarativeEngineDebug::trUtf8(char const *, char const *)
	?trUtf8@QDeclarativeEngineDebug@@SA?AVQString@@PBD0H@Z @ 3063 NONAME ; class QString QDeclarativeEngineDebug::trUtf8(char const *, char const *, int)
	?trUtf8@QDeclarativeExpression@@SA?AVQString@@PBD0@Z @ 3064 NONAME ; class QString QDeclarativeExpression::trUtf8(char const *, char const *)
	?trUtf8@QDeclarativeExpression@@SA?AVQString@@PBD0H@Z @ 3065 NONAME ; class QString QDeclarativeExpression::trUtf8(char const *, char const *, int)
	?trUtf8@QDeclarativeExtensionPlugin@@SA?AVQString@@PBD0@Z @ 3066 NONAME ; class QString QDeclarativeExtensionPlugin::trUtf8(char const *, char const *)
	?trUtf8@QDeclarativeExtensionPlugin@@SA?AVQString@@PBD0H@Z @ 3067 NONAME ; class QString QDeclarativeExtensionPlugin::trUtf8(char const *, char const *, int)
	?trUtf8@QDeclarativeFlickable@@SA?AVQString@@PBD0@Z @ 3068 NONAME ; class QString QDeclarativeFlickable::trUtf8(char const *, char const *)
	?trUtf8@QDeclarativeFlickable@@SA?AVQString@@PBD0H@Z @ 3069 NONAME ; class QString QDeclarativeFlickable::trUtf8(char const *, char const *, int)
	?trUtf8@QDeclarativeFlipable@@SA?AVQString@@PBD0@Z @ 3070 NONAME ; class QString QDeclarativeFlipable::trUtf8(char const *, char const *)
	?trUtf8@QDeclarativeFlipable@@SA?AVQString@@PBD0H@Z @ 3071 NONAME ; class QString QDeclarativeFlipable::trUtf8(char const *, char const *, int)
	?trUtf8@QDeclarativeFlow@@SA?AVQString@@PBD0@Z @ 3072 NONAME ; class QString QDeclarativeFlow::trUtf8(char const *, char const *)
	?trUtf8@QDeclarativeFlow@@SA?AVQString@@PBD0H@Z @ 3073 NONAME ; class QString QDeclarativeFlow::trUtf8(char const *, char const *, int)
	?trUtf8@QDeclarativeFocusPanel@@SA?AVQString@@PBD0@Z @ 3074 NONAME ; class QString QDeclarativeFocusPanel::trUtf8(char const *, char const *)
	?trUtf8@QDeclarativeFocusPanel@@SA?AVQString@@PBD0H@Z @ 3075 NONAME ; class QString QDeclarativeFocusPanel::trUtf8(char const *, char const *, int)
	?trUtf8@QDeclarativeFocusScope@@SA?AVQString@@PBD0@Z @ 3076 NONAME ; class QString QDeclarativeFocusScope::trUtf8(char const *, char const *)
	?trUtf8@QDeclarativeFocusScope@@SA?AVQString@@PBD0H@Z @ 3077 NONAME ; class QString QDeclarativeFocusScope::trUtf8(char const *, char const *, int)
	?trUtf8@QDeclarativeFontLoader@@SA?AVQString@@PBD0@Z @ 3078 NONAME ; class QString QDeclarativeFontLoader::trUtf8(char const *, char const *)
	?trUtf8@QDeclarativeFontLoader@@SA?AVQString@@PBD0H@Z @ 3079 NONAME ; class QString QDeclarativeFontLoader::trUtf8(char const *, char const *, int)
	?trUtf8@QDeclarativeGradient@@SA?AVQString@@PBD0@Z @ 3080 NONAME ; class QString QDeclarativeGradient::trUtf8(char const *, char const *)
	?trUtf8@QDeclarativeGradient@@SA?AVQString@@PBD0H@Z @ 3081 NONAME ; class QString QDeclarativeGradient::trUtf8(char const *, char const *, int)
	?trUtf8@QDeclarativeGradientStop@@SA?AVQString@@PBD0@Z @ 3082 NONAME ; class QString QDeclarativeGradientStop::trUtf8(char const *, char const *)
	?trUtf8@QDeclarativeGradientStop@@SA?AVQString@@PBD0H@Z @ 3083 NONAME ; class QString QDeclarativeGradientStop::trUtf8(char const *, char const *, int)
	?trUtf8@QDeclarativeGraphicsObjectContainer@@SA?AVQString@@PBD0@Z @ 3084 NONAME ABSENT ; class QString QDeclarativeGraphicsObjectContainer::trUtf8(char const *, char const *)
	?trUtf8@QDeclarativeGraphicsObjectContainer@@SA?AVQString@@PBD0H@Z @ 3085 NONAME ABSENT ; class QString QDeclarativeGraphicsObjectContainer::trUtf8(char const *, char const *, int)
	?trUtf8@QDeclarativeGrid@@SA?AVQString@@PBD0@Z @ 3086 NONAME ; class QString QDeclarativeGrid::trUtf8(char const *, char const *)
	?trUtf8@QDeclarativeGrid@@SA?AVQString@@PBD0H@Z @ 3087 NONAME ; class QString QDeclarativeGrid::trUtf8(char const *, char const *, int)
	?trUtf8@QDeclarativeGridView@@SA?AVQString@@PBD0@Z @ 3088 NONAME ; class QString QDeclarativeGridView::trUtf8(char const *, char const *)
	?trUtf8@QDeclarativeGridView@@SA?AVQString@@PBD0H@Z @ 3089 NONAME ; class QString QDeclarativeGridView::trUtf8(char const *, char const *, int)
	?trUtf8@QDeclarativeImage@@SA?AVQString@@PBD0@Z @ 3090 NONAME ; class QString QDeclarativeImage::trUtf8(char const *, char const *)
	?trUtf8@QDeclarativeImage@@SA?AVQString@@PBD0H@Z @ 3091 NONAME ; class QString QDeclarativeImage::trUtf8(char const *, char const *, int)
	?trUtf8@QDeclarativeImageBase@@SA?AVQString@@PBD0@Z @ 3092 NONAME ; class QString QDeclarativeImageBase::trUtf8(char const *, char const *)
	?trUtf8@QDeclarativeImageBase@@SA?AVQString@@PBD0H@Z @ 3093 NONAME ; class QString QDeclarativeImageBase::trUtf8(char const *, char const *, int)
	?trUtf8@QDeclarativeItem@@SA?AVQString@@PBD0@Z @ 3094 NONAME ; class QString QDeclarativeItem::trUtf8(char const *, char const *)
	?trUtf8@QDeclarativeItem@@SA?AVQString@@PBD0H@Z @ 3095 NONAME ; class QString QDeclarativeItem::trUtf8(char const *, char const *, int)
	?trUtf8@QDeclarativeListModel@@SA?AVQString@@PBD0@Z @ 3096 NONAME ; class QString QDeclarativeListModel::trUtf8(char const *, char const *)
	?trUtf8@QDeclarativeListModel@@SA?AVQString@@PBD0H@Z @ 3097 NONAME ; class QString QDeclarativeListModel::trUtf8(char const *, char const *, int)
	?trUtf8@QDeclarativeListView@@SA?AVQString@@PBD0@Z @ 3098 NONAME ; class QString QDeclarativeListView::trUtf8(char const *, char const *)
	?trUtf8@QDeclarativeListView@@SA?AVQString@@PBD0H@Z @ 3099 NONAME ; class QString QDeclarativeListView::trUtf8(char const *, char const *, int)
	?trUtf8@QDeclarativeLoader@@SA?AVQString@@PBD0@Z @ 3100 NONAME ; class QString QDeclarativeLoader::trUtf8(char const *, char const *)
	?trUtf8@QDeclarativeLoader@@SA?AVQString@@PBD0H@Z @ 3101 NONAME ; class QString QDeclarativeLoader::trUtf8(char const *, char const *, int)
	?trUtf8@QDeclarativeMouseArea@@SA?AVQString@@PBD0@Z @ 3102 NONAME ; class QString QDeclarativeMouseArea::trUtf8(char const *, char const *)
	?trUtf8@QDeclarativeMouseArea@@SA?AVQString@@PBD0H@Z @ 3103 NONAME ; class QString QDeclarativeMouseArea::trUtf8(char const *, char const *, int)
	?trUtf8@QDeclarativeNumberFormatter@@SA?AVQString@@PBD0@Z @ 3104 NONAME ABSENT ; class QString QDeclarativeNumberFormatter::trUtf8(char const *, char const *)
	?trUtf8@QDeclarativeNumberFormatter@@SA?AVQString@@PBD0H@Z @ 3105 NONAME ABSENT ; class QString QDeclarativeNumberFormatter::trUtf8(char const *, char const *, int)
	?trUtf8@QDeclarativePaintedItem@@SA?AVQString@@PBD0@Z @ 3106 NONAME ; class QString QDeclarativePaintedItem::trUtf8(char const *, char const *)
	?trUtf8@QDeclarativePaintedItem@@SA?AVQString@@PBD0H@Z @ 3107 NONAME ; class QString QDeclarativePaintedItem::trUtf8(char const *, char const *, int)
	?trUtf8@QDeclarativeParentChange@@SA?AVQString@@PBD0@Z @ 3108 NONAME ; class QString QDeclarativeParentChange::trUtf8(char const *, char const *)
	?trUtf8@QDeclarativeParentChange@@SA?AVQString@@PBD0H@Z @ 3109 NONAME ; class QString QDeclarativeParentChange::trUtf8(char const *, char const *, int)
	?trUtf8@QDeclarativeParticleMotion@@SA?AVQString@@PBD0@Z @ 3110 NONAME ABSENT ; class QString QDeclarativeParticleMotion::trUtf8(char const *, char const *)
	?trUtf8@QDeclarativeParticleMotion@@SA?AVQString@@PBD0H@Z @ 3111 NONAME ABSENT ; class QString QDeclarativeParticleMotion::trUtf8(char const *, char const *, int)
	?trUtf8@QDeclarativeParticleMotionGravity@@SA?AVQString@@PBD0@Z @ 3112 NONAME ABSENT ; class QString QDeclarativeParticleMotionGravity::trUtf8(char const *, char const *)
	?trUtf8@QDeclarativeParticleMotionGravity@@SA?AVQString@@PBD0H@Z @ 3113 NONAME ABSENT ; class QString QDeclarativeParticleMotionGravity::trUtf8(char const *, char const *, int)
	?trUtf8@QDeclarativeParticleMotionLinear@@SA?AVQString@@PBD0@Z @ 3114 NONAME ABSENT ; class QString QDeclarativeParticleMotionLinear::trUtf8(char const *, char const *)
	?trUtf8@QDeclarativeParticleMotionLinear@@SA?AVQString@@PBD0H@Z @ 3115 NONAME ABSENT ; class QString QDeclarativeParticleMotionLinear::trUtf8(char const *, char const *, int)
	?trUtf8@QDeclarativeParticleMotionWander@@SA?AVQString@@PBD0@Z @ 3116 NONAME ABSENT ; class QString QDeclarativeParticleMotionWander::trUtf8(char const *, char const *)
	?trUtf8@QDeclarativeParticleMotionWander@@SA?AVQString@@PBD0H@Z @ 3117 NONAME ABSENT ; class QString QDeclarativeParticleMotionWander::trUtf8(char const *, char const *, int)
	?trUtf8@QDeclarativeParticles@@SA?AVQString@@PBD0@Z @ 3118 NONAME ABSENT ; class QString QDeclarativeParticles::trUtf8(char const *, char const *)
	?trUtf8@QDeclarativeParticles@@SA?AVQString@@PBD0H@Z @ 3119 NONAME ABSENT ; class QString QDeclarativeParticles::trUtf8(char const *, char const *, int)
	?trUtf8@QDeclarativePath@@SA?AVQString@@PBD0@Z @ 3120 NONAME ; class QString QDeclarativePath::trUtf8(char const *, char const *)
	?trUtf8@QDeclarativePath@@SA?AVQString@@PBD0H@Z @ 3121 NONAME ; class QString QDeclarativePath::trUtf8(char const *, char const *, int)
	?trUtf8@QDeclarativePathAttribute@@SA?AVQString@@PBD0@Z @ 3122 NONAME ; class QString QDeclarativePathAttribute::trUtf8(char const *, char const *)
	?trUtf8@QDeclarativePathAttribute@@SA?AVQString@@PBD0H@Z @ 3123 NONAME ; class QString QDeclarativePathAttribute::trUtf8(char const *, char const *, int)
	?trUtf8@QDeclarativePathCubic@@SA?AVQString@@PBD0@Z @ 3124 NONAME ; class QString QDeclarativePathCubic::trUtf8(char const *, char const *)
	?trUtf8@QDeclarativePathCubic@@SA?AVQString@@PBD0H@Z @ 3125 NONAME ; class QString QDeclarativePathCubic::trUtf8(char const *, char const *, int)
	?trUtf8@QDeclarativePathElement@@SA?AVQString@@PBD0@Z @ 3126 NONAME ; class QString QDeclarativePathElement::trUtf8(char const *, char const *)
	?trUtf8@QDeclarativePathElement@@SA?AVQString@@PBD0H@Z @ 3127 NONAME ; class QString QDeclarativePathElement::trUtf8(char const *, char const *, int)
	?trUtf8@QDeclarativePathLine@@SA?AVQString@@PBD0@Z @ 3128 NONAME ; class QString QDeclarativePathLine::trUtf8(char const *, char const *)
	?trUtf8@QDeclarativePathLine@@SA?AVQString@@PBD0H@Z @ 3129 NONAME ; class QString QDeclarativePathLine::trUtf8(char const *, char const *, int)
	?trUtf8@QDeclarativePathPercent@@SA?AVQString@@PBD0@Z @ 3130 NONAME ; class QString QDeclarativePathPercent::trUtf8(char const *, char const *)
	?trUtf8@QDeclarativePathPercent@@SA?AVQString@@PBD0H@Z @ 3131 NONAME ; class QString QDeclarativePathPercent::trUtf8(char const *, char const *, int)
	?trUtf8@QDeclarativePathQuad@@SA?AVQString@@PBD0@Z @ 3132 NONAME ; class QString QDeclarativePathQuad::trUtf8(char const *, char const *)
	?trUtf8@QDeclarativePathQuad@@SA?AVQString@@PBD0H@Z @ 3133 NONAME ; class QString QDeclarativePathQuad::trUtf8(char const *, char const *, int)
	?trUtf8@QDeclarativePathView@@SA?AVQString@@PBD0@Z @ 3134 NONAME ; class QString QDeclarativePathView::trUtf8(char const *, char const *)
	?trUtf8@QDeclarativePathView@@SA?AVQString@@PBD0H@Z @ 3135 NONAME ; class QString QDeclarativePathView::trUtf8(char const *, char const *, int)
	?trUtf8@QDeclarativePen@@SA?AVQString@@PBD0@Z @ 3136 NONAME ; class QString QDeclarativePen::trUtf8(char const *, char const *)
	?trUtf8@QDeclarativePen@@SA?AVQString@@PBD0H@Z @ 3137 NONAME ; class QString QDeclarativePen::trUtf8(char const *, char const *, int)
	?trUtf8@QDeclarativePixmapReply@@SA?AVQString@@PBD0@Z @ 3138 NONAME ; class QString QDeclarativePixmapReply::trUtf8(char const *, char const *)
	?trUtf8@QDeclarativePixmapReply@@SA?AVQString@@PBD0H@Z @ 3139 NONAME ; class QString QDeclarativePixmapReply::trUtf8(char const *, char const *, int)
	?trUtf8@QDeclarativePropertyChanges@@SA?AVQString@@PBD0@Z @ 3140 NONAME ; class QString QDeclarativePropertyChanges::trUtf8(char const *, char const *)
	?trUtf8@QDeclarativePropertyChanges@@SA?AVQString@@PBD0H@Z @ 3141 NONAME ; class QString QDeclarativePropertyChanges::trUtf8(char const *, char const *, int)
	?trUtf8@QDeclarativePropertyMap@@SA?AVQString@@PBD0@Z @ 3142 NONAME ; class QString QDeclarativePropertyMap::trUtf8(char const *, char const *)
	?trUtf8@QDeclarativePropertyMap@@SA?AVQString@@PBD0H@Z @ 3143 NONAME ; class QString QDeclarativePropertyMap::trUtf8(char const *, char const *, int)
	?trUtf8@QDeclarativeRectangle@@SA?AVQString@@PBD0@Z @ 3144 NONAME ; class QString QDeclarativeRectangle::trUtf8(char const *, char const *)
	?trUtf8@QDeclarativeRectangle@@SA?AVQString@@PBD0H@Z @ 3145 NONAME ; class QString QDeclarativeRectangle::trUtf8(char const *, char const *, int)
	?trUtf8@QDeclarativeRepeater@@SA?AVQString@@PBD0@Z @ 3146 NONAME ; class QString QDeclarativeRepeater::trUtf8(char const *, char const *)
	?trUtf8@QDeclarativeRepeater@@SA?AVQString@@PBD0H@Z @ 3147 NONAME ; class QString QDeclarativeRepeater::trUtf8(char const *, char const *, int)
	?trUtf8@QDeclarativeRow@@SA?AVQString@@PBD0@Z @ 3148 NONAME ; class QString QDeclarativeRow::trUtf8(char const *, char const *)
	?trUtf8@QDeclarativeRow@@SA?AVQString@@PBD0H@Z @ 3149 NONAME ; class QString QDeclarativeRow::trUtf8(char const *, char const *, int)
	?trUtf8@QDeclarativeScaleGrid@@SA?AVQString@@PBD0@Z @ 3150 NONAME ; class QString QDeclarativeScaleGrid::trUtf8(char const *, char const *)
	?trUtf8@QDeclarativeScaleGrid@@SA?AVQString@@PBD0H@Z @ 3151 NONAME ; class QString QDeclarativeScaleGrid::trUtf8(char const *, char const *, int)
	?trUtf8@QDeclarativeSpringFollow@@SA?AVQString@@PBD0@Z @ 3152 NONAME ; class QString QDeclarativeSpringFollow::trUtf8(char const *, char const *)
	?trUtf8@QDeclarativeSpringFollow@@SA?AVQString@@PBD0H@Z @ 3153 NONAME ; class QString QDeclarativeSpringFollow::trUtf8(char const *, char const *, int)
	?trUtf8@QDeclarativeState@@SA?AVQString@@PBD0@Z @ 3154 NONAME ; class QString QDeclarativeState::trUtf8(char const *, char const *)
	?trUtf8@QDeclarativeState@@SA?AVQString@@PBD0H@Z @ 3155 NONAME ; class QString QDeclarativeState::trUtf8(char const *, char const *, int)
	?trUtf8@QDeclarativeStateChangeScript@@SA?AVQString@@PBD0@Z @ 3156 NONAME ; class QString QDeclarativeStateChangeScript::trUtf8(char const *, char const *)
	?trUtf8@QDeclarativeStateChangeScript@@SA?AVQString@@PBD0H@Z @ 3157 NONAME ; class QString QDeclarativeStateChangeScript::trUtf8(char const *, char const *, int)
	?trUtf8@QDeclarativeStateGroup@@SA?AVQString@@PBD0@Z @ 3158 NONAME ; class QString QDeclarativeStateGroup::trUtf8(char const *, char const *)
	?trUtf8@QDeclarativeStateGroup@@SA?AVQString@@PBD0H@Z @ 3159 NONAME ; class QString QDeclarativeStateGroup::trUtf8(char const *, char const *, int)
	?trUtf8@QDeclarativeStateOperation@@SA?AVQString@@PBD0@Z @ 3160 NONAME ; class QString QDeclarativeStateOperation::trUtf8(char const *, char const *)
	?trUtf8@QDeclarativeStateOperation@@SA?AVQString@@PBD0H@Z @ 3161 NONAME ; class QString QDeclarativeStateOperation::trUtf8(char const *, char const *, int)
	?trUtf8@QDeclarativeSystemPalette@@SA?AVQString@@PBD0@Z @ 3162 NONAME ; class QString QDeclarativeSystemPalette::trUtf8(char const *, char const *)
	?trUtf8@QDeclarativeSystemPalette@@SA?AVQString@@PBD0H@Z @ 3163 NONAME ; class QString QDeclarativeSystemPalette::trUtf8(char const *, char const *, int)
	?trUtf8@QDeclarativeText@@SA?AVQString@@PBD0@Z @ 3164 NONAME ; class QString QDeclarativeText::trUtf8(char const *, char const *)
	?trUtf8@QDeclarativeText@@SA?AVQString@@PBD0H@Z @ 3165 NONAME ; class QString QDeclarativeText::trUtf8(char const *, char const *, int)
	?trUtf8@QDeclarativeTextEdit@@SA?AVQString@@PBD0@Z @ 3166 NONAME ; class QString QDeclarativeTextEdit::trUtf8(char const *, char const *)
	?trUtf8@QDeclarativeTextEdit@@SA?AVQString@@PBD0H@Z @ 3167 NONAME ; class QString QDeclarativeTextEdit::trUtf8(char const *, char const *, int)
	?trUtf8@QDeclarativeTextInput@@SA?AVQString@@PBD0@Z @ 3168 NONAME ; class QString QDeclarativeTextInput::trUtf8(char const *, char const *)
	?trUtf8@QDeclarativeTextInput@@SA?AVQString@@PBD0H@Z @ 3169 NONAME ; class QString QDeclarativeTextInput::trUtf8(char const *, char const *, int)
	?trUtf8@QDeclarativeTimer@@SA?AVQString@@PBD0@Z @ 3170 NONAME ; class QString QDeclarativeTimer::trUtf8(char const *, char const *)
	?trUtf8@QDeclarativeTimer@@SA?AVQString@@PBD0H@Z @ 3171 NONAME ; class QString QDeclarativeTimer::trUtf8(char const *, char const *, int)
	?trUtf8@QDeclarativeTransition@@SA?AVQString@@PBD0@Z @ 3172 NONAME ; class QString QDeclarativeTransition::trUtf8(char const *, char const *)
	?trUtf8@QDeclarativeTransition@@SA?AVQString@@PBD0H@Z @ 3173 NONAME ; class QString QDeclarativeTransition::trUtf8(char const *, char const *, int)
	?trUtf8@QDeclarativeValueType@@SA?AVQString@@PBD0@Z @ 3174 NONAME ; class QString QDeclarativeValueType::trUtf8(char const *, char const *)
	?trUtf8@QDeclarativeValueType@@SA?AVQString@@PBD0H@Z @ 3175 NONAME ; class QString QDeclarativeValueType::trUtf8(char const *, char const *, int)
	?trUtf8@QDeclarativeView@@SA?AVQString@@PBD0@Z @ 3176 NONAME ; class QString QDeclarativeView::trUtf8(char const *, char const *)
	?trUtf8@QDeclarativeView@@SA?AVQString@@PBD0H@Z @ 3177 NONAME ; class QString QDeclarativeView::trUtf8(char const *, char const *, int)
	?trUtf8@QDeclarativeViewSection@@SA?AVQString@@PBD0@Z @ 3178 NONAME ; class QString QDeclarativeViewSection::trUtf8(char const *, char const *)
	?trUtf8@QDeclarativeViewSection@@SA?AVQString@@PBD0H@Z @ 3179 NONAME ; class QString QDeclarativeViewSection::trUtf8(char const *, char const *, int)
	?trUtf8@QDeclarativeVisualDataModel@@SA?AVQString@@PBD0@Z @ 3180 NONAME ; class QString QDeclarativeVisualDataModel::trUtf8(char const *, char const *)
	?trUtf8@QDeclarativeVisualDataModel@@SA?AVQString@@PBD0H@Z @ 3181 NONAME ; class QString QDeclarativeVisualDataModel::trUtf8(char const *, char const *, int)
	?trUtf8@QDeclarativeVisualItemModel@@SA?AVQString@@PBD0@Z @ 3182 NONAME ; class QString QDeclarativeVisualItemModel::trUtf8(char const *, char const *)
	?trUtf8@QDeclarativeVisualItemModel@@SA?AVQString@@PBD0H@Z @ 3183 NONAME ; class QString QDeclarativeVisualItemModel::trUtf8(char const *, char const *, int)
	?trUtf8@QDeclarativeVisualModel@@SA?AVQString@@PBD0@Z @ 3184 NONAME ; class QString QDeclarativeVisualModel::trUtf8(char const *, char const *)
	?trUtf8@QDeclarativeVisualModel@@SA?AVQString@@PBD0H@Z @ 3185 NONAME ; class QString QDeclarativeVisualModel::trUtf8(char const *, char const *, int)
	?trUtf8@QDeclarativeWebPage@@SA?AVQString@@PBD0@Z @ 3186 NONAME ABSENT ; class QString QDeclarativeWebPage::trUtf8(char const *, char const *)
	?trUtf8@QDeclarativeWebPage@@SA?AVQString@@PBD0H@Z @ 3187 NONAME ABSENT ; class QString QDeclarativeWebPage::trUtf8(char const *, char const *, int)
	?trUtf8@QDeclarativeWebView@@SA?AVQString@@PBD0@Z @ 3188 NONAME ABSENT ; class QString QDeclarativeWebView::trUtf8(char const *, char const *)
	?trUtf8@QDeclarativeWebView@@SA?AVQString@@PBD0H@Z @ 3189 NONAME ABSENT ; class QString QDeclarativeWebView::trUtf8(char const *, char const *, int)
	?trUtf8@QDeclarativeXmlListModel@@SA?AVQString@@PBD0@Z @ 3190 NONAME ; class QString QDeclarativeXmlListModel::trUtf8(char const *, char const *)
	?trUtf8@QDeclarativeXmlListModel@@SA?AVQString@@PBD0H@Z @ 3191 NONAME ; class QString QDeclarativeXmlListModel::trUtf8(char const *, char const *, int)
	?trUtf8@QDeclarativeXmlListModelRole@@SA?AVQString@@PBD0@Z @ 3192 NONAME ; class QString QDeclarativeXmlListModelRole::trUtf8(char const *, char const *)
	?trUtf8@QDeclarativeXmlListModelRole@@SA?AVQString@@PBD0H@Z @ 3193 NONAME ; class QString QDeclarativeXmlListModelRole::trUtf8(char const *, char const *, int)
	?trUtf8@QListModelInterface@@SA?AVQString@@PBD0@Z @ 3194 NONAME ; class QString QListModelInterface::trUtf8(char const *, char const *)
	?trUtf8@QListModelInterface@@SA?AVQString@@PBD0H@Z @ 3195 NONAME ; class QString QListModelInterface::trUtf8(char const *, char const *, int)
	?trUtf8@QPacketProtocol@@SA?AVQString@@PBD0@Z @ 3196 NONAME ; class QString QPacketProtocol::trUtf8(char const *, char const *)
	?trUtf8@QPacketProtocol@@SA?AVQString@@PBD0H@Z @ 3197 NONAME ; class QString QPacketProtocol::trUtf8(char const *, char const *, int)
	?trackedPositionChanged@QDeclarativeGridView@@AAEXXZ @ 3198 NONAME ; void QDeclarativeGridView::trackedPositionChanged(void)
	?trackedPositionChanged@QDeclarativeListView@@AAEXXZ @ 3199 NONAME ; void QDeclarativeListView::trackedPositionChanged(void)
	?transform@QDeclarativeItem@@QAE?AU?$QDeclarativeListProperty@VQGraphicsTransform@@@@XZ @ 3200 NONAME ABSENT ; struct QDeclarativeListProperty<class QGraphicsTransform> QDeclarativeItem::transform(void)
	?transformOrigin@QDeclarativeItem@@QBE?AW4TransformOrigin@1@XZ @ 3201 NONAME ; enum QDeclarativeItem::TransformOrigin QDeclarativeItem::transformOrigin(void) const
	?transformOriginChanged@QDeclarativeItem@@IAEXW4TransformOrigin@1@@Z @ 3202 NONAME ; void QDeclarativeItem::transformOriginChanged(enum QDeclarativeItem::TransformOrigin)
	?transitions@QDeclarativeItem@@QAE?AU?$QDeclarativeListProperty@VQDeclarativeTransition@@@@XZ @ 3203 NONAME ABSENT ; struct QDeclarativeListProperty<class QDeclarativeTransition> QDeclarativeItem::transitions(void)
	?transitionsProperty@QDeclarativeStateGroup@@QAE?AU?$QDeclarativeListProperty@VQDeclarativeTransition@@@@XZ @ 3204 NONAME ABSENT ; struct QDeclarativeListProperty<class QDeclarativeTransition> QDeclarativeStateGroup::transitionsProperty(void)
	?triggered@QDeclarativeTimer@@IAEXXZ @ 3205 NONAME ; void QDeclarativeTimer::triggered(void)
	?triggeredOnStart@QDeclarativeTimer@@QBE_NXZ @ 3206 NONAME ; bool QDeclarativeTimer::triggeredOnStart(void) const
	?type@QDeclarativeDomImport@@QBE?AW4Type@1@XZ @ 3207 NONAME ; enum QDeclarativeDomImport::Type QDeclarativeDomImport::type(void) const
	?type@QDeclarativeDomValue@@QBE?AW4Type@1@XZ @ 3208 NONAME ; enum QDeclarativeDomValue::Type QDeclarativeDomValue::type(void) const
	?type@QDeclarativeListAccessor@@QBE?AW4Type@1@XZ @ 3209 NONAME ; enum QDeclarativeListAccessor::Type QDeclarativeListAccessor::type(void) const
	?type@QDeclarativeOpenMetaObject@@QBEPAVQDeclarativeOpenMetaObjectType@@XZ @ 3210 NONAME ; class QDeclarativeOpenMetaObjectType * QDeclarativeOpenMetaObject::type(void) const
	?type@QDeclarativeProperty@@QBE?AW4Type@1@XZ @ 3211 NONAME ; enum QDeclarativeProperty::Type QDeclarativeProperty::type(void) const
	?type@QMetaPropertyBuilder@@QBE?AVQByteArray@@XZ @ 3212 NONAME ; class QByteArray QMetaPropertyBuilder::type(void) const
	?typeCategory@QDeclarativeMetaType@@SA?AW4TypeCategory@1@H@Z @ 3213 NONAME ; enum QDeclarativeMetaType::TypeCategory QDeclarativeMetaType::typeCategory(int)
	?typeId@QDeclarativeType@@QBEHXZ @ 3214 NONAME ; int QDeclarativeType::typeId(void) const
	?typeName@QDeclarativeAnchorChanges@@UBE?AVQString@@XZ @ 3215 NONAME ; class QString QDeclarativeAnchorChanges::typeName(void) const
	?typeName@QDeclarativeParentChange@@UBE?AVQString@@XZ @ 3216 NONAME ; class QString QDeclarativeParentChange::typeName(void) const
	?typeName@QDeclarativeStateChangeScript@@UBE?AVQString@@XZ @ 3217 NONAME ; class QString QDeclarativeStateChangeScript::typeName(void) const
	?typeName@QDeclarativeType@@QBE?AVQByteArray@@XZ @ 3218 NONAME ; class QByteArray QDeclarativeType::typeName(void) const
	?update@QDeclarativeTimer@@AAEXXZ @ 3219 NONAME ; void QDeclarativeTimer::update(void)
	?updateAutoState@QDeclarativeStateGroup@@AAE_NXZ @ 3220 NONAME ; bool QDeclarativeStateGroup::updateAutoState(void)
	?updateGradient@QDeclarativeGradientStop@@AAEXXZ @ 3221 NONAME ; void QDeclarativeGradientStop::updateGradient(void)
	?updateImgCache@QDeclarativeTextEdit@@AAEXABVQRectF@@@Z @ 3222 NONAME ; void QDeclarativeTextEdit::updateImgCache(class QRectF const &)
	?updatePaintedGeometry@QDeclarativeImage@@IAEXXZ @ 3223 NONAME ; void QDeclarativeImage::updatePaintedGeometry(void)
	?updateRect@QDeclarativeTextInput@@AAEXABVQRect@@@Z @ 3224 NONAME ; void QDeclarativeTextInput::updateRect(class QRect const &)
	?updateSelectionMarkers@QDeclarativeTextEdit@@AAEXXZ @ 3225 NONAME ; void QDeclarativeTextEdit::updateSelectionMarkers(void)
	?updateSize@QDeclarativeTextEdit@@AAEXXZ @ 3226 NONAME ; void QDeclarativeTextEdit::updateSize(void)
	?updateSize@QDeclarativeTextInput@@AAEX_N@Z @ 3227 NONAME ; void QDeclarativeTextInput::updateSize(bool)
	?updated@QDeclarativeGradient@@IAEXXZ @ 3228 NONAME ; void QDeclarativeGradient::updated(void)
	?uri@QDeclarativeDomImport@@QBE?AVQString@@XZ @ 3229 NONAME ; class QString QDeclarativeDomImport::uri(void) const
	?url@QDeclarativeComponent@@QBE?AVQUrl@@XZ @ 3230 NONAME ; class QUrl QDeclarativeComponent::url(void) const
	?url@QDeclarativeDebugFileReference@@QBE?AVQUrl@@XZ @ 3231 NONAME ; class QUrl QDeclarativeDebugFileReference::url(void) const
	?url@QDeclarativeDomObject@@QBE?AVQUrl@@XZ @ 3232 NONAME ; class QUrl QDeclarativeDomObject::url(void) const
	?url@QDeclarativeError@@QBE?AVQUrl@@XZ @ 3233 NONAME ; class QUrl QDeclarativeError::url(void) const
	?url@QDeclarativePixmapReply@@QBEABVQUrl@@XZ @ 3234 NONAME ; class QUrl const & QDeclarativePixmapReply::url(void) const
	?url@QDeclarativeWebView@@QBE?AVQUrl@@XZ @ 3235 NONAME ABSENT ; class QUrl QDeclarativeWebView::url(void) const
	?urlChanged@QDeclarativeWebView@@IAEXXZ @ 3236 NONAME ABSENT ; void QDeclarativeWebView::urlChanged(void)
	?usedAnchors@QDeclarativeAnchors@@QBE?AV?$QFlags@W4UsedAnchor@QDeclarativeAnchors@@@@XZ @ 3237 NONAME ABSENT ; class QFlags<enum QDeclarativeAnchors::UsedAnchor> QDeclarativeAnchors::usedAnchors(void) const
	?vAlign@QDeclarativeText@@QBE?AW4VAlignment@1@XZ @ 3238 NONAME ; enum QDeclarativeText::VAlignment QDeclarativeText::vAlign(void) const
	?vAlign@QDeclarativeTextEdit@@QBE?AW4VAlignment@1@XZ @ 3239 NONAME ; enum QDeclarativeTextEdit::VAlignment QDeclarativeTextEdit::vAlign(void) const
	?vHeight@QDeclarativeFlickable@@IBEMXZ @ 3240 NONAME ; float QDeclarativeFlickable::vHeight(void) const
	?vWidth@QDeclarativeFlickable@@IBEMXZ @ 3241 NONAME ; float QDeclarativeFlickable::vWidth(void) const
	?validator@QDeclarativeTextInput@@QBEPAVQValidator@@XZ @ 3242 NONAME ; class QValidator * QDeclarativeTextInput::validator(void) const
	?validatorChanged@QDeclarativeTextInput@@IAEXXZ @ 3243 NONAME ; void QDeclarativeTextInput::validatorChanged(void)
	?value@QDeclarativeBind@@QBE?AVQVariant@@XZ @ 3244 NONAME ; class QVariant QDeclarativeBind::value(void) const
	?value@QDeclarativeDebugPropertyReference@@QBE?AVQVariant@@XZ @ 3245 NONAME ; class QVariant QDeclarativeDebugPropertyReference::value(void) const
	?value@QDeclarativeDomProperty@@QBE?AVQDeclarativeDomValue@@XZ @ 3246 NONAME ; class QDeclarativeDomValue QDeclarativeDomProperty::value(void) const
	?value@QDeclarativeExpression@@QAE?AVQVariant@@PA_N@Z @ 3247 NONAME ABSENT ; class QVariant QDeclarativeExpression::value(bool *)
	?value@QDeclarativeOpenMetaObject@@QBE?AVQVariant@@ABVQByteArray@@@Z @ 3248 NONAME ; class QVariant QDeclarativeOpenMetaObject::value(class QByteArray const &) const
	?value@QDeclarativeOpenMetaObject@@QBE?AVQVariant@@H@Z @ 3249 NONAME ; class QVariant QDeclarativeOpenMetaObject::value(int) const
	?value@QDeclarativePathAttribute@@QBEMXZ @ 3250 NONAME ; float QDeclarativePathAttribute::value(void) const
	?value@QDeclarativePathPercent@@QBEMXZ @ 3251 NONAME ; float QDeclarativePathPercent::value(void) const
	?value@QDeclarativePropertyMap@@QBE?AVQVariant@@ABVQString@@@Z @ 3252 NONAME ; class QVariant QDeclarativePropertyMap::value(class QString const &) const
	?value@QDeclarativeSpringFollow@@QBEMXZ @ 3253 NONAME ; float QDeclarativeSpringFollow::value(void) const
	?value@QMetaEnumBuilder@@QBEHH@Z @ 3254 NONAME ; int QMetaEnumBuilder::value(int) const
	?valueChanged@QDeclarativeDebugWatch@@IAEXABVQByteArray@@ABVQVariant@@@Z @ 3255 NONAME ; void QDeclarativeDebugWatch::valueChanged(class QByteArray const &, class QVariant const &)
	?valueChanged@QDeclarativeExpression@@IAEXXZ @ 3256 NONAME ; void QDeclarativeExpression::valueChanged(void)
	?valueChanged@QDeclarativePropertyMap@@IAEXABVQString@@@Z @ 3257 NONAME ABSENT ; void QDeclarativePropertyMap::valueChanged(class QString const &)
	?valueChanged@QDeclarativeSpringFollow@@IAEXM@Z @ 3258 NONAME ; void QDeclarativeSpringFollow::valueChanged(float)
	?valueForNode@QDeclarativeListModel@@ABE?AVQVariant@@PAUModelNode@@@Z @ 3259 NONAME ABSENT ; class QVariant QDeclarativeListModel::valueForNode(struct ModelNode *) const
	?valueType@QDeclarativeValueTypeFactory@@SAPAVQDeclarativeValueType@@H@Z @ 3260 NONAME ; class QDeclarativeValueType * QDeclarativeValueTypeFactory::valueType(int)
	?valueTypeName@QDeclarativeDebugPropertyReference@@QBE?AVQString@@XZ @ 3261 NONAME ; class QString QDeclarativeDebugPropertyReference::valueTypeName(void) const
	?values@QDeclarativeDomList@@QBE?AV?$QList@VQDeclarativeDomValue@@@@XZ @ 3262 NONAME ; class QList<class QDeclarativeDomValue> QDeclarativeDomList::values(void) const
	?variantFromString@QDeclarativeStringConverters@@YA?AVQVariant@@ABVQString@@@Z @ 3263 NONAME ; class QVariant QDeclarativeStringConverters::variantFromString(class QString const &)
	?variantFromString@QDeclarativeStringConverters@@YA?AVQVariant@@ABVQString@@HPA_N@Z @ 3264 NONAME ; class QVariant QDeclarativeStringConverters::variantFromString(class QString const &, int, bool *)
	?vector3DFromString@QDeclarativeStringConverters@@YA?AVQVector3D@@ABVQString@@PA_N@Z @ 3265 NONAME ; class QVector3D QDeclarativeStringConverters::vector3DFromString(class QString const &, bool *)
	?velocity@QDeclarativeEaseFollow@@QBEMXZ @ 3266 NONAME ABSENT ; float QDeclarativeEaseFollow::velocity(void) const
	?velocity@QDeclarativeParticles@@QBEMXZ @ 3267 NONAME ABSENT ; float QDeclarativeParticles::velocity(void) const
	?velocity@QDeclarativeSpringFollow@@QBEMXZ @ 3268 NONAME ; float QDeclarativeSpringFollow::velocity(void) const
	?velocityChanged@QDeclarativeEaseFollow@@IAEXXZ @ 3269 NONAME ABSENT ; void QDeclarativeEaseFollow::velocityChanged(void)
	?velocityChanged@QDeclarativeParticles@@IAEXXZ @ 3270 NONAME ABSENT ; void QDeclarativeParticles::velocityChanged(void)
	?velocityDeviation@QDeclarativeParticles@@QBEMXZ @ 3271 NONAME ABSENT ; float QDeclarativeParticles::velocityDeviation(void) const
	?velocityDeviationChanged@QDeclarativeParticles@@IAEXXZ @ 3272 NONAME ABSENT ; void QDeclarativeParticles::velocityDeviationChanged(void)
	?version@QDeclarativeDomImport@@QBE?AVQString@@XZ @ 3273 NONAME ; class QString QDeclarativeDomImport::version(void) const
	?verticalAlignmentChanged@QDeclarativeText@@IAEXW4VAlignment@1@@Z @ 3274 NONAME ; void QDeclarativeText::verticalAlignmentChanged(enum QDeclarativeText::VAlignment)
	?verticalAlignmentChanged@QDeclarativeTextEdit@@IAEXW4VAlignment@1@@Z @ 3275 NONAME ; void QDeclarativeTextEdit::verticalAlignmentChanged(enum QDeclarativeTextEdit::VAlignment)
	?verticalCenter@QDeclarativeAnchorChanges@@QBE?AVQDeclarativeAnchorLine@@XZ @ 3276 NONAME ABSENT ; class QDeclarativeAnchorLine QDeclarativeAnchorChanges::verticalCenter(void) const
	?verticalCenter@QDeclarativeAnchors@@QBE?AVQDeclarativeAnchorLine@@XZ @ 3277 NONAME ABSENT ; class QDeclarativeAnchorLine QDeclarativeAnchors::verticalCenter(void) const
	?verticalCenter@QDeclarativeItem@@QBE?AVQDeclarativeAnchorLine@@XZ @ 3278 NONAME ABSENT ; class QDeclarativeAnchorLine QDeclarativeItem::verticalCenter(void) const
	?verticalCenterChanged@QDeclarativeAnchors@@IAEXXZ @ 3279 NONAME ; void QDeclarativeAnchors::verticalCenterChanged(void)
	?verticalCenterOffset@QDeclarativeAnchors@@QBEMXZ @ 3280 NONAME ; float QDeclarativeAnchors::verticalCenterOffset(void) const
	?verticalCenterOffsetChanged@QDeclarativeAnchors@@IAEXXZ @ 3281 NONAME ; void QDeclarativeAnchors::verticalCenterOffsetChanged(void)
	?verticalTileMode@QDeclarativeBorderImage@@QBE?AW4TileMode@1@XZ @ 3282 NONAME ; enum QDeclarativeBorderImage::TileMode QDeclarativeBorderImage::verticalTileMode(void) const
	?verticalTileModeChanged@QDeclarativeBorderImage@@IAEXXZ @ 3283 NONAME ; void QDeclarativeBorderImage::verticalTileModeChanged(void)
	?verticalTileRule@QDeclarativeGridScaledImage@@QBE?AW4TileMode@QDeclarativeBorderImage@@XZ @ 3284 NONAME ; enum QDeclarativeBorderImage::TileMode QDeclarativeGridScaledImage::verticalTileRule(void) const
	?verticalVelocity@QDeclarativeFlickable@@QBEMXZ @ 3285 NONAME ; float QDeclarativeFlickable::verticalVelocity(void) const
	?verticalVelocityChanged@QDeclarativeFlickable@@IAEXXZ @ 3286 NONAME ; void QDeclarativeFlickable::verticalVelocityChanged(void)
	?viewItem@QDeclarativeWebPage@@AAEPAVQDeclarativeWebView@@XZ @ 3287 NONAME ABSENT ; class QDeclarativeWebView * QDeclarativeWebPage::viewItem(void)
	?viewport@QDeclarativeFlickable@@QAEPAVQDeclarativeItem@@XZ @ 3288 NONAME ; class QDeclarativeItem * QDeclarativeFlickable::viewport(void)
	?viewportMoved@QDeclarativeFlickable@@MAEXXZ @ 3289 NONAME ; void QDeclarativeFlickable::viewportMoved(void)
	?viewportMoved@QDeclarativeGridView@@MAEXXZ @ 3290 NONAME ; void QDeclarativeGridView::viewportMoved(void)
	?viewportMoved@QDeclarativeListView@@MAEXXZ @ 3291 NONAME ; void QDeclarativeListView::viewportMoved(void)
	?visibleArea@QDeclarativeFlickable@@IAEPAVQDeclarativeFlickableVisibleArea@@XZ @ 3292 NONAME ; class QDeclarativeFlickableVisibleArea * QDeclarativeFlickable::visibleArea(void)
	?waitForClients@QDeclarativeDebugService@@SAXXZ @ 3293 NONAME ABSENT ; void QDeclarativeDebugService::waitForClients(void)
	?wantsFocus@QDeclarativeItem@@QBE_NXZ @ 3294 NONAME ; bool QDeclarativeItem::wantsFocus(void) const
	?wantsFocusChanged@QDeclarativeItem@@IAEXXZ @ 3295 NONAME ABSENT ; void QDeclarativeItem::wantsFocusChanged(void)
	?wheelEvent@QDeclarativeFlickable@@MAEXPAVQGraphicsSceneWheelEvent@@@Z @ 3296 NONAME ; void QDeclarativeFlickable::wheelEvent(class QGraphicsSceneWheelEvent *)
	?when@QDeclarativeBind@@QBE_NXZ @ 3297 NONAME ; bool QDeclarativeBind::when(void) const
	?when@QDeclarativeState@@QBEPAVQDeclarativeBinding@@XZ @ 3298 NONAME ; class QDeclarativeBinding * QDeclarativeState::when(void) const
	?width@QDeclarativeItem@@QBEMXZ @ 3299 NONAME ; float QDeclarativeItem::width(void) const
	?width@QDeclarativeParentChange@@QBEMXZ @ 3300 NONAME ABSENT ; float QDeclarativeParentChange::width(void) const
	?width@QDeclarativePen@@QBEHXZ @ 3301 NONAME ; int QDeclarativePen::width(void) const
	?widthChange@QDeclarativeFlickable@@IAEXXZ @ 3302 NONAME ABSENT ; void QDeclarativeFlickable::widthChange(void)
	?widthChanged@QDeclarativeItem@@IAEXXZ @ 3303 NONAME ABSENT ; void QDeclarativeItem::widthChanged(void)
	?widthIsSet@QDeclarativeParentChange@@QBE_NXZ @ 3304 NONAME ; bool QDeclarativeParentChange::widthIsSet(void) const
	?widthValid@QDeclarativeItem@@IBE_NXZ @ 3305 NONAME ; bool QDeclarativeItem::widthValid(void) const
	?window@QDeclarativeSystemPalette@@QBE?AVQColor@@XZ @ 3306 NONAME ; class QColor QDeclarativeSystemPalette::window(void) const
	?windowObjectCleared@QDeclarativeWebView@@AAEXXZ @ 3307 NONAME ABSENT ; void QDeclarativeWebView::windowObjectCleared(void)
	?windowText@QDeclarativeSystemPalette@@QBE?AVQColor@@XZ @ 3308 NONAME ; class QColor QDeclarativeSystemPalette::windowText(void) const
	?wrap@QDeclarativeText@@QBE_NXZ @ 3309 NONAME ABSENT ; bool QDeclarativeText::wrap(void) const
	?wrap@QDeclarativeTextEdit@@QBE_NXZ @ 3310 NONAME ABSENT ; bool QDeclarativeTextEdit::wrap(void) const
	?wrapChanged@QDeclarativeText@@IAEX_N@Z @ 3311 NONAME ABSENT ; void QDeclarativeText::wrapChanged(bool)
	?wrapChanged@QDeclarativeTextEdit@@IAEX_N@Z @ 3312 NONAME ABSENT ; void QDeclarativeTextEdit::wrapChanged(bool)
	?write@QDeclarativeBehavior@@UAEXABVQVariant@@@Z @ 3313 NONAME ; void QDeclarativeBehavior::write(class QVariant const &)
	?write@QDeclarativeProperty@@QBE_NABVQVariant@@@Z @ 3314 NONAME ; bool QDeclarativeProperty::write(class QVariant const &) const
	?write@QDeclarativeProperty@@SA_NPAVQObject@@ABVQString@@ABVQVariant@@@Z @ 3315 NONAME ; bool QDeclarativeProperty::write(class QObject *, class QString const &, class QVariant const &)
	?write@QDeclarativeProperty@@SA_NPAVQObject@@ABVQString@@ABVQVariant@@PAVQDeclarativeContext@@@Z @ 3316 NONAME ; bool QDeclarativeProperty::write(class QObject *, class QString const &, class QVariant const &, class QDeclarativeContext *)
	?write@QDeclarativeProperty@@SA_NPAVQObject@@ABVQString@@ABVQVariant@@PAVQDeclarativeEngine@@@Z @ 3317 NONAME ; bool QDeclarativeProperty::write(class QObject *, class QString const &, class QVariant const &, class QDeclarativeEngine *)
	?x@QDeclarativeCurve@@QBEMXZ @ 3318 NONAME ; float QDeclarativeCurve::x(void) const
	?x@QDeclarativeParentChange@@QBEMXZ @ 3319 NONAME ABSENT ; float QDeclarativeParentChange::x(void) const
	?xAttractor@QDeclarativeParticleMotionGravity@@QBEMXZ @ 3320 NONAME ABSENT ; float QDeclarativeParticleMotionGravity::xAttractor(void) const
	?xIsSet@QDeclarativeParentChange@@QBE_NXZ @ 3321 NONAME ; bool QDeclarativeParentChange::xIsSet(void) const
	?xToPos@QDeclarativeTextInput@@QAEHH@Z @ 3322 NONAME ABSENT ; int QDeclarativeTextInput::xToPos(int)
	?xVariance@QDeclarativeParticleMotionWander@@QBEMXZ @ 3323 NONAME ABSENT ; float QDeclarativeParticleMotionWander::xVariance(void) const
	?xattractorChanged@QDeclarativeParticleMotionGravity@@IAEXXZ @ 3324 NONAME ABSENT ; void QDeclarativeParticleMotionGravity::xattractorChanged(void)
	?xflick@QDeclarativeFlickable@@IBE_NXZ @ 3325 NONAME ; bool QDeclarativeFlickable::xflick(void) const
	?xmax@QDeclarativeDrag@@QBEMXZ @ 3326 NONAME ; float QDeclarativeDrag::xmax(void) const
	?xmin@QDeclarativeDrag@@QBEMXZ @ 3327 NONAME ; float QDeclarativeDrag::xmin(void) const
	?xml@QDeclarativeXmlListModel@@QBE?AVQString@@XZ @ 3328 NONAME ; class QString QDeclarativeXmlListModel::xml(void) const
	?xvarianceChanged@QDeclarativeParticleMotionWander@@IAEXXZ @ 3329 NONAME ABSENT ; void QDeclarativeParticleMotionWander::xvarianceChanged(void)
	?y@QDeclarativeCurve@@QBEMXZ @ 3330 NONAME ; float QDeclarativeCurve::y(void) const
	?y@QDeclarativeParentChange@@QBEMXZ @ 3331 NONAME ABSENT ; float QDeclarativeParentChange::y(void) const
	?yAttractor@QDeclarativeParticleMotionGravity@@QBEMXZ @ 3332 NONAME ABSENT ; float QDeclarativeParticleMotionGravity::yAttractor(void) const
	?yIsSet@QDeclarativeParentChange@@QBE_NXZ @ 3333 NONAME ; bool QDeclarativeParentChange::yIsSet(void) const
	?yVariance@QDeclarativeParticleMotionWander@@QBEMXZ @ 3334 NONAME ABSENT ; float QDeclarativeParticleMotionWander::yVariance(void) const
	?yattractorChanged@QDeclarativeParticleMotionGravity@@IAEXXZ @ 3335 NONAME ABSENT ; void QDeclarativeParticleMotionGravity::yattractorChanged(void)
	?yflick@QDeclarativeFlickable@@IBE_NXZ @ 3336 NONAME ; bool QDeclarativeFlickable::yflick(void) const
	?ymax@QDeclarativeDrag@@QBEMXZ @ 3337 NONAME ; float QDeclarativeDrag::ymax(void) const
	?ymin@QDeclarativeDrag@@QBEMXZ @ 3338 NONAME ; float QDeclarativeDrag::ymin(void) const
	?yvarianceChanged@QDeclarativeParticleMotionWander@@IAEXXZ @ 3339 NONAME ABSENT ; void QDeclarativeParticleMotionWander::yvarianceChanged(void)
	?zoomFactor@QDeclarativeWebView@@QBEMXZ @ 3340 NONAME ABSENT ; float QDeclarativeWebView::zoomFactor(void) const
	?zoomFactorChanged@QDeclarativeWebView@@IAEXXZ @ 3341 NONAME ABSENT ; void QDeclarativeWebView::zoomFactorChanged(void)
	?zoomTo@QDeclarativeWebView@@IAEXMHH@Z @ 3342 NONAME ABSENT ; void QDeclarativeWebView::zoomTo(float, int, int)
	?staticMetaObject@QDeclarativePathElement@@2UQMetaObject@@B @ 3343 NONAME ; struct QMetaObject const QDeclarativePathElement::staticMetaObject
	?staticMetaObject@QDeclarativeDebugObjectQuery@@2UQMetaObject@@B @ 3344 NONAME ; struct QMetaObject const QDeclarativeDebugObjectQuery::staticMetaObject
	?staticMetaObject@QDeclarativeTextInput@@2UQMetaObject@@B @ 3345 NONAME ; struct QMetaObject const QDeclarativeTextInput::staticMetaObject
	?staticMetaObject@QDeclarativeListModel@@2UQMetaObject@@B @ 3346 NONAME ; struct QMetaObject const QDeclarativeListModel::staticMetaObject
	?staticMetaObject@QDeclarativeSpringFollow@@2UQMetaObject@@B @ 3347 NONAME ; struct QMetaObject const QDeclarativeSpringFollow::staticMetaObject
	?staticMetaObject@QDeclarativePen@@2UQMetaObject@@B @ 3348 NONAME ; struct QMetaObject const QDeclarativePen::staticMetaObject
	?staticMetaObject@QDeclarativeScaleGrid@@2UQMetaObject@@B @ 3349 NONAME ; struct QMetaObject const QDeclarativeScaleGrid::staticMetaObject
	?staticMetaObject@QDeclarativeItem@@2UQMetaObject@@B @ 3350 NONAME ; struct QMetaObject const QDeclarativeItem::staticMetaObject
	?staticMetaObject@QDeclarativeColumn@@2UQMetaObject@@B @ 3351 NONAME ; struct QMetaObject const QDeclarativeColumn::staticMetaObject
	?staticMetaObject@QDeclarativeGradient@@2UQMetaObject@@B @ 3352 NONAME ; struct QMetaObject const QDeclarativeGradient::staticMetaObject
	?staticMetaObject@QDeclarativeGraphicsObjectContainer@@2UQMetaObject@@B @ 3353 NONAME ABSENT ; struct QMetaObject const QDeclarativeGraphicsObjectContainer::staticMetaObject
	?staticMetaObject@QDeclarativeDebugWatch@@2UQMetaObject@@B @ 3354 NONAME ; struct QMetaObject const QDeclarativeDebugWatch::staticMetaObject
	?staticMetaObject@QDeclarativeStateGroup@@2UQMetaObject@@B @ 3355 NONAME ; struct QMetaObject const QDeclarativeStateGroup::staticMetaObject
	?staticMetaObject@QPacketProtocol@@2UQMetaObject@@B @ 3356 NONAME ; struct QMetaObject const QPacketProtocol::staticMetaObject
	?staticMetaObject@QDeclarativeListView@@2UQMetaObject@@B @ 3357 NONAME ; struct QMetaObject const QDeclarativeListView::staticMetaObject
	?staticMetaObject@QDeclarativeLoader@@2UQMetaObject@@B @ 3358 NONAME ; struct QMetaObject const QDeclarativeLoader::staticMetaObject
	?staticMetaObject@QDeclarativeTransition@@2UQMetaObject@@B @ 3359 NONAME ; struct QMetaObject const QDeclarativeTransition::staticMetaObject
	?staticMetaObject@QDeclarativeStateChangeScript@@2UQMetaObject@@B @ 3360 NONAME ; struct QMetaObject const QDeclarativeStateChangeScript::staticMetaObject
	?staticMetaObject@QDeclarativeGridView@@2UQMetaObject@@B @ 3361 NONAME ; struct QMetaObject const QDeclarativeGridView::staticMetaObject
	?staticMetaObject@QDeclarativeFlow@@2UQMetaObject@@B @ 3362 NONAME ; struct QMetaObject const QDeclarativeFlow::staticMetaObject
	?staticMetaObject@QDeclarativeParentChange@@2UQMetaObject@@B @ 3363 NONAME ; struct QMetaObject const QDeclarativeParentChange::staticMetaObject
	?staticMetaObject@QDeclarativeCurve@@2UQMetaObject@@B @ 3364 NONAME ; struct QMetaObject const QDeclarativeCurve::staticMetaObject
	?staticMetaObject@QDeclarativeImage@@2UQMetaObject@@B @ 3365 NONAME ; struct QMetaObject const QDeclarativeImage::staticMetaObject
	?staticMetaObject@QDeclarativeEaseFollow@@2UQMetaObject@@B @ 3366 NONAME ABSENT ; struct QMetaObject const QDeclarativeEaseFollow::staticMetaObject
	?staticMetaObject@QDeclarativePixmapReply@@2UQMetaObject@@B @ 3367 NONAME ; struct QMetaObject const QDeclarativePixmapReply::staticMetaObject
	?staticMetaObject@QDeclarativeDateTimeFormatter@@2UQMetaObject@@B @ 3368 NONAME ABSENT ; struct QMetaObject const QDeclarativeDateTimeFormatter::staticMetaObject
	?staticMetaObject@QDeclarativePathQuad@@2UQMetaObject@@B @ 3369 NONAME ; struct QMetaObject const QDeclarativePathQuad::staticMetaObject
	?staticMetaObject@QDeclarativeContext@@2UQMetaObject@@B @ 3370 NONAME ; struct QMetaObject const QDeclarativeContext::staticMetaObject
	?staticMetaObject@QDeclarativeWebPage@@2UQMetaObject@@B @ 3371 NONAME ABSENT ; struct QMetaObject const QDeclarativeWebPage::staticMetaObject
	?staticMetaObject@QDeclarativeAnchorChanges@@2UQMetaObject@@B @ 3372 NONAME ; struct QMetaObject const QDeclarativeAnchorChanges::staticMetaObject
	?staticMetaObject@QDeclarativeDebugService@@2UQMetaObject@@B @ 3373 NONAME ; struct QMetaObject const QDeclarativeDebugService::staticMetaObject
	?staticMetaObject@QDeclarativeEngine@@2UQMetaObject@@B @ 3374 NONAME ; struct QMetaObject const QDeclarativeEngine::staticMetaObject
	?staticMetaObject@QDeclarativeFlickable@@2UQMetaObject@@B @ 3375 NONAME ; struct QMetaObject const QDeclarativeFlickable::staticMetaObject
	?staticMetaObject@QDeclarativeParticleMotionGravity@@2UQMetaObject@@B @ 3376 NONAME ABSENT ; struct QMetaObject const QDeclarativeParticleMotionGravity::staticMetaObject
	?staticMetaObject@QDeclarativePathCubic@@2UQMetaObject@@B @ 3377 NONAME ; struct QMetaObject const QDeclarativePathCubic::staticMetaObject
	?staticMetaObject@QDeclarativeBehavior@@2UQMetaObject@@B @ 3378 NONAME ; struct QMetaObject const QDeclarativeBehavior::staticMetaObject
	?staticMetaObject@QDeclarativeRepeater@@2UQMetaObject@@B @ 3379 NONAME ; struct QMetaObject const QDeclarativeRepeater::staticMetaObject
	?staticMetaObject@QDeclarativeVisualModel@@2UQMetaObject@@B @ 3380 NONAME ; struct QMetaObject const QDeclarativeVisualModel::staticMetaObject
	?staticMetaObject@QDeclarativeText@@2UQMetaObject@@B @ 3381 NONAME ; struct QMetaObject const QDeclarativeText::staticMetaObject
	?staticMetaObject@QDeclarativeExtensionPlugin@@2UQMetaObject@@B @ 3382 NONAME ; struct QMetaObject const QDeclarativeExtensionPlugin::staticMetaObject
	?staticMetaObject@QDeclarativeValueType@@2UQMetaObject@@B @ 3383 NONAME ; struct QMetaObject const QDeclarativeValueType::staticMetaObject
	?staticMetaObject@QDeclarativeRectangle@@2UQMetaObject@@B @ 3384 NONAME ; struct QMetaObject const QDeclarativeRectangle::staticMetaObject
	?staticMetaObject@QDeclarativeWebView@@2UQMetaObject@@B @ 3385 NONAME ABSENT ; struct QMetaObject const QDeclarativeWebView::staticMetaObject
	?staticMetaObject@QDeclarativeRow@@2UQMetaObject@@B @ 3386 NONAME ; struct QMetaObject const QDeclarativeRow::staticMetaObject
	?staticMetaObject@QDeclarativeGrid@@2UQMetaObject@@B @ 3387 NONAME ; struct QMetaObject const QDeclarativeGrid::staticMetaObject
	?staticMetaObject@QDeclarativeEngineDebug@@2UQMetaObject@@B @ 3388 NONAME ; struct QMetaObject const QDeclarativeEngineDebug::staticMetaObject
	?staticMetaObject@QDeclarativeConnections@@2UQMetaObject@@B @ 3389 NONAME ; struct QMetaObject const QDeclarativeConnections::staticMetaObject
	?staticMetaObject@QDeclarativePathLine@@2UQMetaObject@@B @ 3390 NONAME ; struct QMetaObject const QDeclarativePathLine::staticMetaObject
	?staticMetaObject@QDeclarativePaintedItem@@2UQMetaObject@@B @ 3391 NONAME ; struct QMetaObject const QDeclarativePaintedItem::staticMetaObject
	?staticMetaObject@QDeclarativePropertyChanges@@2UQMetaObject@@B @ 3392 NONAME ; struct QMetaObject const QDeclarativePropertyChanges::staticMetaObject
	?staticMetaObject@QDeclarativeGradientStop@@2UQMetaObject@@B @ 3393 NONAME ; struct QMetaObject const QDeclarativeGradientStop::staticMetaObject
	?staticMetaObject@QDeclarativeImageBase@@2UQMetaObject@@B @ 3394 NONAME ; struct QMetaObject const QDeclarativeImageBase::staticMetaObject
	?staticMetaObject@QDeclarativeTimer@@2UQMetaObject@@B @ 3395 NONAME ; struct QMetaObject const QDeclarativeTimer::staticMetaObject
	?staticMetaObject@QDeclarativeDebugPropertyWatch@@2UQMetaObject@@B @ 3396 NONAME ; struct QMetaObject const QDeclarativeDebugPropertyWatch::staticMetaObject
	?staticMetaObject@QDeclarativeMouseArea@@2UQMetaObject@@B @ 3397 NONAME ; struct QMetaObject const QDeclarativeMouseArea::staticMetaObject
	?staticMetaObject@QDeclarativeAnchors@@2UQMetaObject@@B @ 3398 NONAME ; struct QMetaObject const QDeclarativeAnchors::staticMetaObject
	?staticMetaObject@QDeclarativePropertyMap@@2UQMetaObject@@B @ 3399 NONAME ; struct QMetaObject const QDeclarativePropertyMap::staticMetaObject
	?staticMetaObject@QListModelInterface@@2UQMetaObject@@B @ 3400 NONAME ; struct QMetaObject const QListModelInterface::staticMetaObject
	?staticMetaObject@QDeclarativePathAttribute@@2UQMetaObject@@B @ 3401 NONAME ; struct QMetaObject const QDeclarativePathAttribute::staticMetaObject
	?staticMetaObject@QDeclarativeVisualItemModel@@2UQMetaObject@@B @ 3402 NONAME ; struct QMetaObject const QDeclarativeVisualItemModel::staticMetaObject
	?staticMetaObject@QDeclarativeBind@@2UQMetaObject@@B @ 3403 NONAME ; struct QMetaObject const QDeclarativeBind::staticMetaObject
	?staticMetaObject@QDeclarativeAnimatedImage@@2UQMetaObject@@B @ 3404 NONAME ; struct QMetaObject const QDeclarativeAnimatedImage::staticMetaObject
	?staticMetaObject@QDeclarativeDebugRootContextQuery@@2UQMetaObject@@B @ 3405 NONAME ; struct QMetaObject const QDeclarativeDebugRootContextQuery::staticMetaObject
	?attachedProperties@QDeclarativePathView@@0V?$QHash@PAVQObject@@PAV1@@@A @ 3406 NONAME ABSENT ; class QHash<class QObject *, class QObject *> QDeclarativePathView::attachedProperties
	?staticMetaObject@QDeclarativeParticles@@2UQMetaObject@@B @ 3407 NONAME ABSENT ; struct QMetaObject const QDeclarativeParticles::staticMetaObject
	?staticMetaObject@QDeclarativePath@@2UQMetaObject@@B @ 3408 NONAME ; struct QMetaObject const QDeclarativePath::staticMetaObject
	?staticMetaObject@QDeclarativeTextEdit@@2UQMetaObject@@B @ 3409 NONAME ; struct QMetaObject const QDeclarativeTextEdit::staticMetaObject
	?staticMetaObject@QDeclarativePathPercent@@2UQMetaObject@@B @ 3410 NONAME ; struct QMetaObject const QDeclarativePathPercent::staticMetaObject
	?staticMetaObject@QDeclarativeDebugObjectExpressionWatch@@2UQMetaObject@@B @ 3411 NONAME ; struct QMetaObject const QDeclarativeDebugObjectExpressionWatch::staticMetaObject
	?staticMetaObject@QDeclarativeDebugExpressionQuery@@2UQMetaObject@@B @ 3412 NONAME ; struct QMetaObject const QDeclarativeDebugExpressionQuery::staticMetaObject
	?staticMetaObject@QDeclarativeFlipable@@2UQMetaObject@@B @ 3413 NONAME ; struct QMetaObject const QDeclarativeFlipable::staticMetaObject
	?staticMetaObject@QDeclarativeBasePositioner@@2UQMetaObject@@B @ 3414 NONAME ; struct QMetaObject const QDeclarativeBasePositioner::staticMetaObject
	?staticMetaObject@QDeclarativeState@@2UQMetaObject@@B @ 3415 NONAME ; struct QMetaObject const QDeclarativeState::staticMetaObject
	?staticMetaObject@QDeclarativeParticleMotionWander@@2UQMetaObject@@B @ 3416 NONAME ABSENT ; struct QMetaObject const QDeclarativeParticleMotionWander::staticMetaObject
	?staticMetaObject@QDeclarativePathView@@2UQMetaObject@@B @ 3417 NONAME ; struct QMetaObject const QDeclarativePathView::staticMetaObject
	?staticMetaObject@QDeclarativeExpression@@2UQMetaObject@@B @ 3418 NONAME ; struct QMetaObject const QDeclarativeExpression::staticMetaObject
	?staticMetaObject@QDeclarativeView@@2UQMetaObject@@B @ 3419 NONAME ; struct QMetaObject const QDeclarativeView::staticMetaObject
	?staticMetaObject@QDeclarativeDebugConnection@@2UQMetaObject@@B @ 3420 NONAME ; struct QMetaObject const QDeclarativeDebugConnection::staticMetaObject
	?staticMetaObject@QDeclarativeDebugEnginesQuery@@2UQMetaObject@@B @ 3421 NONAME ; struct QMetaObject const QDeclarativeDebugEnginesQuery::staticMetaObject
	?staticMetaObject@QDeclarativeStateOperation@@2UQMetaObject@@B @ 3422 NONAME ; struct QMetaObject const QDeclarativeStateOperation::staticMetaObject
	?staticMetaObject@QDeclarativeVisualDataModel@@2UQMetaObject@@B @ 3423 NONAME ; struct QMetaObject const QDeclarativeVisualDataModel::staticMetaObject
	?staticMetaObject@QDeclarativeNumberFormatter@@2UQMetaObject@@B @ 3424 NONAME ABSENT ; struct QMetaObject const QDeclarativeNumberFormatter::staticMetaObject
	?staticMetaObject@QDeclarativeParticleMotionLinear@@2UQMetaObject@@B @ 3425 NONAME ABSENT ; struct QMetaObject const QDeclarativeParticleMotionLinear::staticMetaObject
	?staticMetaObject@QDeclarativeFontLoader@@2UQMetaObject@@B @ 3426 NONAME ; struct QMetaObject const QDeclarativeFontLoader::staticMetaObject
	?staticMetaObject@QDeclarativeSystemPalette@@2UQMetaObject@@B @ 3427 NONAME ; struct QMetaObject const QDeclarativeSystemPalette::staticMetaObject
	?staticMetaObject@QDeclarativeParticleMotion@@2UQMetaObject@@B @ 3428 NONAME ABSENT ; struct QMetaObject const QDeclarativeParticleMotion::staticMetaObject
	?staticMetaObject@QDeclarativeViewSection@@2UQMetaObject@@B @ 3429 NONAME ; struct QMetaObject const QDeclarativeViewSection::staticMetaObject
	?staticMetaObject@QDeclarativeXmlListModelRole@@2UQMetaObject@@B @ 3430 NONAME ; struct QMetaObject const QDeclarativeXmlListModelRole::staticMetaObject
	?staticMetaObject@QDeclarativeXmlListModel@@2UQMetaObject@@B @ 3431 NONAME ; struct QMetaObject const QDeclarativeXmlListModel::staticMetaObject
	?staticMetaObject@QDeclarativeBorderImage@@2UQMetaObject@@B @ 3432 NONAME ; struct QMetaObject const QDeclarativeBorderImage::staticMetaObject
	?staticMetaObject@QDeclarativeFocusPanel@@2UQMetaObject@@B @ 3433 NONAME ; struct QMetaObject const QDeclarativeFocusPanel::staticMetaObject
	?staticMetaObject@QDeclarativeFocusScope@@2UQMetaObject@@B @ 3434 NONAME ; struct QMetaObject const QDeclarativeFocusScope::staticMetaObject
	?staticMetaObject@QDeclarativeDebugQuery@@2UQMetaObject@@B @ 3435 NONAME ; struct QMetaObject const QDeclarativeDebugQuery::staticMetaObject
	?staticMetaObject@QDeclarativeDrag@@2UQMetaObject@@B @ 3436 NONAME ; struct QMetaObject const QDeclarativeDrag::staticMetaObject
	?staticMetaObject@QDeclarativeDebugClient@@2UQMetaObject@@B @ 3437 NONAME ; struct QMetaObject const QDeclarativeDebugClient::staticMetaObject
	?staticMetaObject@QDeclarativeComponent@@2UQMetaObject@@B @ 3438 NONAME ; struct QMetaObject const QDeclarativeComponent::staticMetaObject
	??0QDeclarativeAbstractBinding@@QAE@XZ @ 3439 NONAME ; QDeclarativeAbstractBinding::QDeclarativeAbstractBinding(void)
	??0QDeclarativeBinding@@QAE@ABVQString@@PAVQObject@@PAVQDeclarativeContext@@1@Z @ 3440 NONAME ; QDeclarativeBinding::QDeclarativeBinding(class QString const &, class QObject *, class QDeclarativeContext *, class QObject *)
	??0QDeclarativeBinding@@QAE@PAXPAVQDeclarativeRefCount@@PAVQObject@@PAVQDeclarativeContext@@ABVQString@@H2@Z @ 3441 NONAME ABSENT ; QDeclarativeBinding::QDeclarativeBinding(void *, class QDeclarativeRefCount *, class QObject *, class QDeclarativeContext *, class QString const &, int, class QObject *)
	??0QDeclarativePropertyPrivate@@QAE@ABV0@@Z @ 3442 NONAME ; QDeclarativePropertyPrivate::QDeclarativePropertyPrivate(class QDeclarativePropertyPrivate const &)
	??0QDeclarativePropertyPrivate@@QAE@XZ @ 3443 NONAME ; QDeclarativePropertyPrivate::QDeclarativePropertyPrivate(void)
	??1QDeclarativeAbstractBinding@@UAE@XZ @ 3444 NONAME ABSENT ; QDeclarativeAbstractBinding::~QDeclarativeAbstractBinding(void)
	??1QDeclarativeBinding@@UAE@XZ @ 3445 NONAME ABSENT ; QDeclarativeBinding::~QDeclarativeBinding(void)
	??1QDeclarativePropertyPrivate@@QAE@XZ @ 3446 NONAME ; QDeclarativePropertyPrivate::~QDeclarativePropertyPrivate(void)
	??_EQDeclarativeAbstractBinding@@UAE@I@Z @ 3447 NONAME ; QDeclarativeAbstractBinding::~QDeclarativeAbstractBinding(unsigned int)
	??_EQDeclarativeBinding@@UAE@I@Z @ 3448 NONAME ; QDeclarativeBinding::~QDeclarativeBinding(unsigned int)
	?addToObject@QDeclarativeAbstractBinding@@QAEXPAVQObject@@@Z @ 3449 NONAME ; void QDeclarativeAbstractBinding::addToObject(class QObject *)
	?binding@QDeclarativePropertyPrivate@@SAPAVQDeclarativeAbstractBinding@@ABVQDeclarativeProperty@@@Z @ 3450 NONAME ; class QDeclarativeAbstractBinding * QDeclarativePropertyPrivate::binding(class QDeclarativeProperty const &)
	?canConvert@QDeclarativePropertyPrivate@@SA_NPBUQMetaObject@@0@Z @ 3451 NONAME ; bool QDeclarativePropertyPrivate::canConvert(struct QMetaObject const *, struct QMetaObject const *)
	?clear@QDeclarativeAbstractBinding@@IAEXXZ @ 3452 NONAME ; void QDeclarativeAbstractBinding::clear(void)
	?d_func@QDeclarativeBinding@@AAEPAVQDeclarativeBindingPrivate@@XZ @ 3453 NONAME ; class QDeclarativeBindingPrivate * QDeclarativeBinding::d_func(void)
	?d_func@QDeclarativeBinding@@ABEPBVQDeclarativeBindingPrivate@@XZ @ 3454 NONAME ; class QDeclarativeBindingPrivate const * QDeclarativeBinding::d_func(void) const
	?destroy@QDeclarativeAbstractBinding@@UAEXXZ @ 3455 NONAME ; void QDeclarativeAbstractBinding::destroy(void)
	?enabled@QDeclarativeBinding@@QBE_NXZ @ 3456 NONAME ; bool QDeclarativeBinding::enabled(void) const
	?equal@QDeclarativePropertyPrivate@@SA_NPBUQMetaObject@@0@Z @ 3457 NONAME ; bool QDeclarativePropertyPrivate::equal(struct QMetaObject const *, struct QMetaObject const *)
	?expression@QDeclarativeAbstractBinding@@UBE?AVQString@@XZ @ 3458 NONAME ; class QString QDeclarativeAbstractBinding::expression(void) const
	?expression@QDeclarativeBinding@@UBE?AVQString@@XZ @ 3459 NONAME ; class QString QDeclarativeBinding::expression(void) const
	?getStaticMetaObject@QDeclarativeBinding@@SAABUQMetaObject@@XZ @ 3460 NONAME ; struct QMetaObject const & QDeclarativeBinding::getStaticMetaObject(void)
	?initDefault@QDeclarativePropertyPrivate@@QAEXPAVQObject@@@Z @ 3461 NONAME ; void QDeclarativePropertyPrivate::initDefault(class QObject *)
	?initProperty@QDeclarativePropertyPrivate@@QAEXPAVQObject@@ABVQString@@@Z @ 3462 NONAME ; void QDeclarativePropertyPrivate::initProperty(class QObject *, class QString const &)
	?isValueType@QDeclarativePropertyPrivate@@QBE_NXZ @ 3463 NONAME ; bool QDeclarativePropertyPrivate::isValueType(void) const
	?metaObject@QDeclarativeBinding@@UBEPBUQMetaObject@@XZ @ 3464 NONAME ; struct QMetaObject const * QDeclarativeBinding::metaObject(void) const
	?property@QDeclarativeBinding@@QBE?AVQDeclarativeProperty@@XZ @ 3465 NONAME ; class QDeclarativeProperty QDeclarativeBinding::property(void) const
	?propertyIndex@QDeclarativeBinding@@UAEHXZ @ 3466 NONAME ; int QDeclarativeBinding::propertyIndex(void)
	?propertyType@QDeclarativePropertyPrivate@@QBEHXZ @ 3467 NONAME ; int QDeclarativePropertyPrivate::propertyType(void) const
	?propertyTypeCategory@QDeclarativePropertyPrivate@@QBE?AW4PropertyTypeCategory@QDeclarativeProperty@@XZ @ 3468 NONAME ; enum QDeclarativeProperty::PropertyTypeCategory QDeclarativePropertyPrivate::propertyTypeCategory(void) const
	?qt_metacall@QDeclarativeBinding@@UAEHW4Call@QMetaObject@@HPAPAX@Z @ 3469 NONAME ; int QDeclarativeBinding::qt_metacall(enum QMetaObject::Call, int, void * *)
	?qt_metacast@QDeclarativeBinding@@UAEPAXPBD@Z @ 3470 NONAME ; void * QDeclarativeBinding::qt_metacast(char const *)
	?rawMetaObjectForType@QDeclarativePropertyPrivate@@SAPBUQMetaObject@@PAVQDeclarativeEnginePrivate@@H@Z @ 3471 NONAME ; struct QMetaObject const * QDeclarativePropertyPrivate::rawMetaObjectForType(class QDeclarativeEnginePrivate *, int)
	?readValueProperty@QDeclarativePropertyPrivate@@QAE?AVQVariant@@XZ @ 3472 NONAME ; class QVariant QDeclarativePropertyPrivate::readValueProperty(void)
	?removeFromObject@QDeclarativeAbstractBinding@@QAEXXZ @ 3473 NONAME ; void QDeclarativeAbstractBinding::removeFromObject(void)
	?restore@QDeclarativePropertyPrivate@@SA?AVQDeclarativeProperty@@ABVQByteArray@@PAVQObject@@PAVQDeclarativeContext@@@Z @ 3474 NONAME ABSENT ; class QDeclarativeProperty QDeclarativePropertyPrivate::restore(class QByteArray const &, class QObject *, class QDeclarativeContext *)
	?saveProperty@QDeclarativePropertyPrivate@@SA?AVQByteArray@@PBUQMetaObject@@H@Z @ 3475 NONAME ; class QByteArray QDeclarativePropertyPrivate::saveProperty(struct QMetaObject const *, int)
	?saveValueType@QDeclarativePropertyPrivate@@SA?AVQByteArray@@PBUQMetaObject@@H0H@Z @ 3476 NONAME ; class QByteArray QDeclarativePropertyPrivate::saveValueType(struct QMetaObject const *, int, struct QMetaObject const *, int)
	?setBinding@QDeclarativePropertyPrivate@@SAPAVQDeclarativeAbstractBinding@@ABVQDeclarativeProperty@@PAV2@V?$QFlags@W4WriteFlag@QDeclarativePropertyPrivate@@@@@Z @ 3477 NONAME ; class QDeclarativeAbstractBinding * QDeclarativePropertyPrivate::setBinding(class QDeclarativeProperty const &, class QDeclarativeAbstractBinding *, class QFlags<enum QDeclarativePropertyPrivate::WriteFlag>)
	?setBinding@QDeclarativePropertyPrivate@@SAPAVQDeclarativeAbstractBinding@@PAVQObject@@ABUData@QDeclarativePropertyCache@@PAV2@V?$QFlags@W4WriteFlag@QDeclarativePropertyPrivate@@@@@Z @ 3478 NONAME ABSENT ; class QDeclarativeAbstractBinding * QDeclarativePropertyPrivate::setBinding(class QObject *, struct QDeclarativePropertyCache::Data const &, class QDeclarativeAbstractBinding *, class QFlags<enum QDeclarativePropertyPrivate::WriteFlag>)
	?setEnabled@QDeclarativeAbstractBinding@@QAEX_N@Z @ 3479 NONAME ; void QDeclarativeAbstractBinding::setEnabled(bool)
	?setEnabled@QDeclarativeAbstractBinding@@UAEX_NV?$QFlags@W4WriteFlag@QDeclarativePropertyPrivate@@@@@Z @ 3480 NONAME ; void QDeclarativeAbstractBinding::setEnabled(bool, class QFlags<enum QDeclarativePropertyPrivate::WriteFlag>)
	?setEnabled@QDeclarativeBinding@@UAEX_NV?$QFlags@W4WriteFlag@QDeclarativePropertyPrivate@@@@@Z @ 3481 NONAME ; void QDeclarativeBinding::setEnabled(bool, class QFlags<enum QDeclarativePropertyPrivate::WriteFlag>)
	?setSignalExpression@QDeclarativePropertyPrivate@@SAPAVQDeclarativeExpression@@ABVQDeclarativeProperty@@PAV2@@Z @ 3482 NONAME ; class QDeclarativeExpression * QDeclarativePropertyPrivate::setSignalExpression(class QDeclarativeProperty const &, class QDeclarativeExpression *)
	?setTarget@QDeclarativeBinding@@QAEXABVQDeclarativeProperty@@@Z @ 3483 NONAME ; void QDeclarativeBinding::setTarget(class QDeclarativeProperty const &)
	?signalExpression@QDeclarativePropertyPrivate@@SAPAVQDeclarativeExpression@@ABVQDeclarativeProperty@@@Z @ 3484 NONAME ; class QDeclarativeExpression * QDeclarativePropertyPrivate::signalExpression(class QDeclarativeProperty const &)
	?tr@QDeclarativeBinding@@SA?AVQString@@PBD0@Z @ 3485 NONAME ; class QString QDeclarativeBinding::tr(char const *, char const *)
	?tr@QDeclarativeBinding@@SA?AVQString@@PBD0H@Z @ 3486 NONAME ; class QString QDeclarativeBinding::tr(char const *, char const *, int)
	?trUtf8@QDeclarativeBinding@@SA?AVQString@@PBD0@Z @ 3487 NONAME ; class QString QDeclarativeBinding::trUtf8(char const *, char const *)
	?trUtf8@QDeclarativeBinding@@SA?AVQString@@PBD0H@Z @ 3488 NONAME ; class QString QDeclarativeBinding::trUtf8(char const *, char const *, int)
	?update@QDeclarativeAbstractBinding@@QAEXXZ @ 3489 NONAME ; void QDeclarativeAbstractBinding::update(void)
	?update@QDeclarativeBinding@@QAEXXZ @ 3490 NONAME ; void QDeclarativeBinding::update(void)
	?update@QDeclarativeBinding@@UAEXV?$QFlags@W4WriteFlag@QDeclarativePropertyPrivate@@@@@Z @ 3491 NONAME ; void QDeclarativeBinding::update(class QFlags<enum QDeclarativePropertyPrivate::WriteFlag>)
	?valueTypeCoreIndex@QDeclarativePropertyPrivate@@SAHABVQDeclarativeProperty@@@Z @ 3492 NONAME ; int QDeclarativePropertyPrivate::valueTypeCoreIndex(class QDeclarativeProperty const &)
	?write@QDeclarativePropertyPrivate@@SA_NABVQDeclarativeProperty@@ABVQVariant@@V?$QFlags@W4WriteFlag@QDeclarativePropertyPrivate@@@@@Z @ 3493 NONAME ; bool QDeclarativePropertyPrivate::write(class QDeclarativeProperty const &, class QVariant const &, class QFlags<enum QDeclarativePropertyPrivate::WriteFlag>)
	?write@QDeclarativePropertyPrivate@@SA_NPAVQObject@@ABUData@QDeclarativePropertyCache@@ABVQVariant@@PAVQDeclarativeContext@@V?$QFlags@W4WriteFlag@QDeclarativePropertyPrivate@@@@@Z @ 3494 NONAME ABSENT ; bool QDeclarativePropertyPrivate::write(class QObject *, struct QDeclarativePropertyCache::Data const &, class QVariant const &, class QDeclarativeContext *, class QFlags<enum QDeclarativePropertyPrivate::WriteFlag>)
	?writeEnumProperty@QDeclarativePropertyPrivate@@SA_NABVQMetaProperty@@HPAVQObject@@ABVQVariant@@H@Z @ 3495 NONAME ; bool QDeclarativePropertyPrivate::writeEnumProperty(class QMetaProperty const &, int, class QObject *, class QVariant const &, int)
	?writeValueProperty@QDeclarativePropertyPrivate@@QAE_NABVQVariant@@V?$QFlags@W4WriteFlag@QDeclarativePropertyPrivate@@@@@Z @ 3496 NONAME ; bool QDeclarativePropertyPrivate::writeValueProperty(class QVariant const &, class QFlags<enum QDeclarativePropertyPrivate::WriteFlag>)
	?staticMetaObject@QDeclarativeBinding@@2UQMetaObject@@B @ 3497 NONAME ; struct QMetaObject const QDeclarativeBinding::staticMetaObject
	??0QDeclarativeBinding@@QAE@ABVQString@@PAVQObject@@PAVQDeclarativeContextData@@1@Z @ 3498 NONAME ; QDeclarativeBinding::QDeclarativeBinding(class QString const &, class QObject *, class QDeclarativeContextData *, class QObject *)
	??0QDeclarativeBinding@@QAE@PAXPAVQDeclarativeRefCount@@PAVQObject@@PAVQDeclarativeContextData@@ABVQString@@H2@Z @ 3499 NONAME ; QDeclarativeBinding::QDeclarativeBinding(void *, class QDeclarativeRefCount *, class QObject *, class QDeclarativeContextData *, class QString const &, int, class QObject *)
	??0QDeclarativeContext@@AAE@PAVQDeclarativeContextData@@@Z @ 3500 NONAME ; QDeclarativeContext::QDeclarativeContext(class QDeclarativeContextData *)
	??0QDeclarativeCustomParser@@QAE@XZ @ 3501 NONAME ; QDeclarativeCustomParser::QDeclarativeCustomParser(void)
	??0QDeclarativeExpression@@AAE@PAVQDeclarativeContextData@@ABVQString@@PAVQObject@@@Z @ 3502 NONAME ABSENT ; QDeclarativeExpression::QDeclarativeExpression(class QDeclarativeContextData *, class QString const &, class QObject *)
	??0QDeclarativeExpression@@IAE@PAVQDeclarativeContextData@@ABVQString@@PAVQObject@@AAVQDeclarativeExpressionPrivate@@@Z @ 3503 NONAME ABSENT ; QDeclarativeExpression::QDeclarativeExpression(class QDeclarativeContextData *, class QString const &, class QObject *, class QDeclarativeExpressionPrivate &)
	??0QDeclarativeExpression@@IAE@PAVQDeclarativeContextData@@PAXPAVQDeclarativeRefCount@@PAVQObject@@ABVQString@@HAAVQDeclarativeExpressionPrivate@@@Z @ 3504 NONAME ; QDeclarativeExpression::QDeclarativeExpression(class QDeclarativeContextData *, void *, class QDeclarativeRefCount *, class QObject *, class QString const &, int, class QDeclarativeExpressionPrivate &)
	??0QDeclarativeItemPrivate@@QAE@XZ @ 3505 NONAME ; QDeclarativeItemPrivate::QDeclarativeItemPrivate(void)
	??0QDeclarativeListModel@@AAE@_NPAVQObject@@@Z @ 3506 NONAME ; QDeclarativeListModel::QDeclarativeListModel(bool, class QObject *)
	??0QDeclarativePixmapReply@@AAE@PAVQDeclarativeImageReader@@ABVQUrl@@HH@Z @ 3507 NONAME ; QDeclarativePixmapReply::QDeclarativePixmapReply(class QDeclarativeImageReader *, class QUrl const &, int, int)
	??0QDeclarativeSmoothedAnimation@@QAE@PAVQObject@@@Z @ 3508 NONAME ; QDeclarativeSmoothedAnimation::QDeclarativeSmoothedAnimation(class QObject *)
	??0QDeclarativeTranslate@@QAE@PAVQObject@@@Z @ 3509 NONAME ; QDeclarativeTranslate::QDeclarativeTranslate(class QObject *)
	??0QDeclarativeWorkerScript@@QAE@PAVQObject@@@Z @ 3510 NONAME ; QDeclarativeWorkerScript::QDeclarativeWorkerScript(class QObject *)
	??0Variant@QDeclarativeParser@@QAE@ABV01@@Z @ 3511 NONAME ; QDeclarativeParser::Variant::Variant(class QDeclarativeParser::Variant const &)
	??0Variant@QDeclarativeParser@@QAE@ABVQString@@@Z @ 3512 NONAME ; QDeclarativeParser::Variant::Variant(class QString const &)
	??0Variant@QDeclarativeParser@@QAE@ABVQString@@PAVNode@AST@QDeclarativeJS@@@Z @ 3513 NONAME ; QDeclarativeParser::Variant::Variant(class QString const &, class QDeclarativeJS::AST::Node *)
	??0Variant@QDeclarativeParser@@QAE@NABVQString@@@Z @ 3514 NONAME ; QDeclarativeParser::Variant::Variant(double, class QString const &)
	??0Variant@QDeclarativeParser@@QAE@XZ @ 3515 NONAME ; QDeclarativeParser::Variant::Variant(void)
	??0Variant@QDeclarativeParser@@QAE@_N@Z @ 3516 NONAME ; QDeclarativeParser::Variant::Variant(bool)
	??1QDeclarativeAbstractBinding@@MAE@XZ @ 3517 NONAME ; QDeclarativeAbstractBinding::~QDeclarativeAbstractBinding(void)
	??1QDeclarativeBinding@@MAE@XZ @ 3518 NONAME ; QDeclarativeBinding::~QDeclarativeBinding(void)
	??1QDeclarativeItemPrivate@@UAE@XZ @ 3519 NONAME ; QDeclarativeItemPrivate::~QDeclarativeItemPrivate(void)
	??1QDeclarativeSmoothedAnimation@@UAE@XZ @ 3520 NONAME ; QDeclarativeSmoothedAnimation::~QDeclarativeSmoothedAnimation(void)
	??1QDeclarativeTranslate@@UAE@XZ @ 3521 NONAME ; QDeclarativeTranslate::~QDeclarativeTranslate(void)
	??1QDeclarativeWorkerScript@@UAE@XZ @ 3522 NONAME ; QDeclarativeWorkerScript::~QDeclarativeWorkerScript(void)
	??1Variant@QDeclarativeParser@@QAE@XZ @ 3523 NONAME ; QDeclarativeParser::Variant::~Variant(void)
	??4Variant@QDeclarativeParser@@QAEAAV01@ABV01@@Z @ 3524 NONAME ; class QDeclarativeParser::Variant & QDeclarativeParser::Variant::operator=(class QDeclarativeParser::Variant const &)
	??AQDeclarativeOpenMetaObject@@QAEAAVQVariant@@H@Z @ 3525 NONAME ; class QVariant & QDeclarativeOpenMetaObject::operator[](int)
	??_EQDeclarativeItemPrivate@@UAE@I@Z @ 3526 NONAME ; QDeclarativeItemPrivate::~QDeclarativeItemPrivate(unsigned int)
	??_EQDeclarativeSmoothedAnimation@@UAE@I@Z @ 3527 NONAME ; QDeclarativeSmoothedAnimation::~QDeclarativeSmoothedAnimation(unsigned int)
	??_EQDeclarativeTranslate@@UAE@I@Z @ 3528 NONAME ; QDeclarativeTranslate::~QDeclarativeTranslate(unsigned int)
	??_EQDeclarativeWorkerScript@@UAE@I@Z @ 3529 NONAME ; QDeclarativeWorkerScript::~QDeclarativeWorkerScript(unsigned int)
	?addItemChangeListener@QDeclarativeItemPrivate@@QAEXPAVQDeclarativeItemChangeListener@@V?$QFlags@W4ChangeType@QDeclarativeItemPrivate@@@@@Z @ 3530 NONAME ; void QDeclarativeItemPrivate::addItemChangeListener(class QDeclarativeItemChangeListener *, class QFlags<enum QDeclarativeItemPrivate::ChangeType>)
	?additionalActions@QDeclarativeAnchorChanges@@QAE?AV?$QList@VQDeclarativeAction@@@@XZ @ 3531 NONAME ; class QList<class QDeclarativeAction> QDeclarativeAnchorChanges::additionalActions(void)
	?agent@QDeclarativeListModel@@QAEPAVQDeclarativeListModelWorkerAgent@@XZ @ 3532 NONAME ; class QDeclarativeListModelWorkerAgent * QDeclarativeListModel::agent(void)
	?anchorLines@QDeclarativeItemPrivate@@QBEPAUAnchorLines@1@XZ @ 3533 NONAME ; struct QDeclarativeItemPrivate::AnchorLines * QDeclarativeItemPrivate::anchorLines(void) const
	?anchors@QDeclarativeAnchorChanges@@QAEPAVQDeclarativeAnchorSet@@XZ @ 3534 NONAME ; class QDeclarativeAnchorSet * QDeclarativeAnchorChanges::anchors(void)
	?anchors@QDeclarativeItemPrivate@@QAEPAVQDeclarativeAnchors@@XZ @ 3535 NONAME ; class QDeclarativeAnchors * QDeclarativeItemPrivate::anchors(void)
	?animations@QDeclarativeTransition@@QAE?AV?$QDeclarativeListProperty@VQDeclarativeAbstractAnimation@@@@XZ @ 3536 NONAME ; class QDeclarativeListProperty<class QDeclarativeAbstractAnimation> QDeclarativeTransition::animations(void)
	?applyTo@QDeclarativeTranslate@@UBEXPAVQMatrix4x4@@@Z @ 3537 NONAME ; void QDeclarativeTranslate::applyTo(class QMatrix4x4 *) const
	?asAST@Variant@QDeclarativeParser@@QBEPAVNode@AST@QDeclarativeJS@@XZ @ 3538 NONAME ; class QDeclarativeJS::AST::Node * QDeclarativeParser::Variant::asAST(void) const
	?asBoolean@Variant@QDeclarativeParser@@QBE_NXZ @ 3539 NONAME ; bool QDeclarativeParser::Variant::asBoolean(void) const
	?asNumber@Variant@QDeclarativeParser@@QBENXZ @ 3540 NONAME ; double QDeclarativeParser::Variant::asNumber(void) const
	?asScript@Variant@QDeclarativeParser@@QBE?AVQString@@XZ @ 3541 NONAME ; class QString QDeclarativeParser::Variant::asScript(void) const
	?asString@Variant@QDeclarativeParser@@QBE?AVQString@@XZ @ 3542 NONAME ; class QString QDeclarativeParser::Variant::asString(void) const
	?asStringList@Variant@QDeclarativeParser@@QBE?AVQStringList@@XZ @ 3543 NONAME ; class QStringList QDeclarativeParser::Variant::asStringList(void) const
	?back@QDeclarativeFlipable@@QAEPAVQGraphicsObject@@XZ @ 3544 NONAME ; class QGraphicsObject * QDeclarativeFlipable::back(void)
	?baseline@QDeclarativeAnchors@@QBE?AUQDeclarativeAnchorLine@@XZ @ 3545 NONAME ABSENT ; struct QDeclarativeAnchorLine QDeclarativeAnchors::baseline(void) const
	?baseline@QDeclarativeItem@@QBE?AUQDeclarativeAnchorLine@@XZ @ 3546 NONAME ABSENT ; struct QDeclarativeAnchorLine QDeclarativeItem::baseline(void) const
	?baselineOffsetChanged@QDeclarativeItem@@IAEXM@Z @ 3547 NONAME ; void QDeclarativeItem::baselineOffsetChanged(float)
	?bindingIndex@QDeclarativePropertyPrivate@@SAHABVQDeclarativeProperty@@@Z @ 3548 NONAME ; int QDeclarativePropertyPrivate::bindingIndex(class QDeclarativeProperty const &)
	?bindingType@QDeclarativeAbstractBinding@@UBE?AW4Type@1@XZ @ 3549 NONAME ; enum QDeclarativeAbstractBinding::Type QDeclarativeAbstractBinding::bindingType(void) const
	?bottom@QDeclarativeAnchors@@QBE?AUQDeclarativeAnchorLine@@XZ @ 3550 NONAME ABSENT ; struct QDeclarativeAnchorLine QDeclarativeAnchors::bottom(void) const
	?bottom@QDeclarativeItem@@QBE?AUQDeclarativeAnchorLine@@XZ @ 3551 NONAME ABSENT ; struct QDeclarativeAnchorLine QDeclarativeItem::bottom(void) const
