EXPORTS
	??0QGraphicsVideoItem@@QAE@PAVQGraphicsItem@@@Z @ 1 NONAME ; QGraphicsVideoItem::QGraphicsVideoItem(class QGraphicsItem *)
	??0QLocalMediaPlaylistProvider@@QAE@PAVQObject@@@Z @ 2 NONAME ; QLocalMediaPlaylistProvider::QLocalMediaPlaylistProvider(class QObject *)
	??0QMediaContent@@QAE@ABV0@@Z @ 3 NONAME ; QMediaContent::QMediaContent(class QMediaContent const &)
	??0QMediaContent@@QAE@ABV?$QList@VQMediaResource@@@@@Z @ 4 NONAME ; QMediaContent::QMediaContent(class QList<class QMediaResource> const &)
	??0QMediaContent@@QAE@ABVQMediaResource@@@Z @ 5 NONAME ; QMediaContent::QMediaContent(class QMediaResource const &)
	??0QMediaContent@@QAE@ABVQNetworkRequest@@@Z @ 6 NONAME ; QMediaContent::QMediaContent(class QNetworkRequest const &)
	??0QMediaContent@@QAE@ABVQUrl@@@Z @ 7 NONAME ; QMediaContent::QMediaContent(class QUrl const &)
	??0QMediaContent@@QAE@XZ @ 8 NONAME ; QMediaContent::QMediaContent(void)
	??0QMediaControl@@IAE@AAVQMediaControlPrivate@@PAVQObject@@@Z @ 9 NONAME ; QMediaControl::QMediaControl(class QMediaControlPrivate &, class QObject *)
	??0QMediaControl@@IAE@PAVQObject@@@Z @ 10 NONAME ; QMediaControl::QMediaControl(class QObject *)
	??0QMediaObject@@IAE@AAVQMediaObjectPrivate@@PAVQObject@@PAVQMediaService@@@Z @ 11 NONAME ; QMediaObject::QMediaObject(class QMediaObjectPrivate &, class QObject *, class QMediaService *)
	??0QMediaObject@@IAE@PAVQObject@@PAVQMediaService@@@Z @ 12 NONAME ; QMediaObject::QMediaObject(class QObject *, class QMediaService *)
	??0QMediaPlayer@@QAE@PAVQObject@@V?$QFlags@W4Flag@QMediaPlayer@@@@PAVQMediaServiceProvider@@@Z @ 13 NONAME ; QMediaPlayer::QMediaPlayer(class QObject *, class QFlags<enum QMediaPlayer::Flag>, class QMediaServiceProvider *)
	??0QMediaPlayerControl@@IAE@PAVQObject@@@Z @ 14 NONAME ; QMediaPlayerControl::QMediaPlayerControl(class QObject *)
	??0QMediaPlaylist@@QAE@PAVQObject@@@Z @ 15 NONAME ; QMediaPlaylist::QMediaPlaylist(class QObject *)
	??0QMediaPlaylistControl@@IAE@PAVQObject@@@Z @ 16 NONAME ; QMediaPlaylistControl::QMediaPlaylistControl(class QObject *)
	??0QMediaPlaylistIOPlugin@@QAE@PAVQObject@@@Z @ 17 NONAME ; QMediaPlaylistIOPlugin::QMediaPlaylistIOPlugin(class QObject *)
	??0QMediaPlaylistNavigator@@QAE@PAVQMediaPlaylistProvider@@PAVQObject@@@Z @ 18 NONAME ; QMediaPlaylistNavigator::QMediaPlaylistNavigator(class QMediaPlaylistProvider *, class QObject *)
	??0QMediaPlaylistProvider@@IAE@AAVQMediaPlaylistProviderPrivate@@PAVQObject@@@Z @ 19 NONAME ; QMediaPlaylistProvider::QMediaPlaylistProvider(class QMediaPlaylistProviderPrivate &, class QObject *)
	??0QMediaPlaylistProvider@@QAE@PAVQObject@@@Z @ 20 NONAME ; QMediaPlaylistProvider::QMediaPlaylistProvider(class QObject *)
	??0QMediaResource@@QAE@ABV0@@Z @ 21 NONAME ; QMediaResource::QMediaResource(class QMediaResource const &)
	??0QMediaResource@@QAE@ABVQNetworkRequest@@ABVQString@@@Z @ 22 NONAME ; QMediaResource::QMediaResource(class QNetworkRequest const &, class QString const &)
	??0QMediaResource@@QAE@ABVQUrl@@ABVQString@@@Z @ 23 NONAME ; QMediaResource::QMediaResource(class QUrl const &, class QString const &)
	??0QMediaResource@@QAE@XZ @ 24 NONAME ; QMediaResource::QMediaResource(void)
	??0QMediaService@@IAE@AAVQMediaServicePrivate@@PAVQObject@@@Z @ 25 NONAME ; QMediaService::QMediaService(class QMediaServicePrivate &, class QObject *)
	??0QMediaService@@IAE@PAVQObject@@@Z @ 26 NONAME ; QMediaService::QMediaService(class QObject *)
	??0QMediaServiceProviderHint@@QAE@ABV0@@Z @ 27 NONAME ; QMediaServiceProviderHint::QMediaServiceProviderHint(class QMediaServiceProviderHint const &)
	??0QMediaServiceProviderHint@@QAE@ABVQByteArray@@@Z @ 28 NONAME ; QMediaServiceProviderHint::QMediaServiceProviderHint(class QByteArray const &)
	??0QMediaServiceProviderHint@@QAE@ABVQString@@ABVQStringList@@@Z @ 29 NONAME ; QMediaServiceProviderHint::QMediaServiceProviderHint(class QString const &, class QStringList const &)
	??0QMediaServiceProviderHint@@QAE@V?$QFlags@W4Feature@QMediaServiceProviderHint@@@@@Z @ 30 NONAME ; QMediaServiceProviderHint::QMediaServiceProviderHint(class QFlags<enum QMediaServiceProviderHint::Feature>)
	??0QMediaServiceProviderHint@@QAE@XZ @ 31 NONAME ; QMediaServiceProviderHint::QMediaServiceProviderHint(void)
	??0QMediaTimeInterval@@QAE@ABV0@@Z @ 32 NONAME ; QMediaTimeInterval::QMediaTimeInterval(class QMediaTimeInterval const &)
	??0QMediaTimeInterval@@QAE@XZ @ 33 NONAME ; QMediaTimeInterval::QMediaTimeInterval(void)
	??0QMediaTimeInterval@@QAE@_J0@Z @ 34 NONAME ; QMediaTimeInterval::QMediaTimeInterval(long long, long long)
	??0QMediaTimeRange@@QAE@ABV0@@Z @ 35 NONAME ; QMediaTimeRange::QMediaTimeRange(class QMediaTimeRange const &)
	??0QMediaTimeRange@@QAE@ABVQMediaTimeInterval@@@Z @ 36 NONAME ; QMediaTimeRange::QMediaTimeRange(class QMediaTimeInterval const &)
	??0QMediaTimeRange@@QAE@XZ @ 37 NONAME ; QMediaTimeRange::QMediaTimeRange(void)
	??0QMediaTimeRange@@QAE@_J0@Z @ 38 NONAME ; QMediaTimeRange::QMediaTimeRange(long long, long long)
	??0QMetaDataControl@@IAE@PAVQObject@@@Z @ 39 NONAME ; QMetaDataControl::QMetaDataControl(class QObject *)
	??0QPainterVideoSurface@@QAE@PAVQObject@@@Z @ 40 NONAME ; QPainterVideoSurface::QPainterVideoSurface(class QObject *)
	??0QSoundEffect@@QAE@PAVQObject@@@Z @ 41 NONAME ; QSoundEffect::QSoundEffect(class QObject *)
	??0QVideoDeviceControl@@IAE@PAVQObject@@@Z @ 42 NONAME ; QVideoDeviceControl::QVideoDeviceControl(class QObject *)
	??0QVideoOutputControl@@IAE@PAVQObject@@@Z @ 43 NONAME ; QVideoOutputControl::QVideoOutputControl(class QObject *)
	??0QVideoRendererControl@@IAE@PAVQObject@@@Z @ 44 NONAME ; QVideoRendererControl::QVideoRendererControl(class QObject *)
	??0QVideoWidget@@QAE@PAVQWidget@@@Z @ 45 NONAME ; QVideoWidget::QVideoWidget(class QWidget *)
	??0QVideoWidgetControl@@IAE@PAVQObject@@@Z @ 46 NONAME ; QVideoWidgetControl::QVideoWidgetControl(class QObject *)
	??0QVideoWindowControl@@IAE@PAVQObject@@@Z @ 47 NONAME ; QVideoWindowControl::QVideoWindowControl(class QObject *)
	??1QGraphicsVideoItem@@UAE@XZ @ 48 NONAME ; QGraphicsVideoItem::~QGraphicsVideoItem(void)
	??1QLocalMediaPlaylistProvider@@UAE@XZ @ 49 NONAME ; QLocalMediaPlaylistProvider::~QLocalMediaPlaylistProvider(void)
	??1QMediaContent@@QAE@XZ @ 50 NONAME ; QMediaContent::~QMediaContent(void)
	??1QMediaControl@@UAE@XZ @ 51 NONAME ; QMediaControl::~QMediaControl(void)
	??1QMediaObject@@UAE@XZ @ 52 NONAME ; QMediaObject::~QMediaObject(void)
	??1QMediaPlayer@@UAE@XZ @ 53 NONAME ; QMediaPlayer::~QMediaPlayer(void)
	??1QMediaPlayerControl@@UAE@XZ @ 54 NONAME ; QMediaPlayerControl::~QMediaPlayerControl(void)
	??1QMediaPlaylist@@UAE@XZ @ 55 NONAME ; QMediaPlaylist::~QMediaPlaylist(void)
	??1QMediaPlaylistControl@@UAE@XZ @ 56 NONAME ; QMediaPlaylistControl::~QMediaPlaylistControl(void)
	??1QMediaPlaylistIOInterface@@UAE@XZ @ 57 NONAME ; QMediaPlaylistIOInterface::~QMediaPlaylistIOInterface(void)
	??1QMediaPlaylistIOPlugin@@UAE@XZ @ 58 NONAME ; QMediaPlaylistIOPlugin::~QMediaPlaylistIOPlugin(void)
	??1QMediaPlaylistNavigator@@UAE@XZ @ 59 NONAME ; QMediaPlaylistNavigator::~QMediaPlaylistNavigator(void)
	??1QMediaPlaylistProvider@@UAE@XZ @ 60 NONAME ; QMediaPlaylistProvider::~QMediaPlaylistProvider(void)
	??1QMediaPlaylistReader@@UAE@XZ @ 61 NONAME ; QMediaPlaylistReader::~QMediaPlaylistReader(void)
	??1QMediaPlaylistWriter@@UAE@XZ @ 62 NONAME ; QMediaPlaylistWriter::~QMediaPlaylistWriter(void)
	??1QMediaResource@@QAE@XZ @ 63 NONAME ; QMediaResource::~QMediaResource(void)
	??1QMediaService@@UAE@XZ @ 64 NONAME ; QMediaService::~QMediaService(void)
	??1QMediaServiceFeaturesInterface@@UAE@XZ @ 65 NONAME ; QMediaServiceFeaturesInterface::~QMediaServiceFeaturesInterface(void)
	??1QMediaServiceProvider@@UAE@XZ @ 66 NONAME ; QMediaServiceProvider::~QMediaServiceProvider(void)
	??1QMediaServiceProviderHint@@QAE@XZ @ 67 NONAME ; QMediaServiceProviderHint::~QMediaServiceProviderHint(void)
	??1QMediaServiceSupportedDevicesInterface@@UAE@XZ @ 68 NONAME ; QMediaServiceSupportedDevicesInterface::~QMediaServiceSupportedDevicesInterface(void)
	??1QMediaServiceSupportedFormatsInterface@@UAE@XZ @ 69 NONAME ; QMediaServiceSupportedFormatsInterface::~QMediaServiceSupportedFormatsInterface(void)
	??1QMediaTimeRange@@QAE@XZ @ 70 NONAME ; QMediaTimeRange::~QMediaTimeRange(void)
	??1QMetaDataControl@@UAE@XZ @ 71 NONAME ; QMetaDataControl::~QMetaDataControl(void)
	??1QPainterVideoSurface@@UAE@XZ @ 72 NONAME ; QPainterVideoSurface::~QPainterVideoSurface(void)
	??1QSoundEffect@@UAE@XZ @ 73 NONAME ; QSoundEffect::~QSoundEffect(void)
	??1QVideoDeviceControl@@UAE@XZ @ 74 NONAME ; QVideoDeviceControl::~QVideoDeviceControl(void)
	??1QVideoOutputControl@@UAE@XZ @ 75 NONAME ; QVideoOutputControl::~QVideoOutputControl(void)
	??1QVideoRendererControl@@UAE@XZ @ 76 NONAME ; QVideoRendererControl::~QVideoRendererControl(void)
	??1QVideoWidget@@UAE@XZ @ 77 NONAME ; QVideoWidget::~QVideoWidget(void)
	??1QVideoWidgetControl@@UAE@XZ @ 78 NONAME ; QVideoWidgetControl::~QVideoWidgetControl(void)
	??1QVideoWindowControl@@UAE@XZ @ 79 NONAME ; QVideoWindowControl::~QVideoWindowControl(void)
	??4QMediaContent@@QAEAAV0@ABV0@@Z @ 80 NONAME ; class QMediaContent & QMediaContent::operator=(class QMediaContent const &)
	??4QMediaResource@@QAEAAV0@ABV0@@Z @ 81 NONAME ; class QMediaResource & QMediaResource::operator=(class QMediaResource const &)
	??4QMediaServiceProviderHint@@QAEAAV0@ABV0@@Z @ 82 NONAME ; class QMediaServiceProviderHint & QMediaServiceProviderHint::operator=(class QMediaServiceProviderHint const &)
	??4QMediaTimeRange@@QAEAAV0@ABV0@@Z @ 83 NONAME ; class QMediaTimeRange & QMediaTimeRange::operator=(class QMediaTimeRange const &)
	??4QMediaTimeRange@@QAEAAV0@ABVQMediaTimeInterval@@@Z @ 84 NONAME ; class QMediaTimeRange & QMediaTimeRange::operator=(class QMediaTimeInterval const &)
	??8@YA_NABVQMediaTimeInterval@@0@Z @ 85 NONAME ; bool operator==(class QMediaTimeInterval const &, class QMediaTimeInterval const &)
	??8@YA_NABVQMediaTimeRange@@0@Z @ 86 NONAME ; bool operator==(class QMediaTimeRange const &, class QMediaTimeRange const &)
	??8QMediaContent@@QBE_NABV0@@Z @ 87 NONAME ; bool QMediaContent::operator==(class QMediaContent const &) const
	??8QMediaResource@@QBE_NABV0@@Z @ 88 NONAME ; bool QMediaResource::operator==(class QMediaResource const &) const
	??8QMediaServiceProviderHint@@QBE_NABV0@@Z @ 89 NONAME ; bool QMediaServiceProviderHint::operator==(class QMediaServiceProviderHint const &) const
	??9@YA_NABVQMediaTimeInterval@@0@Z @ 90 NONAME ; bool operator!=(class QMediaTimeInterval const &, class QMediaTimeInterval const &)
	??9@YA_NABVQMediaTimeRange@@0@Z @ 91 NONAME ; bool operator!=(class QMediaTimeRange const &, class QMediaTimeRange const &)
	??9QMediaContent@@QBE_NABV0@@Z @ 92 NONAME ; bool QMediaContent::operator!=(class QMediaContent const &) const
	??9QMediaResource@@QBE_NABV0@@Z @ 93 NONAME ; bool QMediaResource::operator!=(class QMediaResource const &) const
	??9QMediaServiceProviderHint@@QBE_NABV0@@Z @ 94 NONAME ; bool QMediaServiceProviderHint::operator!=(class QMediaServiceProviderHint const &) const
	??G@YA?AVQMediaTimeRange@@ABV0@0@Z @ 95 NONAME ; class QMediaTimeRange operator-(class QMediaTimeRange const &, class QMediaTimeRange const &)
	??H@YA?AVQMediaTimeRange@@ABV0@0@Z @ 96 NONAME ; class QMediaTimeRange operator+(class QMediaTimeRange const &, class QMediaTimeRange const &)
	??YQMediaTimeRange@@QAEAAV0@ABV0@@Z @ 97 NONAME ; class QMediaTimeRange & QMediaTimeRange::operator+=(class QMediaTimeRange const &)
	??YQMediaTimeRange@@QAEAAV0@ABVQMediaTimeInterval@@@Z @ 98 NONAME ; class QMediaTimeRange & QMediaTimeRange::operator+=(class QMediaTimeInterval const &)
	??ZQMediaTimeRange@@QAEAAV0@ABV0@@Z @ 99 NONAME ; class QMediaTimeRange & QMediaTimeRange::operator-=(class QMediaTimeRange const &)
	??ZQMediaTimeRange@@QAEAAV0@ABVQMediaTimeInterval@@@Z @ 100 NONAME ; class QMediaTimeRange & QMediaTimeRange::operator-=(class QMediaTimeInterval const &)
	??_EQGraphicsVideoItem@@UAE@I@Z @ 101 NONAME ; QGraphicsVideoItem::~QGraphicsVideoItem(unsigned int)
	??_EQLocalMediaPlaylistProvider@@UAE@I@Z @ 102 NONAME ; QLocalMediaPlaylistProvider::~QLocalMediaPlaylistProvider(unsigned int)
	??_EQMediaControl@@UAE@I@Z @ 103 NONAME ; QMediaControl::~QMediaControl(unsigned int)
	??_EQMediaObject@@UAE@I@Z @ 104 NONAME ; QMediaObject::~QMediaObject(unsigned int)
	??_EQMediaPlayer@@UAE@I@Z @ 105 NONAME ; QMediaPlayer::~QMediaPlayer(unsigned int)
	??_EQMediaPlayerControl@@UAE@I@Z @ 106 NONAME ; QMediaPlayerControl::~QMediaPlayerControl(unsigned int)
	??_EQMediaPlaylist@@UAE@I@Z @ 107 NONAME ; QMediaPlaylist::~QMediaPlaylist(unsigned int)
	??_EQMediaPlaylistControl@@UAE@I@Z @ 108 NONAME ; QMediaPlaylistControl::~QMediaPlaylistControl(unsigned int)
	??_EQMediaPlaylistIOInterface@@UAE@I@Z @ 109 NONAME ; QMediaPlaylistIOInterface::~QMediaPlaylistIOInterface(unsigned int)
	??_EQMediaPlaylistIOPlugin@@UAE@I@Z @ 110 NONAME ; QMediaPlaylistIOPlugin::~QMediaPlaylistIOPlugin(unsigned int)
	??_EQMediaPlaylistNavigator@@UAE@I@Z @ 111 NONAME ; QMediaPlaylistNavigator::~QMediaPlaylistNavigator(unsigned int)
	??_EQMediaPlaylistProvider@@UAE@I@Z @ 112 NONAME ; QMediaPlaylistProvider::~QMediaPlaylistProvider(unsigned int)
	??_EQMediaPlaylistReader@@UAE@I@Z @ 113 NONAME ; QMediaPlaylistReader::~QMediaPlaylistReader(unsigned int)
	??_EQMediaPlaylistWriter@@UAE@I@Z @ 114 NONAME ; QMediaPlaylistWriter::~QMediaPlaylistWriter(unsigned int)
	??_EQMediaService@@UAE@I@Z @ 115 NONAME ; QMediaService::~QMediaService(unsigned int)
	??_EQMediaServiceFeaturesInterface@@UAE@I@Z @ 116 NONAME ; QMediaServiceFeaturesInterface::~QMediaServiceFeaturesInterface(unsigned int)
	??_EQMediaServiceProvider@@UAE@I@Z @ 117 NONAME ; QMediaServiceProvider::~QMediaServiceProvider(unsigned int)
	??_EQMediaServiceSupportedDevicesInterface@@UAE@I@Z @ 118 NONAME ; QMediaServiceSupportedDevicesInterface::~QMediaServiceSupportedDevicesInterface(unsigned int)
	??_EQMediaServiceSupportedFormatsInterface@@UAE@I@Z @ 119 NONAME ; QMediaServiceSupportedFormatsInterface::~QMediaServiceSupportedFormatsInterface(unsigned int)
	??_EQMetaDataControl@@UAE@I@Z @ 120 NONAME ; QMetaDataControl::~QMetaDataControl(unsigned int)
	??_EQPainterVideoSurface@@UAE@I@Z @ 121 NONAME ; QPainterVideoSurface::~QPainterVideoSurface(unsigned int)
	??_EQSoundEffect@@UAE@I@Z @ 122 NONAME ; QSoundEffect::~QSoundEffect(unsigned int)
	??_EQVideoDeviceControl@@UAE@I@Z @ 123 NONAME ; QVideoDeviceControl::~QVideoDeviceControl(unsigned int)
	??_EQVideoOutputControl@@UAE@I@Z @ 124 NONAME ; QVideoOutputControl::~QVideoOutputControl(unsigned int)
	??_EQVideoRendererControl@@UAE@I@Z @ 125 NONAME ; QVideoRendererControl::~QVideoRendererControl(unsigned int)
	??_EQVideoWidget@@UAE@I@Z @ 126 NONAME ; QVideoWidget::~QVideoWidget(unsigned int)
	??_EQVideoWidgetControl@@UAE@I@Z @ 127 NONAME ; QVideoWidgetControl::~QVideoWidgetControl(unsigned int)
	??_EQVideoWindowControl@@UAE@I@Z @ 128 NONAME ; QVideoWindowControl::~QVideoWindowControl(unsigned int)
	?activated@QMediaPlaylistNavigator@@IAEXABVQMediaContent@@@Z @ 129 NONAME ; void QMediaPlaylistNavigator::activated(class QMediaContent const &)
	?addInterval@QMediaTimeRange@@QAEXABVQMediaTimeInterval@@@Z @ 130 NONAME ; void QMediaTimeRange::addInterval(class QMediaTimeInterval const &)
	?addInterval@QMediaTimeRange@@QAEX_J0@Z @ 131 NONAME ; void QMediaTimeRange::addInterval(long long, long long)
	?addMedia@QLocalMediaPlaylistProvider@@UAE_NABV?$QList@VQMediaContent@@@@@Z @ 132 NONAME ; bool QLocalMediaPlaylistProvider::addMedia(class QList<class QMediaContent> const &)
	?addMedia@QLocalMediaPlaylistProvider@@UAE_NABVQMediaContent@@@Z @ 133 NONAME ; bool QLocalMediaPlaylistProvider::addMedia(class QMediaContent const &)
	?addMedia@QMediaPlaylist@@QAE_NABV?$QList@VQMediaContent@@@@@Z @ 134 NONAME ; bool QMediaPlaylist::addMedia(class QList<class QMediaContent> const &)
	?addMedia@QMediaPlaylist@@QAE_NABVQMediaContent@@@Z @ 135 NONAME ; bool QMediaPlaylist::addMedia(class QMediaContent const &)
	?addMedia@QMediaPlaylistProvider@@UAE_NABV?$QList@VQMediaContent@@@@@Z @ 136 NONAME ; bool QMediaPlaylistProvider::addMedia(class QList<class QMediaContent> const &)
	?addMedia@QMediaPlaylistProvider@@UAE_NABVQMediaContent@@@Z @ 137 NONAME ; bool QMediaPlaylistProvider::addMedia(class QMediaContent const &)
	?addPropertyWatch@QMediaObject@@IAEXABVQByteArray@@@Z @ 138 NONAME ; void QMediaObject::addPropertyWatch(class QByteArray const &)
	?addTimeRange@QMediaTimeRange@@QAEXABV1@@Z @ 139 NONAME ; void QMediaTimeRange::addTimeRange(class QMediaTimeRange const &)
	?aspectRatioMode@QGraphicsVideoItem@@QBE?AW4AspectRatioMode@Qt@@XZ @ 140 NONAME ; enum Qt::AspectRatioMode QGraphicsVideoItem::aspectRatioMode(void) const
	?aspectRatioMode@QVideoWidget@@QBE?AW4AspectRatioMode@Qt@@XZ @ 141 NONAME ; enum Qt::AspectRatioMode QVideoWidget::aspectRatioMode(void) const
	?audioAvailableChanged@QMediaPlayer@@IAEX_N@Z @ 142 NONAME ; void QMediaPlayer::audioAvailableChanged(bool)
	?audioAvailableChanged@QMediaPlayerControl@@IAEX_N@Z @ 143 NONAME ; void QMediaPlayerControl::audioAvailableChanged(bool)
	?audioBitRate@QMediaResource@@QBEHXZ @ 144 NONAME ; int QMediaResource::audioBitRate(void) const
	?audioCodec@QMediaResource@@QBE?AVQString@@XZ @ 145 NONAME ; class QString QMediaResource::audioCodec(void) const
	?availabilityChanged@QMediaObject@@IAEX_N@Z @ 146 NONAME ; void QMediaObject::availabilityChanged(bool)
	?availabilityError@QMediaObject@@UBE?AW4AvailabilityError@QtMediaServices@@XZ @ 147 NONAME ; enum QtMediaServices::AvailabilityError QMediaObject::availabilityError(void) const
	?availableExtendedMetaData@QMediaObject@@QBE?AVQStringList@@XZ @ 148 NONAME ; class QStringList QMediaObject::availableExtendedMetaData(void) const
	?availableMetaData@QMediaObject@@QBE?AV?$QList@W4MetaData@QtMediaServices@@@@XZ @ 149 NONAME ; class QList<enum QtMediaServices::MetaData> QMediaObject::availableMetaData(void) const
	?availableOutputsChanged@QVideoOutputControl@@IAEXABV?$QList@W4Output@QVideoOutputControl@@@@@Z @ 150 NONAME ; void QVideoOutputControl::availableOutputsChanged(class QList<enum QVideoOutputControl::Output> const &)
	?availablePlaybackRangesChanged@QMediaPlayerControl@@IAEXABVQMediaTimeRange@@@Z @ 151 NONAME ; void QMediaPlayerControl::availablePlaybackRangesChanged(class QMediaTimeRange const &)
	?bind@QMediaObject@@UAEXPAVQObject@@@Z @ 152 NONAME ; void QMediaObject::bind(class QObject *)
	?bind@QMediaPlayer@@UAEXPAVQObject@@@Z @ 153 NONAME ; void QMediaPlayer::bind(class QObject *)
	?boundingRect@QGraphicsVideoItem@@UBE?AVQRectF@@XZ @ 154 NONAME ; class QRectF QGraphicsVideoItem::boundingRect(void) const
	?brightness@QPainterVideoSurface@@QBEHXZ @ 155 NONAME ; int QPainterVideoSurface::brightness(void) const
	?brightness@QVideoWidget@@QBEHXZ @ 156 NONAME ; int QVideoWidget::brightness(void) const
	?brightnessChanged@QVideoWidget@@IAEXH@Z @ 157 NONAME ; void QVideoWidget::brightnessChanged(int)
	?brightnessChanged@QVideoWidgetControl@@IAEXH@Z @ 158 NONAME ; void QVideoWidgetControl::brightnessChanged(int)
	?brightnessChanged@QVideoWindowControl@@IAEXH@Z @ 159 NONAME ; void QVideoWindowControl::brightnessChanged(int)
	?bufferStatus@QMediaPlayer@@QBEHXZ @ 160 NONAME ; int QMediaPlayer::bufferStatus(void) const
	?bufferStatusChanged@QMediaPlayer@@IAEXH@Z @ 161 NONAME ; void QMediaPlayer::bufferStatusChanged(int)
	?bufferStatusChanged@QMediaPlayerControl@@IAEXH@Z @ 162 NONAME ; void QMediaPlayerControl::bufferStatusChanged(int)
	?canonicalRequest@QMediaContent@@QBE?AVQNetworkRequest@@XZ @ 163 NONAME ; class QNetworkRequest QMediaContent::canonicalRequest(void) const
	?canonicalResource@QMediaContent@@QBE?AVQMediaResource@@XZ @ 164 NONAME ; class QMediaResource QMediaContent::canonicalResource(void) const
	?canonicalUrl@QMediaContent@@QBE?AVQUrl@@XZ @ 165 NONAME ; class QUrl QMediaContent::canonicalUrl(void) const
	?channelCount@QMediaResource@@QBEHXZ @ 166 NONAME ; int QMediaResource::channelCount(void) const
	?clear@QLocalMediaPlaylistProvider@@UAE_NXZ @ 167 NONAME ; bool QLocalMediaPlaylistProvider::clear(void)
	?clear@QMediaPlaylist@@QAE_NXZ @ 168 NONAME ; bool QMediaPlaylist::clear(void)
	?clear@QMediaPlaylistProvider@@UAE_NXZ @ 169 NONAME ; bool QMediaPlaylistProvider::clear(void)
	?clear@QMediaTimeRange@@QAEXXZ @ 170 NONAME ; void QMediaTimeRange::clear(void)
	?codecs@QMediaServiceProviderHint@@QBE?AVQStringList@@XZ @ 171 NONAME ; class QStringList QMediaServiceProviderHint::codecs(void) const
	?contains@QMediaTimeInterval@@QBE_N_J@Z @ 172 NONAME ; bool QMediaTimeInterval::contains(long long) const
	?contains@QMediaTimeRange@@QBE_N_J@Z @ 173 NONAME ; bool QMediaTimeRange::contains(long long) const
	?contrast@QPainterVideoSurface@@QBEHXZ @ 174 NONAME ; int QPainterVideoSurface::contrast(void) const
	?contrast@QVideoWidget@@QBEHXZ @ 175 NONAME ; int QVideoWidget::contrast(void) const
	?contrastChanged@QVideoWidget@@IAEXH@Z @ 176 NONAME ; void QVideoWidget::contrastChanged(int)
	?contrastChanged@QVideoWidgetControl@@IAEXH@Z @ 177 NONAME ; void QVideoWidgetControl::contrastChanged(int)
	?contrastChanged@QVideoWindowControl@@IAEXH@Z @ 178 NONAME ; void QVideoWindowControl::contrastChanged(int)
	?createPainter@QPainterVideoSurface@@AAEXXZ @ 179 NONAME ; void QPainterVideoSurface::createPainter(void)
	?currentIndex@QMediaPlaylist@@QBEHXZ @ 180 NONAME ; int QMediaPlaylist::currentIndex(void) const
	?currentIndex@QMediaPlaylistNavigator@@QBEHXZ @ 181 NONAME ; int QMediaPlaylistNavigator::currentIndex(void) const
	?currentIndexChanged@QMediaPlaylist@@IAEXH@Z @ 182 NONAME ; void QMediaPlaylist::currentIndexChanged(int)
	?currentIndexChanged@QMediaPlaylistControl@@IAEXH@Z @ 183 NONAME ; void QMediaPlaylistControl::currentIndexChanged(int)
	?currentIndexChanged@QMediaPlaylistNavigator@@IAEXH@Z @ 184 NONAME ; void QMediaPlaylistNavigator::currentIndexChanged(int)
	?currentItem@QMediaPlaylistNavigator@@QBE?AVQMediaContent@@XZ @ 185 NONAME ; class QMediaContent QMediaPlaylistNavigator::currentItem(void) const
	?currentMedia@QMediaPlaylist@@QBE?AVQMediaContent@@XZ @ 186 NONAME ; class QMediaContent QMediaPlaylist::currentMedia(void) const
	?currentMediaChanged@QMediaPlaylist@@IAEXABVQMediaContent@@@Z @ 187 NONAME ; void QMediaPlaylist::currentMediaChanged(class QMediaContent const &)
	?currentMediaChanged@QMediaPlaylistControl@@IAEXABVQMediaContent@@@Z @ 188 NONAME ; void QMediaPlaylistControl::currentMediaChanged(class QMediaContent const &)
	?d_func@QGraphicsVideoItem@@AAEPAVQGraphicsVideoItemPrivate@@XZ @ 189 NONAME ; class QGraphicsVideoItemPrivate * QGraphicsVideoItem::d_func(void)
	?d_func@QGraphicsVideoItem@@ABEPBVQGraphicsVideoItemPrivate@@XZ @ 190 NONAME ; class QGraphicsVideoItemPrivate const * QGraphicsVideoItem::d_func(void) const
	?d_func@QLocalMediaPlaylistProvider@@AAEPAVQLocalMediaPlaylistProviderPrivate@@XZ @ 191 NONAME ; class QLocalMediaPlaylistProviderPrivate * QLocalMediaPlaylistProvider::d_func(void)
	?d_func@QLocalMediaPlaylistProvider@@ABEPBVQLocalMediaPlaylistProviderPrivate@@XZ @ 192 NONAME ; class QLocalMediaPlaylistProviderPrivate const * QLocalMediaPlaylistProvider::d_func(void) const
	?d_func@QMediaControl@@AAEPAVQMediaControlPrivate@@XZ @ 193 NONAME ; class QMediaControlPrivate * QMediaControl::d_func(void)
	?d_func@QMediaControl@@ABEPBVQMediaControlPrivate@@XZ @ 194 NONAME ; class QMediaControlPrivate const * QMediaControl::d_func(void) const
	?d_func@QMediaObject@@AAEPAVQMediaObjectPrivate@@XZ @ 195 NONAME ; class QMediaObjectPrivate * QMediaObject::d_func(void)
	?d_func@QMediaObject@@ABEPBVQMediaObjectPrivate@@XZ @ 196 NONAME ; class QMediaObjectPrivate const * QMediaObject::d_func(void) const
	?d_func@QMediaPlayer@@AAEPAVQMediaPlayerPrivate@@XZ @ 197 NONAME ; class QMediaPlayerPrivate * QMediaPlayer::d_func(void)
	?d_func@QMediaPlayer@@ABEPBVQMediaPlayerPrivate@@XZ @ 198 NONAME ; class QMediaPlayerPrivate const * QMediaPlayer::d_func(void) const
	?d_func@QMediaPlaylist@@AAEPAVQMediaPlaylistPrivate@@XZ @ 199 NONAME ; class QMediaPlaylistPrivate * QMediaPlaylist::d_func(void)
	?d_func@QMediaPlaylist@@ABEPBVQMediaPlaylistPrivate@@XZ @ 200 NONAME ; class QMediaPlaylistPrivate const * QMediaPlaylist::d_func(void) const
	?d_func@QMediaPlaylistNavigator@@AAEPAVQMediaPlaylistNavigatorPrivate@@XZ @ 201 NONAME ; class QMediaPlaylistNavigatorPrivate * QMediaPlaylistNavigator::d_func(void)
	?d_func@QMediaPlaylistNavigator@@ABEPBVQMediaPlaylistNavigatorPrivate@@XZ @ 202 NONAME ; class QMediaPlaylistNavigatorPrivate const * QMediaPlaylistNavigator::d_func(void) const
	?d_func@QMediaPlaylistProvider@@AAEPAVQMediaPlaylistProviderPrivate@@XZ @ 203 NONAME ; class QMediaPlaylistProviderPrivate * QMediaPlaylistProvider::d_func(void)
	?d_func@QMediaPlaylistProvider@@ABEPBVQMediaPlaylistProviderPrivate@@XZ @ 204 NONAME ; class QMediaPlaylistProviderPrivate const * QMediaPlaylistProvider::d_func(void) const
	?d_func@QMediaService@@AAEPAVQMediaServicePrivate@@XZ @ 205 NONAME ; class QMediaServicePrivate * QMediaService::d_func(void)
	?d_func@QMediaService@@ABEPBVQMediaServicePrivate@@XZ @ 206 NONAME ; class QMediaServicePrivate const * QMediaService::d_func(void) const
	?d_func@QVideoWidget@@AAEPAVQVideoWidgetPrivate@@XZ @ 207 NONAME ; class QVideoWidgetPrivate * QVideoWidget::d_func(void)
	?d_func@QVideoWidget@@ABEPBVQVideoWidgetPrivate@@XZ @ 208 NONAME ; class QVideoWidgetPrivate const * QVideoWidget::d_func(void) const
	?dataSize@QMediaResource@@QBE_JXZ @ 209 NONAME ; long long QMediaResource::dataSize(void) const
	?defaultServiceProvider@QMediaServiceProvider@@SAPAV1@XZ @ 210 NONAME ; class QMediaServiceProvider * QMediaServiceProvider::defaultServiceProvider(void)
	?device@QMediaServiceProviderHint@@QBE?AVQByteArray@@XZ @ 211 NONAME ; class QByteArray QMediaServiceProviderHint::device(void) const
	?deviceDescription@QMediaServiceProvider@@UAE?AVQString@@ABVQByteArray@@0@Z @ 212 NONAME ; class QString QMediaServiceProvider::deviceDescription(class QByteArray const &, class QByteArray const &)
	?devices@QMediaServiceProvider@@UBE?AV?$QList@VQByteArray@@@@ABVQByteArray@@@Z @ 213 NONAME ; class QList<class QByteArray> QMediaServiceProvider::devices(class QByteArray const &) const
	?devicesChanged@QVideoDeviceControl@@IAEXXZ @ 214 NONAME ; void QVideoDeviceControl::devicesChanged(void)
	?duration@QMediaPlayer@@QBE_JXZ @ 215 NONAME ; long long QMediaPlayer::duration(void) const
	?durationChanged@QMediaPlayer@@IAEX_J@Z @ 216 NONAME ; void QMediaPlayer::durationChanged(long long)
	?durationChanged@QMediaPlayerControl@@IAEX_J@Z @ 217 NONAME ; void QMediaPlayerControl::durationChanged(long long)
	?earliestTime@QMediaTimeRange@@QBE_JXZ @ 218 NONAME ; long long QMediaTimeRange::earliestTime(void) const
	?end@QMediaTimeInterval@@QBE_JXZ @ 219 NONAME ; long long QMediaTimeInterval::end(void) const
	?error@QMediaPlayer@@IAEXW4Error@1@@Z @ 220 NONAME ; void QMediaPlayer::error(enum QMediaPlayer::Error)
	?error@QMediaPlayer@@QBE?AW4Error@1@XZ @ 221 NONAME ; enum QMediaPlayer::Error QMediaPlayer::error(void) const
	?error@QMediaPlayerControl@@IAEXHABVQString@@@Z @ 222 NONAME ; void QMediaPlayerControl::error(int, class QString const &)
	?error@QMediaPlaylist@@QBE?AW4Error@1@XZ @ 223 NONAME ; enum QMediaPlaylist::Error QMediaPlaylist::error(void) const
	?errorString@QMediaPlayer@@QBE?AVQString@@XZ @ 224 NONAME ; class QString QMediaPlayer::errorString(void) const
	?errorString@QMediaPlaylist@@QBE?AVQString@@XZ @ 225 NONAME ; class QString QMediaPlaylist::errorString(void) const
	?event@QGraphicsVideoItem@@MAE_NPAVQEvent@@@Z @ 226 NONAME ; bool QGraphicsVideoItem::event(class QEvent *)
	?event@QVideoWidget@@MAE_NPAVQEvent@@@Z @ 227 NONAME ; bool QVideoWidget::event(class QEvent *)
	?extendedMetaData@QMediaObject@@QBE?AVQVariant@@ABVQString@@@Z @ 228 NONAME ; class QVariant QMediaObject::extendedMetaData(class QString const &) const
	?features@QMediaServiceProviderHint@@QBE?AV?$QFlags@W4Feature@QMediaServiceProviderHint@@@@XZ @ 229 NONAME ; class QFlags<enum QMediaServiceProviderHint::Feature> QMediaServiceProviderHint::features(void) const
	?frameChanged@QPainterVideoSurface@@IAEXXZ @ 230 NONAME ; void QPainterVideoSurface::frameChanged(void)
	?fullScreenChanged@QVideoWidget@@IAEX_N@Z @ 231 NONAME ; void QVideoWidget::fullScreenChanged(bool)
	?fullScreenChanged@QVideoWidgetControl@@IAEX_N@Z @ 232 NONAME ; void QVideoWidgetControl::fullScreenChanged(bool)
	?fullScreenChanged@QVideoWindowControl@@IAEX_N@Z @ 233 NONAME ; void QVideoWindowControl::fullScreenChanged(bool)
	?getStaticMetaObject@QGraphicsVideoItem@@SAABUQMetaObject@@XZ @ 234 NONAME ; struct QMetaObject const & QGraphicsVideoItem::getStaticMetaObject(void)
	?getStaticMetaObject@QLocalMediaPlaylistProvider@@SAABUQMetaObject@@XZ @ 235 NONAME ; struct QMetaObject const & QLocalMediaPlaylistProvider::getStaticMetaObject(void)
	?getStaticMetaObject@QMediaControl@@SAABUQMetaObject@@XZ @ 236 NONAME ; struct QMetaObject const & QMediaControl::getStaticMetaObject(void)
	?getStaticMetaObject@QMediaObject@@SAABUQMetaObject@@XZ @ 237 NONAME ; struct QMetaObject const & QMediaObject::getStaticMetaObject(void)
	?getStaticMetaObject@QMediaPlayer@@SAABUQMetaObject@@XZ @ 238 NONAME ; struct QMetaObject const & QMediaPlayer::getStaticMetaObject(void)
	?getStaticMetaObject@QMediaPlayerControl@@SAABUQMetaObject@@XZ @ 239 NONAME ; struct QMetaObject const & QMediaPlayerControl::getStaticMetaObject(void)
	?getStaticMetaObject@QMediaPlaylist@@SAABUQMetaObject@@XZ @ 240 NONAME ; struct QMetaObject const & QMediaPlaylist::getStaticMetaObject(void)
	?getStaticMetaObject@QMediaPlaylistControl@@SAABUQMetaObject@@XZ @ 241 NONAME ; struct QMetaObject const & QMediaPlaylistControl::getStaticMetaObject(void)
	?getStaticMetaObject@QMediaPlaylistIOPlugin@@SAABUQMetaObject@@XZ @ 242 NONAME ; struct QMetaObject const & QMediaPlaylistIOPlugin::getStaticMetaObject(void)
	?getStaticMetaObject@QMediaPlaylistNavigator@@SAABUQMetaObject@@XZ @ 243 NONAME ; struct QMetaObject const & QMediaPlaylistNavigator::getStaticMetaObject(void)
	?getStaticMetaObject@QMediaPlaylistProvider@@SAABUQMetaObject@@XZ @ 244 NONAME ; struct QMetaObject const & QMediaPlaylistProvider::getStaticMetaObject(void)
	?getStaticMetaObject@QMediaService@@SAABUQMetaObject@@XZ @ 245 NONAME ; struct QMetaObject const & QMediaService::getStaticMetaObject(void)
	?getStaticMetaObject@QMediaServiceProvider@@SAABUQMetaObject@@XZ @ 246 NONAME ; struct QMetaObject const & QMediaServiceProvider::getStaticMetaObject(void)
	?getStaticMetaObject@QMediaServiceProviderPlugin@@SAABUQMetaObject@@XZ @ 247 NONAME ; struct QMetaObject const & QMediaServiceProviderPlugin::getStaticMetaObject(void)
	?getStaticMetaObject@QMetaDataControl@@SAABUQMetaObject@@XZ @ 248 NONAME ; struct QMetaObject const & QMetaDataControl::getStaticMetaObject(void)
	?getStaticMetaObject@QPainterVideoSurface@@SAABUQMetaObject@@XZ @ 249 NONAME ; struct QMetaObject const & QPainterVideoSurface::getStaticMetaObject(void)
	?getStaticMetaObject@QSoundEffect@@SAABUQMetaObject@@XZ @ 250 NONAME ; struct QMetaObject const & QSoundEffect::getStaticMetaObject(void)
	?getStaticMetaObject@QVideoDeviceControl@@SAABUQMetaObject@@XZ @ 251 NONAME ; struct QMetaObject const & QVideoDeviceControl::getStaticMetaObject(void)
	?getStaticMetaObject@QVideoOutputControl@@SAABUQMetaObject@@XZ @ 252 NONAME ; struct QMetaObject const & QVideoOutputControl::getStaticMetaObject(void)
	?getStaticMetaObject@QVideoRendererControl@@SAABUQMetaObject@@XZ @ 253 NONAME ; struct QMetaObject const & QVideoRendererControl::getStaticMetaObject(void)
	?getStaticMetaObject@QVideoWidget@@SAABUQMetaObject@@XZ @ 254 NONAME ; struct QMetaObject const & QVideoWidget::getStaticMetaObject(void)
	?getStaticMetaObject@QVideoWidgetControl@@SAABUQMetaObject@@XZ @ 255 NONAME ; struct QMetaObject const & QVideoWidgetControl::getStaticMetaObject(void)
	?getStaticMetaObject@QVideoWindowControl@@SAABUQMetaObject@@XZ @ 256 NONAME ; struct QMetaObject const & QVideoWindowControl::getStaticMetaObject(void)
	?hasSupport@QMediaPlayer@@SA?AW4SupportEstimate@QtMediaServices@@ABVQString@@ABVQStringList@@V?$QFlags@W4Flag@QMediaPlayer@@@@@Z @ 257 NONAME ; enum QtMediaServices::SupportEstimate QMediaPlayer::hasSupport(class QString const &, class QStringList const &, class QFlags<enum QMediaPlayer::Flag>)
	?hasSupport@QMediaServiceProvider@@UBE?AW4SupportEstimate@QtMediaServices@@ABVQByteArray@@ABVQString@@ABVQStringList@@H@Z @ 258 NONAME ; enum QtMediaServices::SupportEstimate QMediaServiceProvider::hasSupport(class QByteArray const &, class QString const &, class QStringList const &, int) const
	?hideEvent@QVideoWidget@@MAEXPAVQHideEvent@@@Z @ 259 NONAME ; void QVideoWidget::hideEvent(class QHideEvent *)
	?hue@QPainterVideoSurface@@QBEHXZ @ 260 NONAME ; int QPainterVideoSurface::hue(void) const
	?hue@QVideoWidget@@QBEHXZ @ 261 NONAME ; int QVideoWidget::hue(void) const
	?hueChanged@QVideoWidget@@IAEXH@Z @ 262 NONAME ; void QVideoWidget::hueChanged(int)
	?hueChanged@QVideoWidgetControl@@IAEXH@Z @ 263 NONAME ; void QVideoWidgetControl::hueChanged(int)
	?hueChanged@QVideoWindowControl@@IAEXH@Z @ 264 NONAME ; void QVideoWindowControl::hueChanged(int)
	?insertMedia@QLocalMediaPlaylistProvider@@UAE_NHABV?$QList@VQMediaContent@@@@@Z @ 265 NONAME ; bool QLocalMediaPlaylistProvider::insertMedia(int, class QList<class QMediaContent> const &)
	?insertMedia@QLocalMediaPlaylistProvider@@UAE_NHABVQMediaContent@@@Z @ 266 NONAME ; bool QLocalMediaPlaylistProvider::insertMedia(int, class QMediaContent const &)
	?insertMedia@QMediaPlaylist@@QAE_NHABV?$QList@VQMediaContent@@@@@Z @ 267 NONAME ; bool QMediaPlaylist::insertMedia(int, class QList<class QMediaContent> const &)
	?insertMedia@QMediaPlaylist@@QAE_NHABVQMediaContent@@@Z @ 268 NONAME ; bool QMediaPlaylist::insertMedia(int, class QMediaContent const &)
	?insertMedia@QMediaPlaylistProvider@@UAE_NHABV?$QList@VQMediaContent@@@@@Z @ 269 NONAME ; bool QMediaPlaylistProvider::insertMedia(int, class QList<class QMediaContent> const &)
	?insertMedia@QMediaPlaylistProvider@@UAE_NHABVQMediaContent@@@Z @ 270 NONAME ; bool QMediaPlaylistProvider::insertMedia(int, class QMediaContent const &)
	?intervals@QMediaTimeRange@@QBE?AV?$QList@VQMediaTimeInterval@@@@XZ @ 271 NONAME ; class QList<class QMediaTimeInterval> QMediaTimeRange::intervals(void) const
	?isAudioAvailable@QMediaPlayer@@QBE_NXZ @ 272 NONAME ; bool QMediaPlayer::isAudioAvailable(void) const
	?isAvailable@QMediaObject@@UBE_NXZ @ 273 NONAME ; bool QMediaObject::isAvailable(void) const
	?isContinuous@QMediaTimeRange@@QBE_NXZ @ 274 NONAME ; bool QMediaTimeRange::isContinuous(void) const
	?isEmpty@QMediaPlaylist@@QBE_NXZ @ 275 NONAME ; bool QMediaPlaylist::isEmpty(void) const
	?isEmpty@QMediaTimeRange@@QBE_NXZ @ 276 NONAME ; bool QMediaTimeRange::isEmpty(void) const
	?isFormatSupported@QPainterVideoSurface@@QBE_NABVQVideoSurfaceFormat@@PAV2@@Z @ 277 NONAME ; bool QPainterVideoSurface::isFormatSupported(class QVideoSurfaceFormat const &, class QVideoSurfaceFormat *) const
	?isMetaDataAvailable@QMediaObject@@QBE_NXZ @ 278 NONAME ; bool QMediaObject::isMetaDataAvailable(void) const
	?isMetaDataWritable@QMediaObject@@QBE_NXZ @ 279 NONAME ; bool QMediaObject::isMetaDataWritable(void) const
	?isMuted@QMediaPlayer@@QBE_NXZ @ 280 NONAME ; bool QMediaPlayer::isMuted(void) const
	?isMuted@QSoundEffect@@QBE_NXZ @ 281 NONAME ; bool QSoundEffect::isMuted(void) const
	?isNormal@QMediaTimeInterval@@QBE_NXZ @ 282 NONAME ; bool QMediaTimeInterval::isNormal(void) const
	?isNull@QMediaContent@@QBE_NXZ @ 283 NONAME ; bool QMediaContent::isNull(void) const
	?isNull@QMediaResource@@QBE_NXZ @ 284 NONAME ; bool QMediaResource::isNull(void) const
	?isNull@QMediaServiceProviderHint@@QBE_NXZ @ 285 NONAME ; bool QMediaServiceProviderHint::isNull(void) const
	?isReadOnly@QLocalMediaPlaylistProvider@@UBE_NXZ @ 286 NONAME ; bool QLocalMediaPlaylistProvider::isReadOnly(void) const
	?isReadOnly@QMediaPlaylist@@QBE_NXZ @ 287 NONAME ; bool QMediaPlaylist::isReadOnly(void) const
	?isReadOnly@QMediaPlaylistProvider@@UBE_NXZ @ 288 NONAME ; bool QMediaPlaylistProvider::isReadOnly(void) const
	?isReady@QPainterVideoSurface@@QBE_NXZ @ 289 NONAME ; bool QPainterVideoSurface::isReady(void) const
	?isSeekable@QMediaPlayer@@QBE_NXZ @ 290 NONAME ; bool QMediaPlayer::isSeekable(void) const
	?isVideoAvailable@QMediaPlayer@@QBE_NXZ @ 291 NONAME ; bool QMediaPlayer::isVideoAvailable(void) const
	?itemAt@QMediaPlaylistNavigator@@QBE?AVQMediaContent@@H@Z @ 292 NONAME ; class QMediaContent QMediaPlaylistNavigator::itemAt(int) const
	?itemChange@QGraphicsVideoItem@@MAE?AVQVariant@@W4GraphicsItemChange@QGraphicsItem@@ABV2@@Z @ 293 NONAME ; class QVariant QGraphicsVideoItem::itemChange(enum QGraphicsItem::GraphicsItemChange, class QVariant const &)
	?jump@QMediaPlaylistNavigator@@QAEXH@Z @ 294 NONAME ; void QMediaPlaylistNavigator::jump(int)
	?language@QMediaResource@@QBE?AVQString@@XZ @ 295 NONAME ; class QString QMediaResource::language(void) const
	?latestTime@QMediaTimeRange@@QBE_JXZ @ 296 NONAME ; long long QMediaTimeRange::latestTime(void) const
	?load@QMediaPlaylist@@QAEXABVQUrl@@PBD@Z @ 297 NONAME ; void QMediaPlaylist::load(class QUrl const &, char const *)
	?load@QMediaPlaylist@@QAEXPAVQIODevice@@PBD@Z @ 298 NONAME ; void QMediaPlaylist::load(class QIODevice *, char const *)
	?load@QMediaPlaylistProvider@@UAE_NABVQUrl@@PBD@Z @ 299 NONAME ; bool QMediaPlaylistProvider::load(class QUrl const &, char const *)
	?load@QMediaPlaylistProvider@@UAE_NPAVQIODevice@@PBD@Z @ 300 NONAME ; bool QMediaPlaylistProvider::load(class QIODevice *, char const *)
	?loadFailed@QMediaPlaylist@@IAEXXZ @ 301 NONAME ; void QMediaPlaylist::loadFailed(void)
	?loadFailed@QMediaPlaylistProvider@@IAEXW4Error@QMediaPlaylist@@ABVQString@@@Z @ 302 NONAME ; void QMediaPlaylistProvider::loadFailed(enum QMediaPlaylist::Error, class QString const &)
	?loaded@QMediaPlaylist@@IAEXXZ @ 303 NONAME ; void QMediaPlaylist::loaded(void)
	?loaded@QMediaPlaylistProvider@@IAEXXZ @ 304 NONAME ; void QMediaPlaylistProvider::loaded(void)
	?loops@QSoundEffect@@QBEHXZ @ 305 NONAME ; int QSoundEffect::loops(void) const
	?loopsChanged@QSoundEffect@@IAEXXZ @ 306 NONAME ; void QSoundEffect::loopsChanged(void)
	?media@QLocalMediaPlaylistProvider@@UBE?AVQMediaContent@@H@Z @ 307 NONAME ; class QMediaContent QLocalMediaPlaylistProvider::media(int) const
	?media@QMediaPlayer@@QBE?AVQMediaContent@@XZ @ 308 NONAME ; class QMediaContent QMediaPlayer::media(void) const
	?media@QMediaPlaylist@@QBE?AVQMediaContent@@H@Z @ 309 NONAME ; class QMediaContent QMediaPlaylist::media(int) const
	?mediaAboutToBeInserted@QMediaPlaylist@@IAEXHH@Z @ 310 NONAME ; void QMediaPlaylist::mediaAboutToBeInserted(int, int)
	?mediaAboutToBeInserted@QMediaPlaylistProvider@@IAEXHH@Z @ 311 NONAME ; void QMediaPlaylistProvider::mediaAboutToBeInserted(int, int)
	?mediaAboutToBeRemoved@QMediaPlaylist@@IAEXHH@Z @ 312 NONAME ; void QMediaPlaylist::mediaAboutToBeRemoved(int, int)
	?mediaAboutToBeRemoved@QMediaPlaylistProvider@@IAEXHH@Z @ 313 NONAME ; void QMediaPlaylistProvider::mediaAboutToBeRemoved(int, int)
	?mediaChanged@QMediaPlayer@@IAEXABVQMediaContent@@@Z @ 314 NONAME ; void QMediaPlayer::mediaChanged(class QMediaContent const &)
	?mediaChanged@QMediaPlayerControl@@IAEXABVQMediaContent@@@Z @ 315 NONAME ; void QMediaPlayerControl::mediaChanged(class QMediaContent const &)
	?mediaChanged@QMediaPlaylist@@IAEXHH@Z @ 316 NONAME ; void QMediaPlaylist::mediaChanged(int, int)
	?mediaChanged@QMediaPlaylistProvider@@IAEXHH@Z @ 317 NONAME ; void QMediaPlaylistProvider::mediaChanged(int, int)
	?mediaCount@QLocalMediaPlaylistProvider@@UBEHXZ @ 318 NONAME ; int QLocalMediaPlaylistProvider::mediaCount(void) const
	?mediaCount@QMediaPlaylist@@QBEHXZ @ 319 NONAME ; int QMediaPlaylist::mediaCount(void) const
	?mediaInserted@QMediaPlaylist@@IAEXHH@Z @ 320 NONAME ; void QMediaPlaylist::mediaInserted(int, int)
	?mediaInserted@QMediaPlaylistProvider@@IAEXHH@Z @ 321 NONAME ; void QMediaPlaylistProvider::mediaInserted(int, int)
	?mediaObject@QGraphicsVideoItem@@QBEPAVQMediaObject@@XZ @ 322 NONAME ; class QMediaObject * QGraphicsVideoItem::mediaObject(void) const
	?mediaObject@QMediaPlaylist@@QBEPAVQMediaObject@@XZ @ 323 NONAME ; class QMediaObject * QMediaPlaylist::mediaObject(void) const
	?mediaObject@QVideoWidget@@QBEPAVQMediaObject@@XZ @ 324 NONAME ; class QMediaObject * QVideoWidget::mediaObject(void) const
	?mediaRemoved@QMediaPlaylist@@IAEXHH@Z @ 325 NONAME ; void QMediaPlaylist::mediaRemoved(int, int)
	?mediaRemoved@QMediaPlaylistProvider@@IAEXHH@Z @ 326 NONAME ; void QMediaPlaylistProvider::mediaRemoved(int, int)
	?mediaStatus@QMediaPlayer@@QBE?AW4MediaStatus@1@XZ @ 327 NONAME ; enum QMediaPlayer::MediaStatus QMediaPlayer::mediaStatus(void) const
	?mediaStatusChanged@QMediaPlayer@@IAEXW4MediaStatus@1@@Z @ 328 NONAME ; void QMediaPlayer::mediaStatusChanged(enum QMediaPlayer::MediaStatus)
	?mediaStatusChanged@QMediaPlayerControl@@IAEXW4MediaStatus@QMediaPlayer@@@Z @ 329 NONAME ; void QMediaPlayerControl::mediaStatusChanged(enum QMediaPlayer::MediaStatus)
	?mediaStream@QMediaPlayer@@QBEPBVQIODevice@@XZ @ 330 NONAME ; class QIODevice const * QMediaPlayer::mediaStream(void) const
	?metaData@QMediaObject@@QBE?AVQVariant@@W4MetaData@QtMediaServices@@@Z @ 331 NONAME ; class QVariant QMediaObject::metaData(enum QtMediaServices::MetaData) const
	?metaDataAvailableChanged@QMediaObject@@IAEX_N@Z @ 332 NONAME ; void QMediaObject::metaDataAvailableChanged(bool)
	?metaDataAvailableChanged@QMetaDataControl@@IAEX_N@Z @ 333 NONAME ; void QMetaDataControl::metaDataAvailableChanged(bool)
	?metaDataChanged@QMediaObject@@IAEXXZ @ 334 NONAME ; void QMediaObject::metaDataChanged(void)
	?metaDataChanged@QMetaDataControl@@IAEXXZ @ 335 NONAME ; void QMetaDataControl::metaDataChanged(void)
	?metaDataWritableChanged@QMediaObject@@IAEX_N@Z @ 336 NONAME ; void QMediaObject::metaDataWritableChanged(bool)
	?metaObject@QGraphicsVideoItem@@UBEPBUQMetaObject@@XZ @ 337 NONAME ; struct QMetaObject const * QGraphicsVideoItem::metaObject(void) const
	?metaObject@QLocalMediaPlaylistProvider@@UBEPBUQMetaObject@@XZ @ 338 NONAME ; struct QMetaObject const * QLocalMediaPlaylistProvider::metaObject(void) const
	?metaObject@QMediaControl@@UBEPBUQMetaObject@@XZ @ 339 NONAME ; struct QMetaObject const * QMediaControl::metaObject(void) const
	?metaObject@QMediaObject@@UBEPBUQMetaObject@@XZ @ 340 NONAME ; struct QMetaObject const * QMediaObject::metaObject(void) const
	?metaObject@QMediaPlayer@@UBEPBUQMetaObject@@XZ @ 341 NONAME ; struct QMetaObject const * QMediaPlayer::metaObject(void) const
	?metaObject@QMediaPlayerControl@@UBEPBUQMetaObject@@XZ @ 342 NONAME ; struct QMetaObject const * QMediaPlayerControl::metaObject(void) const
	?metaObject@QMediaPlaylist@@UBEPBUQMetaObject@@XZ @ 343 NONAME ; struct QMetaObject const * QMediaPlaylist::metaObject(void) const
	?metaObject@QMediaPlaylistControl@@UBEPBUQMetaObject@@XZ @ 344 NONAME ; struct QMetaObject const * QMediaPlaylistControl::metaObject(void) const
	?metaObject@QMediaPlaylistIOPlugin@@UBEPBUQMetaObject@@XZ @ 345 NONAME ; struct QMetaObject const * QMediaPlaylistIOPlugin::metaObject(void) const
	?metaObject@QMediaPlaylistNavigator@@UBEPBUQMetaObject@@XZ @ 346 NONAME ; struct QMetaObject const * QMediaPlaylistNavigator::metaObject(void) const
	?metaObject@QMediaPlaylistProvider@@UBEPBUQMetaObject@@XZ @ 347 NONAME ; struct QMetaObject const * QMediaPlaylistProvider::metaObject(void) const
	?metaObject@QMediaService@@UBEPBUQMetaObject@@XZ @ 348 NONAME ; struct QMetaObject const * QMediaService::metaObject(void) const
	?metaObject@QMediaServiceProvider@@UBEPBUQMetaObject@@XZ @ 349 NONAME ; struct QMetaObject const * QMediaServiceProvider::metaObject(void) const
	?metaObject@QMediaServiceProviderPlugin@@UBEPBUQMetaObject@@XZ @ 350 NONAME ; struct QMetaObject const * QMediaServiceProviderPlugin::metaObject(void) const
	?metaObject@QMetaDataControl@@UBEPBUQMetaObject@@XZ @ 351 NONAME ; struct QMetaObject const * QMetaDataControl::metaObject(void) const
	?metaObject@QPainterVideoSurface@@UBEPBUQMetaObject@@XZ @ 352 NONAME ; struct QMetaObject const * QPainterVideoSurface::metaObject(void) const
	?metaObject@QSoundEffect@@UBEPBUQMetaObject@@XZ @ 353 NONAME ; struct QMetaObject const * QSoundEffect::metaObject(void) const
	?metaObject@QVideoDeviceControl@@UBEPBUQMetaObject@@XZ @ 354 NONAME ; struct QMetaObject const * QVideoDeviceControl::metaObject(void) const
	?metaObject@QVideoOutputControl@@UBEPBUQMetaObject@@XZ @ 355 NONAME ; struct QMetaObject const * QVideoOutputControl::metaObject(void) const
	?metaObject@QVideoRendererControl@@UBEPBUQMetaObject@@XZ @ 356 NONAME ; struct QMetaObject const * QVideoRendererControl::metaObject(void) const
	?metaObject@QVideoWidget@@UBEPBUQMetaObject@@XZ @ 357 NONAME ; struct QMetaObject const * QVideoWidget::metaObject(void) const
	?metaObject@QVideoWidgetControl@@UBEPBUQMetaObject@@XZ @ 358 NONAME ; struct QMetaObject const * QVideoWidgetControl::metaObject(void) const
	?metaObject@QVideoWindowControl@@UBEPBUQMetaObject@@XZ @ 359 NONAME ; struct QMetaObject const * QVideoWindowControl::metaObject(void) const
	?mimeType@QMediaResource@@QBE?AVQString@@XZ @ 360 NONAME ; class QString QMediaResource::mimeType(void) const
	?mimeType@QMediaServiceProviderHint@@QBE?AVQString@@XZ @ 361 NONAME ; class QString QMediaServiceProviderHint::mimeType(void) const
	?moveEvent@QVideoWidget@@MAEXPAVQMoveEvent@@@Z @ 362 NONAME ; void QVideoWidget::moveEvent(class QMoveEvent *)
	?mutedChanged@QMediaPlayer@@IAEX_N@Z @ 363 NONAME ; void QMediaPlayer::mutedChanged(bool)
	?mutedChanged@QMediaPlayerControl@@IAEX_N@Z @ 364 NONAME ; void QMediaPlayerControl::mutedChanged(bool)
	?mutedChanged@QSoundEffect@@IAEXXZ @ 365 NONAME ; void QSoundEffect::mutedChanged(void)
	?nativeSize@QGraphicsVideoItem@@QBE?AVQSizeF@@XZ @ 366 NONAME ; class QSizeF QGraphicsVideoItem::nativeSize(void) const
	?nativeSizeChanged@QGraphicsVideoItem@@IAEXABVQSizeF@@@Z @ 367 NONAME ; void QGraphicsVideoItem::nativeSizeChanged(class QSizeF const &)
	?nativeSizeChanged@QVideoWindowControl@@IAEXXZ @ 368 NONAME ; void QVideoWindowControl::nativeSizeChanged(void)
	?next@QMediaPlaylist@@QAEXXZ @ 369 NONAME ; void QMediaPlaylist::next(void)
	?next@QMediaPlaylistNavigator@@QAEXXZ @ 370 NONAME ; void QMediaPlaylistNavigator::next(void)
	?nextIndex@QMediaPlaylist@@QBEHH@Z @ 371 NONAME ; int QMediaPlaylist::nextIndex(int) const
	?nextIndex@QMediaPlaylistNavigator@@QBEHH@Z @ 372 NONAME ; int QMediaPlaylistNavigator::nextIndex(int) const
	?nextItem@QMediaPlaylistNavigator@@QBE?AVQMediaContent@@H@Z @ 373 NONAME ; class QMediaContent QMediaPlaylistNavigator::nextItem(int) const
	?normalized@QMediaTimeInterval@@QBE?AV1@XZ @ 374 NONAME ; class QMediaTimeInterval QMediaTimeInterval::normalized(void) const
	?notifyInterval@QMediaObject@@QBEHXZ @ 375 NONAME ; int QMediaObject::notifyInterval(void) const
	?notifyIntervalChanged@QMediaObject@@IAEXH@Z @ 376 NONAME ; void QMediaObject::notifyIntervalChanged(int)
	?offset@QGraphicsVideoItem@@QBE?AVQPointF@@XZ @ 377 NONAME ; class QPointF QGraphicsVideoItem::offset(void) const
	?paint@QGraphicsVideoItem@@UAEXPAVQPainter@@PBVQStyleOptionGraphicsItem@@PAVQWidget@@@Z @ 378 NONAME ; void QGraphicsVideoItem::paint(class QPainter *, class QStyleOptionGraphicsItem const *, class QWidget *)
	?paint@QPainterVideoSurface@@QAEXPAVQPainter@@ABVQRectF@@1@Z @ 379 NONAME ; void QPainterVideoSurface::paint(class QPainter *, class QRectF const &, class QRectF const &)
	?paintEvent@QVideoWidget@@MAEXPAVQPaintEvent@@@Z @ 380 NONAME ; void QVideoWidget::paintEvent(class QPaintEvent *)
	?pause@QMediaPlayer@@QAEXXZ @ 381 NONAME ; void QMediaPlayer::pause(void)
	?play@QMediaPlayer@@QAEXXZ @ 382 NONAME ; void QMediaPlayer::play(void)
	?play@QSoundEffect@@QAEXXZ @ 383 NONAME ; void QSoundEffect::play(void)
	?playbackMode@QMediaPlaylist@@QBE?AW4PlaybackMode@1@XZ @ 384 NONAME ; enum QMediaPlaylist::PlaybackMode QMediaPlaylist::playbackMode(void) const
	?playbackMode@QMediaPlaylistNavigator@@QBE?AW4PlaybackMode@QMediaPlaylist@@XZ @ 385 NONAME ; enum QMediaPlaylist::PlaybackMode QMediaPlaylistNavigator::playbackMode(void) const
	?playbackModeChanged@QMediaPlaylist@@IAEXW4PlaybackMode@1@@Z @ 386 NONAME ; void QMediaPlaylist::playbackModeChanged(enum QMediaPlaylist::PlaybackMode)
	?playbackModeChanged@QMediaPlaylistControl@@IAEXW4PlaybackMode@QMediaPlaylist@@@Z @ 387 NONAME ; void QMediaPlaylistControl::playbackModeChanged(enum QMediaPlaylist::PlaybackMode)
	?playbackModeChanged@QMediaPlaylistNavigator@@IAEXW4PlaybackMode@QMediaPlaylist@@@Z @ 388 NONAME ; void QMediaPlaylistNavigator::playbackModeChanged(enum QMediaPlaylist::PlaybackMode)
	?playbackRate@QMediaPlayer@@QBEMXZ @ 389 NONAME ; float QMediaPlayer::playbackRate(void) const
	?playbackRateChanged@QMediaPlayer@@IAEXM@Z @ 390 NONAME ; void QMediaPlayer::playbackRateChanged(float)
	?playbackRateChanged@QMediaPlayerControl@@IAEXM@Z @ 391 NONAME ; void QMediaPlayerControl::playbackRateChanged(float)
	?playlist@QMediaPlaylistNavigator@@QBEPAVQMediaPlaylistProvider@@XZ @ 392 NONAME ; class QMediaPlaylistProvider * QMediaPlaylistNavigator::playlist(void) const
	?playlistProviderChanged@QMediaPlaylistControl@@IAEXXZ @ 393 NONAME ; void QMediaPlaylistControl::playlistProviderChanged(void)
	?position@QMediaPlayer@@QBE_JXZ @ 394 NONAME ; long long QMediaPlayer::position(void) const
	?positionChanged@QMediaPlayer@@IAEX_J@Z @ 395 NONAME ; void QMediaPlayer::positionChanged(long long)
	?positionChanged@QMediaPlayerControl@@IAEX_J@Z @ 396 NONAME ; void QMediaPlayerControl::positionChanged(long long)
	?present@QPainterVideoSurface@@UAE_NABVQVideoFrame@@@Z @ 397 NONAME ; bool QPainterVideoSurface::present(class QVideoFrame const &)
	?previous@QMediaPlaylist@@QAEXXZ @ 398 NONAME ; void QMediaPlaylist::previous(void)
	?previous@QMediaPlaylistNavigator@@QAEXXZ @ 399 NONAME ; void QMediaPlaylistNavigator::previous(void)
	?previousIndex@QMediaPlaylist@@QBEHH@Z @ 400 NONAME ; int QMediaPlaylist::previousIndex(int) const
	?previousIndex@QMediaPlaylistNavigator@@QBEHH@Z @ 401 NONAME ; int QMediaPlaylistNavigator::previousIndex(int) const
	?previousItem@QMediaPlaylistNavigator@@QBE?AVQMediaContent@@H@Z @ 402 NONAME ; class QMediaContent QMediaPlaylistNavigator::previousItem(int) const
	?qt_metacall@QGraphicsVideoItem@@UAEHW4Call@QMetaObject@@HPAPAX@Z @ 403 NONAME ; int QGraphicsVideoItem::qt_metacall(enum QMetaObject::Call, int, void * *)
	?qt_metacall@QLocalMediaPlaylistProvider@@UAEHW4Call@QMetaObject@@HPAPAX@Z @ 404 NONAME ; int QLocalMediaPlaylistProvider::qt_metacall(enum QMetaObject::Call, int, void * *)
	?qt_metacall@QMediaControl@@UAEHW4Call@QMetaObject@@HPAPAX@Z @ 405 NONAME ; int QMediaControl::qt_metacall(enum QMetaObject::Call, int, void * *)
	?qt_metacall@QMediaObject@@UAEHW4Call@QMetaObject@@HPAPAX@Z @ 406 NONAME ; int QMediaObject::qt_metacall(enum QMetaObject::Call, int, void * *)
	?qt_metacall@QMediaPlayer@@UAEHW4Call@QMetaObject@@HPAPAX@Z @ 407 NONAME ; int QMediaPlayer::qt_metacall(enum QMetaObject::Call, int, void * *)
	?qt_metacall@QMediaPlayerControl@@UAEHW4Call@QMetaObject@@HPAPAX@Z @ 408 NONAME ; int QMediaPlayerControl::qt_metacall(enum QMetaObject::Call, int, void * *)
	?qt_metacall@QMediaPlaylist@@UAEHW4Call@QMetaObject@@HPAPAX@Z @ 409 NONAME ; int QMediaPlaylist::qt_metacall(enum QMetaObject::Call, int, void * *)
	?qt_metacall@QMediaPlaylistControl@@UAEHW4Call@QMetaObject@@HPAPAX@Z @ 410 NONAME ; int QMediaPlaylistControl::qt_metacall(enum QMetaObject::Call, int, void * *)
	?qt_metacall@QMediaPlaylistIOPlugin@@UAEHW4Call@QMetaObject@@HPAPAX@Z @ 411 NONAME ; int QMediaPlaylistIOPlugin::qt_metacall(enum QMetaObject::Call, int, void * *)
	?qt_metacall@QMediaPlaylistNavigator@@UAEHW4Call@QMetaObject@@HPAPAX@Z @ 412 NONAME ; int QMediaPlaylistNavigator::qt_metacall(enum QMetaObject::Call, int, void * *)
	?qt_metacall@QMediaPlaylistProvider@@UAEHW4Call@QMetaObject@@HPAPAX@Z @ 413 NONAME ; int QMediaPlaylistProvider::qt_metacall(enum QMetaObject::Call, int, void * *)
	?qt_metacall@QMediaService@@UAEHW4Call@QMetaObject@@HPAPAX@Z @ 414 NONAME ; int QMediaService::qt_metacall(enum QMetaObject::Call, int, void * *)
	?qt_metacall@QMediaServiceProvider@@UAEHW4Call@QMetaObject@@HPAPAX@Z @ 415 NONAME ; int QMediaServiceProvider::qt_metacall(enum QMetaObject::Call, int, void * *)
	?qt_metacall@QMediaServiceProviderPlugin@@UAEHW4Call@QMetaObject@@HPAPAX@Z @ 416 NONAME ; int QMediaServiceProviderPlugin::qt_metacall(enum QMetaObject::Call, int, void * *)
	?qt_metacall@QMetaDataControl@@UAEHW4Call@QMetaObject@@HPAPAX@Z @ 417 NONAME ; int QMetaDataControl::qt_metacall(enum QMetaObject::Call, int, void * *)
	?qt_metacall@QPainterVideoSurface@@UAEHW4Call@QMetaObject@@HPAPAX@Z @ 418 NONAME ; int QPainterVideoSurface::qt_metacall(enum QMetaObject::Call, int, void * *)
	?qt_metacall@QSoundEffect@@UAEHW4Call@QMetaObject@@HPAPAX@Z @ 419 NONAME ; int QSoundEffect::qt_metacall(enum QMetaObject::Call, int, void * *)
	?qt_metacall@QVideoDeviceControl@@UAEHW4Call@QMetaObject@@HPAPAX@Z @ 420 NONAME ; int QVideoDeviceControl::qt_metacall(enum QMetaObject::Call, int, void * *)
	?qt_metacall@QVideoOutputControl@@UAEHW4Call@QMetaObject@@HPAPAX@Z @ 421 NONAME ; int QVideoOutputControl::qt_metacall(enum QMetaObject::Call, int, void * *)
	?qt_metacall@QVideoRendererControl@@UAEHW4Call@QMetaObject@@HPAPAX@Z @ 422 NONAME ; int QVideoRendererControl::qt_metacall(enum QMetaObject::Call, int, void * *)
	?qt_metacall@QVideoWidget@@UAEHW4Call@QMetaObject@@HPAPAX@Z @ 423 NONAME ; int QVideoWidget::qt_metacall(enum QMetaObject::Call, int, void * *)
	?qt_metacall@QVideoWidgetControl@@UAEHW4Call@QMetaObject@@HPAPAX@Z @ 424 NONAME ; int QVideoWidgetControl::qt_metacall(enum QMetaObject::Call, int, void * *)
	?qt_metacall@QVideoWindowControl@@UAEHW4Call@QMetaObject@@HPAPAX@Z @ 425 NONAME ; int QVideoWindowControl::qt_metacall(enum QMetaObject::Call, int, void * *)
	?qt_metacast@QGraphicsVideoItem@@UAEPAXPBD@Z @ 426 NONAME ; void * QGraphicsVideoItem::qt_metacast(char const *)
	?qt_metacast@QLocalMediaPlaylistProvider@@UAEPAXPBD@Z @ 427 NONAME ; void * QLocalMediaPlaylistProvider::qt_metacast(char const *)
	?qt_metacast@QMediaControl@@UAEPAXPBD@Z @ 428 NONAME ; void * QMediaControl::qt_metacast(char const *)
	?qt_metacast@QMediaObject@@UAEPAXPBD@Z @ 429 NONAME ; void * QMediaObject::qt_metacast(char const *)
	?qt_metacast@QMediaPlayer@@UAEPAXPBD@Z @ 430 NONAME ; void * QMediaPlayer::qt_metacast(char const *)
	?qt_metacast@QMediaPlayerControl@@UAEPAXPBD@Z @ 431 NONAME ; void * QMediaPlayerControl::qt_metacast(char const *)
	?qt_metacast@QMediaPlaylist@@UAEPAXPBD@Z @ 432 NONAME ; void * QMediaPlaylist::qt_metacast(char const *)
	?qt_metacast@QMediaPlaylistControl@@UAEPAXPBD@Z @ 433 NONAME ; void * QMediaPlaylistControl::qt_metacast(char const *)
	?qt_metacast@QMediaPlaylistIOPlugin@@UAEPAXPBD@Z @ 434 NONAME ; void * QMediaPlaylistIOPlugin::qt_metacast(char const *)
	?qt_metacast@QMediaPlaylistNavigator@@UAEPAXPBD@Z @ 435 NONAME ; void * QMediaPlaylistNavigator::qt_metacast(char const *)
	?qt_metacast@QMediaPlaylistProvider@@UAEPAXPBD@Z @ 436 NONAME ; void * QMediaPlaylistProvider::qt_metacast(char const *)
	?qt_metacast@QMediaService@@UAEPAXPBD@Z @ 437 NONAME ; void * QMediaService::qt_metacast(char const *)
	?qt_metacast@QMediaServiceProvider@@UAEPAXPBD@Z @ 438 NONAME ; void * QMediaServiceProvider::qt_metacast(char const *)
	?qt_metacast@QMediaServiceProviderPlugin@@UAEPAXPBD@Z @ 439 NONAME ; void * QMediaServiceProviderPlugin::qt_metacast(char const *)
	?qt_metacast@QMetaDataControl@@UAEPAXPBD@Z @ 440 NONAME ; void * QMetaDataControl::qt_metacast(char const *)
	?qt_metacast@QPainterVideoSurface@@UAEPAXPBD@Z @ 441 NONAME ; void * QPainterVideoSurface::qt_metacast(char const *)
	?qt_metacast@QSoundEffect@@UAEPAXPBD@Z @ 442 NONAME ; void * QSoundEffect::qt_metacast(char const *)
	?qt_metacast@QVideoDeviceControl@@UAEPAXPBD@Z @ 443 NONAME ; void * QVideoDeviceControl::qt_metacast(char const *)
	?qt_metacast@QVideoOutputControl@@UAEPAXPBD@Z @ 444 NONAME ; void * QVideoOutputControl::qt_metacast(char const *)
	?qt_metacast@QVideoRendererControl@@UAEPAXPBD@Z @ 445 NONAME ; void * QVideoRendererControl::qt_metacast(char const *)
	?qt_metacast@QVideoWidget@@UAEPAXPBD@Z @ 446 NONAME ; void * QVideoWidget::qt_metacast(char const *)
	?qt_metacast@QVideoWidgetControl@@UAEPAXPBD@Z @ 447 NONAME ; void * QVideoWidgetControl::qt_metacast(char const *)
	?qt_metacast@QVideoWindowControl@@UAEPAXPBD@Z @ 448 NONAME ; void * QVideoWindowControl::qt_metacast(char const *)
	?removeInterval@QMediaTimeRange@@QAEXABVQMediaTimeInterval@@@Z @ 449 NONAME ; void QMediaTimeRange::removeInterval(class QMediaTimeInterval const &)
	?removeInterval@QMediaTimeRange@@QAEX_J0@Z @ 450 NONAME ; void QMediaTimeRange::removeInterval(long long, long long)
	?removeMedia@QLocalMediaPlaylistProvider@@UAE_NH@Z @ 451 NONAME ; bool QLocalMediaPlaylistProvider::removeMedia(int)
	?removeMedia@QLocalMediaPlaylistProvider@@UAE_NHH@Z @ 452 NONAME ; bool QLocalMediaPlaylistProvider::removeMedia(int, int)
	?removeMedia@QMediaPlaylist@@QAE_NH@Z @ 453 NONAME ; bool QMediaPlaylist::removeMedia(int)
	?removeMedia@QMediaPlaylist@@QAE_NHH@Z @ 454 NONAME ; bool QMediaPlaylist::removeMedia(int, int)
	?removeMedia@QMediaPlaylistProvider@@UAE_NH@Z @ 455 NONAME ; bool QMediaPlaylistProvider::removeMedia(int)
	?removeMedia@QMediaPlaylistProvider@@UAE_NHH@Z @ 456 NONAME ; bool QMediaPlaylistProvider::removeMedia(int, int)
	?removePropertyWatch@QMediaObject@@IAEXABVQByteArray@@@Z @ 457 NONAME ; void QMediaObject::removePropertyWatch(class QByteArray const &)
	?removeTimeRange@QMediaTimeRange@@QAEXABV1@@Z @ 458 NONAME ; void QMediaTimeRange::removeTimeRange(class QMediaTimeRange const &)
	?request@QMediaResource@@QBE?AVQNetworkRequest@@XZ @ 459 NONAME ; class QNetworkRequest QMediaResource::request(void) const
	?resizeEvent@QVideoWidget@@MAEXPAVQResizeEvent@@@Z @ 460 NONAME ; void QVideoWidget::resizeEvent(class QResizeEvent *)
	?resolution@QMediaResource@@QBE?AVQSize@@XZ @ 461 NONAME ; class QSize QMediaResource::resolution(void) const
	?resources@QMediaContent@@QBE?AV?$QList@VQMediaResource@@@@XZ @ 462 NONAME ; class QList<class QMediaResource> QMediaContent::resources(void) const
	?sampleRate@QMediaResource@@QBEHXZ @ 463 NONAME ; int QMediaResource::sampleRate(void) const
	?saturation@QPainterVideoSurface@@QBEHXZ @ 464 NONAME ; int QPainterVideoSurface::saturation(void) const
	?saturation@QVideoWidget@@QBEHXZ @ 465 NONAME ; int QVideoWidget::saturation(void) const
	?saturationChanged@QVideoWidget@@IAEXH@Z @ 466 NONAME ; void QVideoWidget::saturationChanged(int)
	?saturationChanged@QVideoWidgetControl@@IAEXH@Z @ 467 NONAME ; void QVideoWidgetControl::saturationChanged(int)
	?saturationChanged@QVideoWindowControl@@IAEXH@Z @ 468 NONAME ; void QVideoWindowControl::saturationChanged(int)
	?save@QMediaPlaylist@@QAE_NABVQUrl@@PBD@Z @ 469 NONAME ; bool QMediaPlaylist::save(class QUrl const &, char const *)
	?save@QMediaPlaylist@@QAE_NPAVQIODevice@@PBD@Z @ 470 NONAME ; bool QMediaPlaylist::save(class QIODevice *, char const *)
	?save@QMediaPlaylistProvider@@UAE_NABVQUrl@@PBD@Z @ 471 NONAME ; bool QMediaPlaylistProvider::save(class QUrl const &, char const *)
	?save@QMediaPlaylistProvider@@UAE_NPAVQIODevice@@PBD@Z @ 472 NONAME ; bool QMediaPlaylistProvider::save(class QIODevice *, char const *)
	?sceneEvent@QGraphicsVideoItem@@MAE_NPAVQEvent@@@Z @ 473 NONAME ; bool QGraphicsVideoItem::sceneEvent(class QEvent *)
	?seekableChanged@QMediaPlayer@@IAEX_N@Z @ 474 NONAME ; void QMediaPlayer::seekableChanged(bool)
	?seekableChanged@QMediaPlayerControl@@IAEX_N@Z @ 475 NONAME ; void QMediaPlayerControl::seekableChanged(bool)
	?selectedDeviceChanged@QVideoDeviceControl@@IAEXABVQString@@@Z @ 476 NONAME ; void QVideoDeviceControl::selectedDeviceChanged(class QString const &)
	?selectedDeviceChanged@QVideoDeviceControl@@IAEXH@Z @ 477 NONAME ; void QVideoDeviceControl::selectedDeviceChanged(int)
	?service@QMediaObject@@UBEPAVQMediaService@@XZ @ 478 NONAME ; class QMediaService * QMediaObject::service(void) const
	?setAspectRatioMode@QGraphicsVideoItem@@QAEXW4AspectRatioMode@Qt@@@Z @ 479 NONAME ; void QGraphicsVideoItem::setAspectRatioMode(enum Qt::AspectRatioMode)
	?setAspectRatioMode@QVideoWidget@@QAEXW4AspectRatioMode@Qt@@@Z @ 480 NONAME ; void QVideoWidget::setAspectRatioMode(enum Qt::AspectRatioMode)
	?setAudioBitRate@QMediaResource@@QAEXH@Z @ 481 NONAME ; void QMediaResource::setAudioBitRate(int)
	?setAudioCodec@QMediaResource@@QAEXABVQString@@@Z @ 482 NONAME ; void QMediaResource::setAudioCodec(class QString const &)
	?setBrightness@QPainterVideoSurface@@QAEXH@Z @ 483 NONAME ; void QPainterVideoSurface::setBrightness(int)
	?setBrightness@QVideoWidget@@QAEXH@Z @ 484 NONAME ; void QVideoWidget::setBrightness(int)
	?setChannelCount@QMediaResource@@QAEXH@Z @ 485 NONAME ; void QMediaResource::setChannelCount(int)
	?setContrast@QPainterVideoSurface@@QAEXH@Z @ 486 NONAME ; void QPainterVideoSurface::setContrast(int)
	?setContrast@QVideoWidget@@QAEXH@Z @ 487 NONAME ; void QVideoWidget::setContrast(int)
	?setCurrentIndex@QMediaPlaylist@@QAEXH@Z @ 488 NONAME ; void QMediaPlaylist::setCurrentIndex(int)
	?setDataSize@QMediaResource@@QAEX_J@Z @ 489 NONAME ; void QMediaResource::setDataSize(long long)
	?setExtendedMetaData@QMediaObject@@QAEXABVQString@@ABVQVariant@@@Z @ 490 NONAME ; void QMediaObject::setExtendedMetaData(class QString const &, class QVariant const &)
	?setFullScreen@QVideoWidget@@QAEX_N@Z @ 491 NONAME ; void QVideoWidget::setFullScreen(bool)
	?setHue@QPainterVideoSurface@@QAEXH@Z @ 492 NONAME ; void QPainterVideoSurface::setHue(int)
	?setHue@QVideoWidget@@QAEXH@Z @ 493 NONAME ; void QVideoWidget::setHue(int)
	?setLanguage@QMediaResource@@QAEXABVQString@@@Z @ 494 NONAME ; void QMediaResource::setLanguage(class QString const &)
	?setLoops@QSoundEffect@@QAEXH@Z @ 495 NONAME ; void QSoundEffect::setLoops(int)
	?setMedia@QMediaPlayer@@QAEXABVQMediaContent@@PAVQIODevice@@@Z @ 496 NONAME ; void QMediaPlayer::setMedia(class QMediaContent const &, class QIODevice *)
	?setMediaObject@QGraphicsVideoItem@@QAEXPAVQMediaObject@@@Z @ 497 NONAME ; void QGraphicsVideoItem::setMediaObject(class QMediaObject *)
	?setMediaObject@QMediaPlaylist@@QAEXPAVQMediaObject@@@Z @ 498 NONAME ; void QMediaPlaylist::setMediaObject(class QMediaObject *)
	?setMediaObject@QVideoWidget@@QAEXPAVQMediaObject@@@Z @ 499 NONAME ; void QVideoWidget::setMediaObject(class QMediaObject *)
	?setMetaData@QMediaObject@@QAEXW4MetaData@QtMediaServices@@ABVQVariant@@@Z @ 500 NONAME ; void QMediaObject::setMetaData(enum QtMediaServices::MetaData, class QVariant const &)
	?setMuted@QMediaPlayer@@QAEX_N@Z @ 501 NONAME ; void QMediaPlayer::setMuted(bool)
	?setMuted@QSoundEffect@@QAEX_N@Z @ 502 NONAME ; void QSoundEffect::setMuted(bool)
	?setNotifyInterval@QMediaObject@@QAEXH@Z @ 503 NONAME ; void QMediaObject::setNotifyInterval(int)
	?setOffset@QGraphicsVideoItem@@QAEXABVQPointF@@@Z @ 504 NONAME ; void QGraphicsVideoItem::setOffset(class QPointF const &)
	?setPlaybackMode@QMediaPlaylist@@QAEXW4PlaybackMode@1@@Z @ 505 NONAME ; void QMediaPlaylist::setPlaybackMode(enum QMediaPlaylist::PlaybackMode)
	?setPlaybackMode@QMediaPlaylistNavigator@@QAEXW4PlaybackMode@QMediaPlaylist@@@Z @ 506 NONAME ; void QMediaPlaylistNavigator::setPlaybackMode(enum QMediaPlaylist::PlaybackMode)
	?setPlaybackRate@QMediaPlayer@@QAEXM@Z @ 507 NONAME ; void QMediaPlayer::setPlaybackRate(float)
	?setPlaylist@QMediaPlaylistNavigator@@QAEXPAVQMediaPlaylistProvider@@@Z @ 508 NONAME ; void QMediaPlaylistNavigator::setPlaylist(class QMediaPlaylistProvider *)
	?setPosition@QMediaPlayer@@QAEX_J@Z @ 509 NONAME ; void QMediaPlayer::setPosition(long long)
	?setReady@QPainterVideoSurface@@QAEX_N@Z @ 510 NONAME ; void QPainterVideoSurface::setReady(bool)
	?setResolution@QMediaResource@@QAEXABVQSize@@@Z @ 511 NONAME ; void QMediaResource::setResolution(class QSize const &)
	?setResolution@QMediaResource@@QAEXHH@Z @ 512 NONAME ; void QMediaResource::setResolution(int, int)
	?setSampleRate@QMediaResource@@QAEXH@Z @ 513 NONAME ; void QMediaResource::setSampleRate(int)
	?setSaturation@QPainterVideoSurface@@QAEXH@Z @ 514 NONAME ; void QPainterVideoSurface::setSaturation(int)
	?setSaturation@QVideoWidget@@QAEXH@Z @ 515 NONAME ; void QVideoWidget::setSaturation(int)
	?setSize@QGraphicsVideoItem@@QAEXABVQSizeF@@@Z @ 516 NONAME ; void QGraphicsVideoItem::setSize(class QSizeF const &)
	?setSource@QSoundEffect@@QAEXABVQUrl@@@Z @ 517 NONAME ; void QSoundEffect::setSource(class QUrl const &)
	?setVideoBitRate@QMediaResource@@QAEXH@Z @ 518 NONAME ; void QMediaResource::setVideoBitRate(int)
	?setVideoCodec@QMediaResource@@QAEXABVQString@@@Z @ 519 NONAME ; void QMediaResource::setVideoCodec(class QString const &)
	?setVolume@QMediaPlayer@@QAEXH@Z @ 520 NONAME ; void QMediaPlayer::setVolume(int)
	?setVolume@QSoundEffect@@QAEXH@Z @ 521 NONAME ; void QSoundEffect::setVolume(int)
	?setupMetaData@QMediaObject@@AAEXXZ @ 522 NONAME ; void QMediaObject::setupMetaData(void)
	?showEvent@QVideoWidget@@MAEXPAVQShowEvent@@@Z @ 523 NONAME ; void QVideoWidget::showEvent(class QShowEvent *)
	?shuffle@QLocalMediaPlaylistProvider@@UAEXXZ @ 524 NONAME ; void QLocalMediaPlaylistProvider::shuffle(void)
	?shuffle@QMediaPlaylist@@QAEXXZ @ 525 NONAME ; void QMediaPlaylist::shuffle(void)
	?shuffle@QMediaPlaylistProvider@@UAEXXZ @ 526 NONAME ; void QMediaPlaylistProvider::shuffle(void)
	?size@QGraphicsVideoItem@@QBE?AVQSizeF@@XZ @ 527 NONAME ; class QSizeF QGraphicsVideoItem::size(void) const
	?sizeHint@QVideoWidget@@UBE?AVQSize@@XZ @ 528 NONAME ; class QSize QVideoWidget::sizeHint(void) const
	?source@QSoundEffect@@QBE?AVQUrl@@XZ @ 529 NONAME ; class QUrl QSoundEffect::source(void) const
	?sourceChanged@QSoundEffect@@IAEXXZ @ 530 NONAME ; void QSoundEffect::sourceChanged(void)
	?start@QMediaTimeInterval@@QBE_JXZ @ 531 NONAME ; long long QMediaTimeInterval::start(void) const
	?start@QPainterVideoSurface@@UAE_NABVQVideoSurfaceFormat@@@Z @ 532 NONAME ; bool QPainterVideoSurface::start(class QVideoSurfaceFormat const &)
	?state@QMediaPlayer@@QBE?AW4State@1@XZ @ 533 NONAME ; enum QMediaPlayer::State QMediaPlayer::state(void) const
	?stateChanged@QMediaPlayer@@IAEXW4State@1@@Z @ 534 NONAME ; void QMediaPlayer::stateChanged(enum QMediaPlayer::State)
	?stateChanged@QMediaPlayerControl@@IAEXW4State@QMediaPlayer@@@Z @ 535 NONAME ; void QMediaPlayerControl::stateChanged(enum QMediaPlayer::State)
	?stop@QMediaPlayer@@QAEXXZ @ 536 NONAME ; void QMediaPlayer::stop(void)
	?stop@QPainterVideoSurface@@UAEXXZ @ 537 NONAME ; void QPainterVideoSurface::stop(void)
	?supportedMimeTypes@QMediaPlayer@@SA?AVQStringList@@V?$QFlags@W4Flag@QMediaPlayer@@@@@Z @ 538 NONAME ; class QStringList QMediaPlayer::supportedMimeTypes(class QFlags<enum QMediaPlayer::Flag>)
	?supportedMimeTypes@QMediaServiceProvider@@UBE?AVQStringList@@ABVQByteArray@@H@Z @ 539 NONAME ; class QStringList QMediaServiceProvider::supportedMimeTypes(class QByteArray const &, int) const
	?supportedPixelFormats@QPainterVideoSurface@@UBE?AV?$QList@W4PixelFormat@QVideoFrame@@@@W4HandleType@QAbstractVideoBuffer@@@Z @ 540 NONAME ; class QList<enum QVideoFrame::PixelFormat> QPainterVideoSurface::supportedPixelFormats(enum QAbstractVideoBuffer::HandleType) const
	?surroundingItemsChanged@QMediaPlaylistNavigator@@IAEXXZ @ 541 NONAME ; void QMediaPlaylistNavigator::surroundingItemsChanged(void)
	?tr@QGraphicsVideoItem@@SA?AVQString@@PBD0@Z @ 542 NONAME ; class QString QGraphicsVideoItem::tr(char const *, char const *)
	?tr@QGraphicsVideoItem@@SA?AVQString@@PBD0H@Z @ 543 NONAME ; class QString QGraphicsVideoItem::tr(char const *, char const *, int)
	?tr@QLocalMediaPlaylistProvider@@SA?AVQString@@PBD0@Z @ 544 NONAME ; class QString QLocalMediaPlaylistProvider::tr(char const *, char const *)
	?tr@QLocalMediaPlaylistProvider@@SA?AVQString@@PBD0H@Z @ 545 NONAME ; class QString QLocalMediaPlaylistProvider::tr(char const *, char const *, int)
	?tr@QMediaControl@@SA?AVQString@@PBD0@Z @ 546 NONAME ; class QString QMediaControl::tr(char const *, char const *)
	?tr@QMediaControl@@SA?AVQString@@PBD0H@Z @ 547 NONAME ; class QString QMediaControl::tr(char const *, char const *, int)
	?tr@QMediaObject@@SA?AVQString@@PBD0@Z @ 548 NONAME ; class QString QMediaObject::tr(char const *, char const *)
	?tr@QMediaObject@@SA?AVQString@@PBD0H@Z @ 549 NONAME ; class QString QMediaObject::tr(char const *, char const *, int)
	?tr@QMediaPlayer@@SA?AVQString@@PBD0@Z @ 550 NONAME ; class QString QMediaPlayer::tr(char const *, char const *)
	?tr@QMediaPlayer@@SA?AVQString@@PBD0H@Z @ 551 NONAME ; class QString QMediaPlayer::tr(char const *, char const *, int)
	?tr@QMediaPlayerControl@@SA?AVQString@@PBD0@Z @ 552 NONAME ; class QString QMediaPlayerControl::tr(char const *, char const *)
	?tr@QMediaPlayerControl@@SA?AVQString@@PBD0H@Z @ 553 NONAME ; class QString QMediaPlayerControl::tr(char const *, char const *, int)
	?tr@QMediaPlaylist@@SA?AVQString@@PBD0@Z @ 554 NONAME ; class QString QMediaPlaylist::tr(char const *, char const *)
	?tr@QMediaPlaylist@@SA?AVQString@@PBD0H@Z @ 555 NONAME ; class QString QMediaPlaylist::tr(char const *, char const *, int)
	?tr@QMediaPlaylistControl@@SA?AVQString@@PBD0@Z @ 556 NONAME ; class QString QMediaPlaylistControl::tr(char const *, char const *)
	?tr@QMediaPlaylistControl@@SA?AVQString@@PBD0H@Z @ 557 NONAME ; class QString QMediaPlaylistControl::tr(char const *, char const *, int)
	?tr@QMediaPlaylistIOPlugin@@SA?AVQString@@PBD0@Z @ 558 NONAME ; class QString QMediaPlaylistIOPlugin::tr(char const *, char const *)
	?tr@QMediaPlaylistIOPlugin@@SA?AVQString@@PBD0H@Z @ 559 NONAME ; class QString QMediaPlaylistIOPlugin::tr(char const *, char const *, int)
	?tr@QMediaPlaylistNavigator@@SA?AVQString@@PBD0@Z @ 560 NONAME ; class QString QMediaPlaylistNavigator::tr(char const *, char const *)
	?tr@QMediaPlaylistNavigator@@SA?AVQString@@PBD0H@Z @ 561 NONAME ; class QString QMediaPlaylistNavigator::tr(char const *, char const *, int)
	?tr@QMediaPlaylistProvider@@SA?AVQString@@PBD0@Z @ 562 NONAME ; class QString QMediaPlaylistProvider::tr(char const *, char const *)
	?tr@QMediaPlaylistProvider@@SA?AVQString@@PBD0H@Z @ 563 NONAME ; class QString QMediaPlaylistProvider::tr(char const *, char const *, int)
	?tr@QMediaService@@SA?AVQString@@PBD0@Z @ 564 NONAME ; class QString QMediaService::tr(char const *, char const *)
	?tr@QMediaService@@SA?AVQString@@PBD0H@Z @ 565 NONAME ; class QString QMediaService::tr(char const *, char const *, int)
	?tr@QMediaServiceProvider@@SA?AVQString@@PBD0@Z @ 566 NONAME ; class QString QMediaServiceProvider::tr(char const *, char const *)
	?tr@QMediaServiceProvider@@SA?AVQString@@PBD0H@Z @ 567 NONAME ; class QString QMediaServiceProvider::tr(char const *, char const *, int)
	?tr@QMediaServiceProviderPlugin@@SA?AVQString@@PBD0@Z @ 568 NONAME ; class QString QMediaServiceProviderPlugin::tr(char const *, char const *)
	?tr@QMediaServiceProviderPlugin@@SA?AVQString@@PBD0H@Z @ 569 NONAME ; class QString QMediaServiceProviderPlugin::tr(char const *, char const *, int)
	?tr@QMetaDataControl@@SA?AVQString@@PBD0@Z @ 570 NONAME ; class QString QMetaDataControl::tr(char const *, char const *)
	?tr@QMetaDataControl@@SA?AVQString@@PBD0H@Z @ 571 NONAME ; class QString QMetaDataControl::tr(char const *, char const *, int)
	?tr@QPainterVideoSurface@@SA?AVQString@@PBD0@Z @ 572 NONAME ; class QString QPainterVideoSurface::tr(char const *, char const *)
	?tr@QPainterVideoSurface@@SA?AVQString@@PBD0H@Z @ 573 NONAME ; class QString QPainterVideoSurface::tr(char const *, char const *, int)
	?tr@QSoundEffect@@SA?AVQString@@PBD0@Z @ 574 NONAME ; class QString QSoundEffect::tr(char const *, char const *)
	?tr@QSoundEffect@@SA?AVQString@@PBD0H@Z @ 575 NONAME ; class QString QSoundEffect::tr(char const *, char const *, int)
	?tr@QVideoDeviceControl@@SA?AVQString@@PBD0@Z @ 576 NONAME ; class QString QVideoDeviceControl::tr(char const *, char const *)
	?tr@QVideoDeviceControl@@SA?AVQString@@PBD0H@Z @ 577 NONAME ; class QString QVideoDeviceControl::tr(char const *, char const *, int)
	?tr@QVideoOutputControl@@SA?AVQString@@PBD0@Z @ 578 NONAME ; class QString QVideoOutputControl::tr(char const *, char const *)
	?tr@QVideoOutputControl@@SA?AVQString@@PBD0H@Z @ 579 NONAME ; class QString QVideoOutputControl::tr(char const *, char const *, int)
	?tr@QVideoRendererControl@@SA?AVQString@@PBD0@Z @ 580 NONAME ; class QString QVideoRendererControl::tr(char const *, char const *)
	?tr@QVideoRendererControl@@SA?AVQString@@PBD0H@Z @ 581 NONAME ; class QString QVideoRendererControl::tr(char const *, char const *, int)
	?tr@QVideoWidget@@SA?AVQString@@PBD0@Z @ 582 NONAME ; class QString QVideoWidget::tr(char const *, char const *)
	?tr@QVideoWidget@@SA?AVQString@@PBD0H@Z @ 583 NONAME ; class QString QVideoWidget::tr(char const *, char const *, int)
	?tr@QVideoWidgetControl@@SA?AVQString@@PBD0@Z @ 584 NONAME ; class QString QVideoWidgetControl::tr(char const *, char const *)
	?tr@QVideoWidgetControl@@SA?AVQString@@PBD0H@Z @ 585 NONAME ; class QString QVideoWidgetControl::tr(char const *, char const *, int)
	?tr@QVideoWindowControl@@SA?AVQString@@PBD0@Z @ 586 NONAME ; class QString QVideoWindowControl::tr(char const *, char const *)
	?tr@QVideoWindowControl@@SA?AVQString@@PBD0H@Z @ 587 NONAME ; class QString QVideoWindowControl::tr(char const *, char const *, int)
	?trUtf8@QGraphicsVideoItem@@SA?AVQString@@PBD0@Z @ 588 NONAME ; class QString QGraphicsVideoItem::trUtf8(char const *, char const *)
	?trUtf8@QGraphicsVideoItem@@SA?AVQString@@PBD0H@Z @ 589 NONAME ; class QString QGraphicsVideoItem::trUtf8(char const *, char const *, int)
	?trUtf8@QLocalMediaPlaylistProvider@@SA?AVQString@@PBD0@Z @ 590 NONAME ; class QString QLocalMediaPlaylistProvider::trUtf8(char const *, char const *)
	?trUtf8@QLocalMediaPlaylistProvider@@SA?AVQString@@PBD0H@Z @ 591 NONAME ; class QString QLocalMediaPlaylistProvider::trUtf8(char const *, char const *, int)
	?trUtf8@QMediaControl@@SA?AVQString@@PBD0@Z @ 592 NONAME ; class QString QMediaControl::trUtf8(char const *, char const *)
	?trUtf8@QMediaControl@@SA?AVQString@@PBD0H@Z @ 593 NONAME ; class QString QMediaControl::trUtf8(char const *, char const *, int)
	?trUtf8@QMediaObject@@SA?AVQString@@PBD0@Z @ 594 NONAME ; class QString QMediaObject::trUtf8(char const *, char const *)
	?trUtf8@QMediaObject@@SA?AVQString@@PBD0H@Z @ 595 NONAME ; class QString QMediaObject::trUtf8(char const *, char const *, int)
	?trUtf8@QMediaPlayer@@SA?AVQString@@PBD0@Z @ 596 NONAME ; class QString QMediaPlayer::trUtf8(char const *, char const *)
	?trUtf8@QMediaPlayer@@SA?AVQString@@PBD0H@Z @ 597 NONAME ; class QString QMediaPlayer::trUtf8(char const *, char const *, int)
	?trUtf8@QMediaPlayerControl@@SA?AVQString@@PBD0@Z @ 598 NONAME ; class QString QMediaPlayerControl::trUtf8(char const *, char const *)
	?trUtf8@QMediaPlayerControl@@SA?AVQString@@PBD0H@Z @ 599 NONAME ; class QString QMediaPlayerControl::trUtf8(char const *, char const *, int)
	?trUtf8@QMediaPlaylist@@SA?AVQString@@PBD0@Z @ 600 NONAME ; class QString QMediaPlaylist::trUtf8(char const *, char const *)
	?trUtf8@QMediaPlaylist@@SA?AVQString@@PBD0H@Z @ 601 NONAME ; class QString QMediaPlaylist::trUtf8(char const *, char const *, int)
	?trUtf8@QMediaPlaylistControl@@SA?AVQString@@PBD0@Z @ 602 NONAME ; class QString QMediaPlaylistControl::trUtf8(char const *, char const *)
	?trUtf8@QMediaPlaylistControl@@SA?AVQString@@PBD0H@Z @ 603 NONAME ; class QString QMediaPlaylistControl::trUtf8(char const *, char const *, int)
	?trUtf8@QMediaPlaylistIOPlugin@@SA?AVQString@@PBD0@Z @ 604 NONAME ; class QString QMediaPlaylistIOPlugin::trUtf8(char const *, char const *)
	?trUtf8@QMediaPlaylistIOPlugin@@SA?AVQString@@PBD0H@Z @ 605 NONAME ; class QString QMediaPlaylistIOPlugin::trUtf8(char const *, char const *, int)
	?trUtf8@QMediaPlaylistNavigator@@SA?AVQString@@PBD0@Z @ 606 NONAME ; class QString QMediaPlaylistNavigator::trUtf8(char const *, char const *)
	?trUtf8@QMediaPlaylistNavigator@@SA?AVQString@@PBD0H@Z @ 607 NONAME ; class QString QMediaPlaylistNavigator::trUtf8(char const *, char const *, int)
	?trUtf8@QMediaPlaylistProvider@@SA?AVQString@@PBD0@Z @ 608 NONAME ; class QString QMediaPlaylistProvider::trUtf8(char const *, char const *)
	?trUtf8@QMediaPlaylistProvider@@SA?AVQString@@PBD0H@Z @ 609 NONAME ; class QString QMediaPlaylistProvider::trUtf8(char const *, char const *, int)
	?trUtf8@QMediaService@@SA?AVQString@@PBD0@Z @ 610 NONAME ; class QString QMediaService::trUtf8(char const *, char const *)
	?trUtf8@QMediaService@@SA?AVQString@@PBD0H@Z @ 611 NONAME ; class QString QMediaService::trUtf8(char const *, char const *, int)
	?trUtf8@QMediaServiceProvider@@SA?AVQString@@PBD0@Z @ 612 NONAME ; class QString QMediaServiceProvider::trUtf8(char const *, char const *)
	?trUtf8@QMediaServiceProvider@@SA?AVQString@@PBD0H@Z @ 613 NONAME ; class QString QMediaServiceProvider::trUtf8(char const *, char const *, int)
	?trUtf8@QMediaServiceProviderPlugin@@SA?AVQString@@PBD0@Z @ 614 NONAME ; class QString QMediaServiceProviderPlugin::trUtf8(char const *, char const *)
	?trUtf8@QMediaServiceProviderPlugin@@SA?AVQString@@PBD0H@Z @ 615 NONAME ; class QString QMediaServiceProviderPlugin::trUtf8(char const *, char const *, int)
	?trUtf8@QMetaDataControl@@SA?AVQString@@PBD0@Z @ 616 NONAME ; class QString QMetaDataControl::trUtf8(char const *, char const *)
	?trUtf8@QMetaDataControl@@SA?AVQString@@PBD0H@Z @ 617 NONAME ; class QString QMetaDataControl::trUtf8(char const *, char const *, int)
	?trUtf8@QPainterVideoSurface@@SA?AVQString@@PBD0@Z @ 618 NONAME ; class QString QPainterVideoSurface::trUtf8(char const *, char const *)
	?trUtf8@QPainterVideoSurface@@SA?AVQString@@PBD0H@Z @ 619 NONAME ; class QString QPainterVideoSurface::trUtf8(char const *, char const *, int)
	?trUtf8@QSoundEffect@@SA?AVQString@@PBD0@Z @ 620 NONAME ; class QString QSoundEffect::trUtf8(char const *, char const *)
	?trUtf8@QSoundEffect@@SA?AVQString@@PBD0H@Z @ 621 NONAME ; class QString QSoundEffect::trUtf8(char const *, char const *, int)
	?trUtf8@QVideoDeviceControl@@SA?AVQString@@PBD0@Z @ 622 NONAME ; class QString QVideoDeviceControl::trUtf8(char const *, char const *)
	?trUtf8@QVideoDeviceControl@@SA?AVQString@@PBD0H@Z @ 623 NONAME ; class QString QVideoDeviceControl::trUtf8(char const *, char const *, int)
	?trUtf8@QVideoOutputControl@@SA?AVQString@@PBD0@Z @ 624 NONAME ; class QString QVideoOutputControl::trUtf8(char const *, char const *)
	?trUtf8@QVideoOutputControl@@SA?AVQString@@PBD0H@Z @ 625 NONAME ; class QString QVideoOutputControl::trUtf8(char const *, char const *, int)
	?trUtf8@QVideoRendererControl@@SA?AVQString@@PBD0@Z @ 626 NONAME ; class QString QVideoRendererControl::trUtf8(char const *, char const *)
	?trUtf8@QVideoRendererControl@@SA?AVQString@@PBD0H@Z @ 627 NONAME ; class QString QVideoRendererControl::trUtf8(char const *, char const *, int)
	?trUtf8@QVideoWidget@@SA?AVQString@@PBD0@Z @ 628 NONAME ; class QString QVideoWidget::trUtf8(char const *, char const *)
	?trUtf8@QVideoWidget@@SA?AVQString@@PBD0H@Z @ 629 NONAME ; class QString QVideoWidget::trUtf8(char const *, char const *, int)
	?trUtf8@QVideoWidgetControl@@SA?AVQString@@PBD0@Z @ 630 NONAME ; class QString QVideoWidgetControl::trUtf8(char const *, char const *)
	?trUtf8@QVideoWidgetControl@@SA?AVQString@@PBD0H@Z @ 631 NONAME ; class QString QVideoWidgetControl::trUtf8(char const *, char const *, int)
	?trUtf8@QVideoWindowControl@@SA?AVQString@@PBD0@Z @ 632 NONAME ; class QString QVideoWindowControl::trUtf8(char const *, char const *)
	?trUtf8@QVideoWindowControl@@SA?AVQString@@PBD0H@Z @ 633 NONAME ; class QString QVideoWindowControl::trUtf8(char const *, char const *, int)
	?translated@QMediaTimeInterval@@QBE?AV1@_J@Z @ 634 NONAME ; class QMediaTimeInterval QMediaTimeInterval::translated(long long) const
	?type@QMediaServiceProviderHint@@QBE?AW4Type@1@XZ @ 635 NONAME ; enum QMediaServiceProviderHint::Type QMediaServiceProviderHint::type(void) const
	?unbind@QMediaObject@@UAEXPAVQObject@@@Z @ 636 NONAME ; void QMediaObject::unbind(class QObject *)
	?unbind@QMediaPlayer@@UAEXPAVQObject@@@Z @ 637 NONAME ; void QMediaPlayer::unbind(class QObject *)
	?url@QMediaResource@@QBE?AVQUrl@@XZ @ 638 NONAME ; class QUrl QMediaResource::url(void) const
	?videoAvailableChanged@QMediaPlayer@@IAEX_N@Z @ 639 NONAME ; void QMediaPlayer::videoAvailableChanged(bool)
	?videoAvailableChanged@QMediaPlayerControl@@IAEX_N@Z @ 640 NONAME ; void QMediaPlayerControl::videoAvailableChanged(bool)
	?videoBitRate@QMediaResource@@QBEHXZ @ 641 NONAME ; int QMediaResource::videoBitRate(void) const
	?videoCodec@QMediaResource@@QBE?AVQString@@XZ @ 642 NONAME ; class QString QMediaResource::videoCodec(void) const
	?volume@QMediaPlayer@@QBEHXZ @ 643 NONAME ; int QMediaPlayer::volume(void) const
	?volume@QSoundEffect@@QBEHXZ @ 644 NONAME ; int QSoundEffect::volume(void) const
	?volumeChanged@QMediaPlayer@@IAEXH@Z @ 645 NONAME ; void QMediaPlayer::volumeChanged(int)
	?volumeChanged@QMediaPlayerControl@@IAEXH@Z @ 646 NONAME ; void QMediaPlayerControl::volumeChanged(int)
	?volumeChanged@QSoundEffect@@IAEXXZ @ 647 NONAME ; void QSoundEffect::volumeChanged(void)
	?writableChanged@QMetaDataControl@@IAEX_N@Z @ 648 NONAME ; void QMetaDataControl::writableChanged(bool)
	?staticMetaObject@QMediaPlaylistProvider@@2UQMetaObject@@B @ 649 NONAME ; struct QMetaObject const QMediaPlaylistProvider::staticMetaObject
	?staticMetaObject@QSoundEffect@@2UQMetaObject@@B @ 650 NONAME ; struct QMetaObject const QSoundEffect::staticMetaObject
	?staticMetaObject@QVideoWidget@@2UQMetaObject@@B @ 651 NONAME ; struct QMetaObject const QVideoWidget::staticMetaObject
	?staticMetaObject@QMediaPlaylistControl@@2UQMetaObject@@B @ 652 NONAME ; struct QMetaObject const QMediaPlaylistControl::staticMetaObject
	?staticMetaObject@QMediaControl@@2UQMetaObject@@B @ 653 NONAME ; struct QMetaObject const QMediaControl::staticMetaObject
	?staticMetaObject@QLocalMediaPlaylistProvider@@2UQMetaObject@@B @ 654 NONAME ; struct QMetaObject const QLocalMediaPlaylistProvider::staticMetaObject
	?staticMetaObject@QMediaServiceProviderPlugin@@2UQMetaObject@@B @ 655 NONAME ; struct QMetaObject const QMediaServiceProviderPlugin::staticMetaObject
	?staticMetaObject@QVideoOutputControl@@2UQMetaObject@@B @ 656 NONAME ; struct QMetaObject const QVideoOutputControl::staticMetaObject
	?staticMetaObject@QMetaDataControl@@2UQMetaObject@@B @ 657 NONAME ; struct QMetaObject const QMetaDataControl::staticMetaObject
	?staticMetaObject@QMediaPlayer@@2UQMetaObject@@B @ 658 NONAME ; struct QMetaObject const QMediaPlayer::staticMetaObject
	?staticMetaObject@QMediaService@@2UQMetaObject@@B @ 659 NONAME ; struct QMetaObject const QMediaService::staticMetaObject
	?staticMetaObject@QMediaObject@@2UQMetaObject@@B @ 660 NONAME ; struct QMetaObject const QMediaObject::staticMetaObject
	?staticMetaObject@QMediaPlaylist@@2UQMetaObject@@B @ 661 NONAME ; struct QMetaObject const QMediaPlaylist::staticMetaObject
	?staticMetaObject@QMediaServiceProvider@@2UQMetaObject@@B @ 662 NONAME ; struct QMetaObject const QMediaServiceProvider::staticMetaObject
	?staticMetaObject@QMediaPlayerControl@@2UQMetaObject@@B @ 663 NONAME ; struct QMetaObject const QMediaPlayerControl::staticMetaObject
	?staticMetaObject@QMediaPlaylistNavigator@@2UQMetaObject@@B @ 664 NONAME ; struct QMetaObject const QMediaPlaylistNavigator::staticMetaObject
	?staticMetaObject@QVideoWidgetControl@@2UQMetaObject@@B @ 665 NONAME ; struct QMetaObject const QVideoWidgetControl::staticMetaObject
	?staticMetaObject@QVideoWindowControl@@2UQMetaObject@@B @ 666 NONAME ; struct QMetaObject const QVideoWindowControl::staticMetaObject
	?staticMetaObject@QVideoDeviceControl@@2UQMetaObject@@B @ 667 NONAME ; struct QMetaObject const QVideoDeviceControl::staticMetaObject
	?staticMetaObject@QVideoRendererControl@@2UQMetaObject@@B @ 668 NONAME ; struct QMetaObject const QVideoRendererControl::staticMetaObject
	?staticMetaObject@QPainterVideoSurface@@2UQMetaObject@@B @ 669 NONAME ; struct QMetaObject const QPainterVideoSurface::staticMetaObject
	?staticMetaObject@QMediaPlaylistIOPlugin@@2UQMetaObject@@B @ 670 NONAME ; struct QMetaObject const QMediaPlaylistIOPlugin::staticMetaObject
	?staticMetaObject@QGraphicsVideoItem@@2UQMetaObject@@B @ 671 NONAME ; struct QMetaObject const QGraphicsVideoItem::staticMetaObject

