EXPORTS
	?staticMetaObject@QNetworkCookieJar@@2UQMetaObject@@B @ 1 NONAME ; struct QMetaObject const QNetworkCookieJar::staticMetaObject
	?setSslConfiguration@QNetworkReply@@QAEXABVQSslConfiguration@@@Z @ 2 NONAME ; void QNetworkReply::setSslConfiguration(class QSslConfiguration const &)
	??0QHttpHeader@@QAE@ABV0@@Z @ 3 NONAME ; QHttpHeader::QHttpHeader(class QHttpHeader const &)
	?d_func@QNetworkReply@@AAEPAVQNetworkReplyPrivate@@XZ @ 4 NONAME ; class QNetworkReplyPrivate * QNetworkReply::d_func(void)
	?setCaCertificates@QSslSocket@@QAEXABV?$QList@VQSslCertificate@@@@@Z @ 5 NONAME ; void QSslSocket::setCaCertificates(class QList<class QSslCertificate> const &)
	?getStaticMetaObject@QUdpSocket@@SAABUQMetaObject@@XZ @ 6 NONAME ; struct QMetaObject const & QUdpSocket::getStaticMetaObject(void)
	??1QLocalSocket@@UAE@XZ @ 7 NONAME ; QLocalSocket::~QLocalSocket(void)
	?setSocketState@QAbstractSocket@@IAEXW4SocketState@1@@Z @ 8 NONAME ; void QAbstractSocket::setSocketState(enum QAbstractSocket::SocketState)
	?clear@QHostAddress@@QAEXXZ @ 9 NONAME ; void QHostAddress::clear(void)
	?setReadable@QUrlInfo@@UAEX_N@Z @ 10 NONAME ; void QUrlInfo::setReadable(bool)
	?hasPendingRequests@QHttp@@QBE_NXZ @ 11 NONAME ; bool QHttp::hasPendingRequests(void) const
	??0QHttpHeader@@IAE@AAVQHttpHeaderPrivate@@ABV0@@Z @ 12 NONAME ; QHttpHeader::QHttpHeader(class QHttpHeaderPrivate &, class QHttpHeader const &)
	?sslErrors@QSslSocket@@QBE?AV?$QList@VQSslError@@@@XZ @ 13 NONAME ; class QList<class QSslError> QSslSocket::sslErrors(void) const
	?setPeerVerifyMode@QSslSocket@@QAEXW4PeerVerifyMode@1@@Z @ 14 NONAME ; void QSslSocket::setPeerVerifyMode(enum QSslSocket::PeerVerifyMode)
	??9QAuthenticator@@QBE_NABV0@@Z @ 15 NONAME ; bool QAuthenticator::operator!=(class QAuthenticator const &) const
	??0QAbstractNetworkCache@@IAE@AAVQAbstractNetworkCachePrivate@@PAVQObject@@@Z @ 16 NONAME ; QAbstractNetworkCache::QAbstractNetworkCache(class QAbstractNetworkCachePrivate &, class QObject *)
	?sslConfiguration@QNetworkRequest@@QBE?AVQSslConfiguration@@XZ @ 17 NONAME ; class QSslConfiguration QNetworkRequest::sslConfiguration(void) const
	??9QSslCipher@@QBE_NABV0@@Z @ 18 NONAME ; bool QSslCipher::operator!=(class QSslCipher const &) const
	?majorVersion@QHttpResponseHeader@@UBEHXZ @ 19 NONAME ; int QHttpResponseHeader::majorVersion(void) const
	?setCiphers@QSslSocket@@QAEXABVQString@@@Z @ 20 NONAME ; void QSslSocket::setCiphers(class QString const &)
	?requestFinished@QHttp@@IAEXH_N@Z @ 21 NONAME ; void QHttp::requestFinished(int, bool)
	?setSocketDescriptor@QTcpServer@@QAE_NH@Z @ 22 NONAME ; bool QTcpServer::setSocketDescriptor(int)
	?head@QNetworkAccessManager@@QAEPAVQNetworkReply@@ABVQNetworkRequest@@@Z @ 23 NONAME ; class QNetworkReply * QNetworkAccessManager::head(class QNetworkRequest const &)
	?qt_metacast@QUdpSocket@@UAEPAXPBD@Z @ 24 NONAME ; void * QUdpSocket::qt_metacast(char const *)
	??8QSslKey@@QBE_NABV0@@Z @ 25 NONAME ; bool QSslKey::operator==(class QSslKey const &) const
	??0QHttp@@QAE@ABVQString@@GPAVQObject@@@Z @ 26 NONAME ; QHttp::QHttp(class QString const &, unsigned short, class QObject *)
	?tr@QSslSocket@@SA?AVQString@@PBD0H@Z @ 27 NONAME ; class QString QSslSocket::tr(char const *, char const *, int)
	?scopeId@QHostAddress@@QBE?AVQString@@XZ @ 28 NONAME ; class QString QHostAddress::scopeId(void) const
	?qt_metacall@QLocalSocket@@UAEHW4Call@QMetaObject@@HPAPAX@Z @ 29 NONAME ; int QLocalSocket::qt_metacall(enum QMetaObject::Call, int, void * *)
	?setValue@QNetworkCookie@@QAEXABVQByteArray@@@Z @ 30 NONAME ; void QNetworkCookie::setValue(class QByteArray const &)
	?trUtf8@QNetworkCookieJar@@SA?AVQString@@PBD0@Z @ 31 NONAME ; class QString QNetworkCookieJar::trUtf8(char const *, char const *)
	?d_func@QNetworkDiskCache@@AAEPAVQNetworkDiskCachePrivate@@XZ @ 32 NONAME ; class QNetworkDiskCachePrivate * QNetworkDiskCache::d_func(void)
	?addCaCertificates@QSslSocket@@QAEXABV?$QList@VQSslCertificate@@@@@Z @ 33 NONAME ; void QSslSocket::addCaCertificates(class QList<class QSslCertificate> const &)
	?readAll@QFtp@@QAE?AVQByteArray@@XZ @ 34 NONAME ; class QByteArray QFtp::readAll(void)
	?setDefaultCaCertificates@QSslSocket@@SAXABV?$QList@VQSslCertificate@@@@@Z @ 35 NONAME ; void QSslSocket::setDefaultCaCertificates(class QList<class QSslCertificate> const &)
	?metaDataChanged@QNetworkReply@@IAEXXZ @ 36 NONAME ; void QNetworkReply::metaDataChanged(void)
	?issuerInfo@QSslCertificate@@QBE?AVQString@@ABVQByteArray@@@Z @ 37 NONAME ; class QString QSslCertificate::issuerInfo(class QByteArray const &) const
	?expirationDate@QNetworkCookie@@QBE?AVQDateTime@@XZ @ 38 NONAME ; class QDateTime QNetworkCookie::expirationDate(void) const
	?writeData@QAbstractSocket@@MAE_JPBD_J@Z @ 39 NONAME ; long long QAbstractSocket::writeData(char const *, long long)
	?qt_metacall@QFtp@@UAEHW4Call@QMetaObject@@HPAPAX@Z @ 40 NONAME ; int QFtp::qt_metacall(enum QMetaObject::Call, int, void * *)
	?waitForReadyRead@QLocalSocket@@UAE_NH@Z @ 41 NONAME ; bool QLocalSocket::waitForReadyRead(int)
	?getStaticMetaObject@QLocalSocket@@SAABUQMetaObject@@XZ @ 42 NONAME ; struct QMetaObject const & QLocalSocket::getStaticMetaObject(void)
	?bytesAvailable@QFtp@@QBE_JXZ @ 43 NONAME ; long long QFtp::bytesAvailable(void) const
	?setName@QUrlInfo@@UAEXABVQString@@@Z @ 44 NONAME ; void QUrlInfo::setName(class QString const &)
	?proxy@QAbstractSocket@@QBE?AVQNetworkProxy@@XZ @ 45 NONAME ; class QNetworkProxy QAbstractSocket::proxy(void) const
	??6@YA?AVQDebug@@V0@W4SubjectInfo@QSslCertificate@@@Z @ 46 NONAME ; class QDebug operator<<(class QDebug, enum QSslCertificate::SubjectInfo)
	?sslErrors@QNetworkAccessManager@@IAEXPAVQNetworkReply@@ABV?$QList@VQSslError@@@@@Z @ 47 NONAME ; void QNetworkAccessManager::sslErrors(class QNetworkReply *, class QList<class QSslError> const &)
	?connected@QLocalSocket@@IAEXXZ @ 48 NONAME ; void QLocalSocket::connected(void)
	?readyRead@QHttp@@IAEXABVQHttpResponseHeader@@@Z @ 49 NONAME ; void QHttp::readyRead(class QHttpResponseHeader const &)
	?currentRequest@QHttp@@QBE?AVQHttpRequestHeader@@XZ @ 50 NONAME ; class QHttpRequestHeader QHttp::currentRequest(void) const
	?minorVersion@QHttpRequestHeader@@UBEHXZ @ 51 NONAME ; int QHttpRequestHeader::minorVersion(void) const
	?setLocalPort@QNetworkProxyQuery@@QAEXH@Z @ 52 NONAME ; void QNetworkProxyQuery::setLocalPort(int)
	?trUtf8@QSslSocket@@SA?AVQString@@PBD0H@Z @ 53 NONAME ; class QString QSslSocket::trUtf8(char const *, char const *, int)
	??4QSslError@@QAEAAV0@ABV0@@Z @ 54 NONAME ; class QSslError & QSslError::operator=(class QSslError const &)
	?trUtf8@QAbstractSocket@@SA?AVQString@@PBD0H@Z @ 55 NONAME ; class QString QAbstractSocket::trUtf8(char const *, char const *, int)
	?setDefaultCiphers@QSslSocket@@SAXABV?$QList@VQSslCipher@@@@@Z @ 56 NONAME ; void QSslSocket::setDefaultCiphers(class QList<class QSslCipher> const &)
	??0QSslConfiguration@@AAE@PAVQSslConfigurationPrivate@@@Z @ 57 NONAME ; QSslConfiguration::QSslConfiguration(class QSslConfigurationPrivate *)
	?effectiveDate@QSslCertificate@@QBE?AVQDateTime@@XZ @ 58 NONAME ; class QDateTime QSslCertificate::effectiveDate(void) const
	??1QUrlInfo@@UAE@XZ @ 59 NONAME ; QUrlInfo::~QUrlInfo(void)
	??1QSslSocket@@UAE@XZ @ 60 NONAME ; QSslSocket::~QSslSocket(void)
	??1QNetworkReply@@UAE@XZ @ 61 NONAME ; QNetworkReply::~QNetworkReply(void)
	?trUtf8@QHttp@@SA?AVQString@@PBD0H@Z @ 62 NONAME ; class QString QHttp::trUtf8(char const *, char const *, int)
	?tr@QTcpSocket@@SA?AVQString@@PBD0H@Z @ 63 NONAME ; class QString QTcpSocket::tr(char const *, char const *, int)
	??_EQSslError@@QAE@I@Z @ 64 NONAME ; QSslError::~QSslError(unsigned int)
	?header@QNetworkReply@@QBE?AVQVariant@@W4KnownHeaders@QNetworkRequest@@@Z @ 65 NONAME ; class QVariant QNetworkReply::header(enum QNetworkRequest::KnownHeaders) const
	??1QHostInfo@@QAE@XZ @ 66 NONAME ; QHostInfo::~QHostInfo(void)
	?tr@QLocalSocket@@SA?AVQString@@PBD0H@Z @ 67 NONAME ; class QString QLocalSocket::tr(char const *, char const *, int)
	?isRunning@QNetworkReply@@QBE_NXZ @ 68 NONAME ; bool QNetworkReply::isRunning(void) const
	?d_func@QHttpHeader@@ABEPBVQHttpHeaderPrivate@@XZ @ 69 NONAME ; class QHttpHeaderPrivate const * QHttpHeader::d_func(void) const
	?tr@QUdpSocket@@SA?AVQString@@PBD0@Z @ 70 NONAME ; class QString QUdpSocket::tr(char const *, char const *)
	?tr@QFtp@@SA?AVQString@@PBD0H@Z @ 71 NONAME ; class QString QFtp::tr(char const *, char const *, int)
	?setRawHeader@QNetworkRequest@@QAEXABVQByteArray@@0@Z @ 72 NONAME ; void QNetworkRequest::setRawHeader(class QByteArray const &, class QByteArray const &)
	?currentCommand@QFtp@@QBE?AW4Command@1@XZ @ 73 NONAME ; enum QFtp::Command QFtp::currentCommand(void) const
	?ciphers@QSslSocket@@QBE?AV?$QList@VQSslCipher@@@@XZ @ 74 NONAME ; class QList<class QSslCipher> QSslSocket::ciphers(void) const
	?listen@QLocalServer@@QAE_NABVQString@@@Z @ 75 NONAME ; bool QLocalServer::listen(class QString const &)
	?contentType@QHttpHeader@@QBE?AVQString@@XZ @ 76 NONAME ; class QString QHttpHeader::contentType(void) const
	?removeServer@QLocalServer@@SA_NABVQString@@@Z @ 77 NONAME ; bool QLocalServer::removeServer(class QString const &)
	?path@QNetworkCookie@@QBE?AVQString@@XZ @ 78 NONAME ; class QString QNetworkCookie::path(void) const
	?clearPendingCommands@QFtp@@QAEXXZ @ 79 NONAME ; void QFtp::clearPendingCommands(void)
	?state@QLocalSocket@@QBE?AW4LocalSocketState@1@XZ @ 80 NONAME ; enum QLocalSocket::LocalSocketState QLocalSocket::state(void) const
	?setReadBufferSize@QLocalSocket@@QAEX_J@Z @ 81 NONAME ; void QLocalSocket::setReadBufferSize(long long)
	?getStaticMetaObject@QNetworkCookieJar@@SAABUQMetaObject@@XZ @ 82 NONAME ; struct QMetaObject const & QNetworkCookieJar::getStaticMetaObject(void)
	?tr@QNetworkDiskCache@@SA?AVQString@@PBD0@Z @ 83 NONAME ; class QString QNetworkDiskCache::tr(char const *, char const *)
	?socketDescriptor@QLocalSocket@@QBEIXZ @ 84 NONAME ; unsigned int QLocalSocket::socketDescriptor(void) const
	?qt_metacall@QNetworkAccessManager@@UAEHW4Call@QMetaObject@@HPAPAX@Z @ 85 NONAME ; int QNetworkAccessManager::qt_metacall(enum QMetaObject::Call, int, void * *)
	?addCaCertificates@QSslSocket@@QAE_NABVQString@@W4EncodingFormat@QSsl@@W4PatternSyntax@QRegExp@@@Z @ 86 NONAME ; bool QSslSocket::addCaCertificates(class QString const &, enum QSsl::EncodingFormat, enum QRegExp::PatternSyntax)
	?isInSubnet@QHostAddress@@QBE_NABV1@H@Z @ 87 NONAME ; bool QHostAddress::isInSubnet(class QHostAddress const &, int) const
	??8QNetworkProxyQuery@@QBE_NABV0@@Z @ 88 NONAME ; bool QNetworkProxyQuery::operator==(class QNetworkProxyQuery const &) const
	?isNull@QSslKey@@QBE_NXZ @ 89 NONAME ; bool QSslKey::isNull(void) const
	?sslErrors@QHttp@@IAEXABV?$QList@VQSslError@@@@@Z @ 90 NONAME ; void QHttp::sslErrors(class QList<class QSslError> const &)
	?newConnection@QLocalServer@@IAEXXZ @ 91 NONAME ; void QLocalServer::newConnection(void)
	?done@QHttp@@IAEX_N@Z @ 92 NONAME ; void QHttp::done(bool)
	??4QNetworkCacheMetaData@@QAEAAV0@ABV0@@Z @ 93 NONAME ; class QNetworkCacheMetaData & QNetworkCacheMetaData::operator=(class QNetworkCacheMetaData const &)
	?staticMetaObject@QTcpSocket@@2UQMetaObject@@B @ 94 NONAME ; struct QMetaObject const QTcpSocket::staticMetaObject
	??9QNetworkCookie@@QBE_NABV0@@Z @ 95 NONAME ; bool QNetworkCookie::operator!=(class QNetworkCookie const &) const
	?rawHeaderList@QNetworkRequest@@QBE?AV?$QList@VQByteArray@@@@XZ @ 96 NONAME ; class QList<class QByteArray> QNetworkRequest::rawHeaderList(void) const
	?authenticationRequired@QNetworkAccessManager@@IAEXPAVQNetworkReply@@PAVQAuthenticator@@@Z @ 97 NONAME ; void QNetworkAccessManager::authenticationRequired(class QNetworkReply *, class QAuthenticator *)
	?trUtf8@QTcpSocket@@SA?AVQString@@PBD0H@Z @ 98 NONAME ; class QString QTcpSocket::trUtf8(char const *, char const *, int)
	?trUtf8@QTcpSocket@@SA?AVQString@@PBD0@Z @ 99 NONAME ; class QString QTcpSocket::trUtf8(char const *, char const *)
	?setProtocol@QSslSocket@@QAEXW4SslProtocol@QSsl@@@Z @ 100 NONAME ; void QSslSocket::setProtocol(enum QSsl::SslProtocol)
	?atEnd@QSslSocket@@UBE_NXZ @ 101 NONAME ; bool QSslSocket::atEnd(void) const
	?staticMetaObject@QTcpServer@@2UQMetaObject@@B @ 102 NONAME ; struct QMetaObject const QTcpServer::staticMetaObject
	?publicKey@QSslCertificate@@QBE?AVQSslKey@@XZ @ 103 NONAME ; class QSslKey QSslCertificate::publicKey(void) const
	?bytesToWrite@QAbstractSocket@@UBE_JXZ @ 104 NONAME ; long long QAbstractSocket::bytesToWrite(void) const
	?getStaticMetaObject@QAbstractNetworkCache@@SAABUQMetaObject@@XZ @ 105 NONAME ; struct QMetaObject const & QAbstractNetworkCache::getStaticMetaObject(void)
	?setCookiesFromUrl@QNetworkCookieJar@@UAE_NABV?$QList@VQNetworkCookie@@@@ABVQUrl@@@Z @ 106 NONAME ; bool QNetworkCookieJar::setCookiesFromUrl(class QList<class QNetworkCookie> const &, class QUrl const &)
	?responseHeaderReceived@QHttp@@IAEXABVQHttpResponseHeader@@@Z @ 107 NONAME ; void QHttp::responseHeaderReceived(class QHttpResponseHeader const &)
	?setCache@QNetworkAccessManager@@QAEXPAVQAbstractNetworkCache@@@Z @ 108 NONAME ; void QNetworkAccessManager::setCache(class QAbstractNetworkCache *)
	?ciphers@QSslConfiguration@@QBE?AV?$QList@VQSslCipher@@@@XZ @ 109 NONAME ; class QList<class QSslCipher> QSslConfiguration::ciphers(void) const
	?certificate@QSslError@@QBE?AVQSslCertificate@@XZ @ 110 NONAME ; class QSslCertificate QSslError::certificate(void) const
	?isNull@QSslConfiguration@@QBE_NXZ @ 111 NONAME ; bool QSslConfiguration::isNull(void) const
	?staticMetaObject@QLocalSocket@@2UQMetaObject@@B @ 112 NONAME ; struct QMetaObject const QLocalSocket::staticMetaObject
	?metaObject@QAbstractSocket@@UBEPBUQMetaObject@@XZ @ 113 NONAME ; struct QMetaObject const * QAbstractSocket::metaObject(void) const
	?isInSubnet@QHostAddress@@QBE_NABU?$QPair@VQHostAddress@@H@@@Z @ 114 NONAME ; bool QHostAddress::isInSubnet(struct QPair<class QHostAddress, int> const &) const
	?setPrefixLength@QNetworkAddressEntry@@QAEXH@Z @ 115 NONAME ; void QNetworkAddressEntry::setPrefixLength(int)
	?hasContentLength@QHttpHeader@@QBE_NXZ @ 116 NONAME ; bool QHttpHeader::hasContentLength(void) const
	??4QNetworkInterface@@QAEAAV0@ABV0@@Z @ 117 NONAME ; class QNetworkInterface & QNetworkInterface::operator=(class QNetworkInterface const &)
	?waitForConnected@QSslSocket@@QAE_NH@Z @ 118 NONAME ; bool QSslSocket::waitForConnected(int)
	?staticMetaObject@QLocalServer@@2UQMetaObject@@B @ 119 NONAME ; struct QMetaObject const QLocalServer::staticMetaObject
	?metaObject@QLocalSocket@@UBEPBUQMetaObject@@XZ @ 120 NONAME ; struct QMetaObject const * QLocalSocket::metaObject(void) const
	?lastModified@QUrlInfo@@QBE?AVQDateTime@@XZ @ 121 NONAME ; class QDateTime QUrlInfo::lastModified(void) const
	?setHeader@QNetworkRequest@@QAEXW4KnownHeaders@1@ABVQVariant@@@Z @ 122 NONAME ; void QNetworkRequest::setHeader(enum QNetworkRequest::KnownHeaders, class QVariant const &)
	?setValues@QHttpHeader@@QAEXABV?$QList@U?$QPair@VQString@@V1@@@@@@Z @ 123 NONAME ; void QHttpHeader::setValues(class QList<struct QPair<class QString, class QString> > const &)
	?setSocket@QHttp@@QAEHPAVQTcpSocket@@@Z @ 124 NONAME ; int QHttp::setSocket(class QTcpSocket *)
	?error@QAbstractSocket@@QBE?AW4SocketError@1@XZ @ 125 NONAME ; enum QAbstractSocket::SocketError QAbstractSocket::error(void) const
	?setProxyFactory@QNetworkAccessManager@@QAEXPAVQNetworkProxyFactory@@@Z @ 126 NONAME ; void QNetworkAccessManager::setProxyFactory(class QNetworkProxyFactory *)
	?hasContentType@QHttpHeader@@QBE_NXZ @ 127 NONAME ; bool QHttpHeader::hasContentType(void) const
	??9QSslCertificate@@QBE_NABV0@@Z @ 128 NONAME ; bool QSslCertificate::operator!=(class QSslCertificate const &) const
	?atEnd@QAbstractSocket@@UBE_NXZ @ 129 NONAME ; bool QAbstractSocket::atEnd(void) const
	?setPassword@QAuthenticator@@QAEXABVQString@@@Z @ 130 NONAME ; void QAuthenticator::setPassword(class QString const &)
	?tr@QAbstractNetworkCache@@SA?AVQString@@PBD0@Z @ 131 NONAME ; class QString QAbstractNetworkCache::tr(char const *, char const *)
	?algorithm@QSslKey@@QBE?AW4KeyAlgorithm@QSsl@@XZ @ 132 NONAME ; enum QSsl::KeyAlgorithm QSslKey::algorithm(void) const
	?abort@QSslSocket@@QAEXXZ @ 133 NONAME ; void QSslSocket::abort(void)
	??1QNetworkCookie@@QAE@XZ @ 134 NONAME ; QNetworkCookie::~QNetworkCookie(void)
	?stateChanged@QAbstractSocket@@IAEXW4SocketState@1@@Z @ 135 NONAME ; void QAbstractSocket::stateChanged(enum QAbstractSocket::SocketState)
	?getStaticMetaObject@QTcpServer@@SAABUQMetaObject@@XZ @ 136 NONAME ; struct QMetaObject const & QTcpServer::getStaticMetaObject(void)
	?connectToHost@QAbstractSocket@@QAEXABVQHostAddress@@GV?$QFlags@W4OpenModeFlag@QIODevice@@@@@Z @ 137 NONAME ; void QAbstractSocket::connectToHost(class QHostAddress const &, unsigned short, class QFlags<enum QIODevice::OpenModeFlag>)
	?currentDestinationDevice@QHttp@@QBEPAVQIODevice@@XZ @ 138 NONAME ; class QIODevice * QHttp::currentDestinationDevice(void) const
	?setCaCertificates@QSslConfiguration@@QAEXABV?$QList@VQSslCertificate@@@@@Z @ 139 NONAME ; void QSslConfiguration::setCaCertificates(class QList<class QSslCertificate> const &)
	?hostFound@QAbstractSocket@@IAEXXZ @ 140 NONAME ; void QAbstractSocket::hostFound(void)
	?hasPendingCommands@QFtp@@QBE_NXZ @ 141 NONAME ; bool QFtp::hasPendingCommands(void) const
	?d_func@QNetworkAccessManager@@ABEPBVQNetworkAccessManagerPrivate@@XZ @ 142 NONAME ; class QNetworkAccessManagerPrivate const * QNetworkAccessManager::d_func(void) const
	?isListening@QLocalServer@@QBE_NXZ @ 143 NONAME ; bool QLocalServer::isListening(void) const
	?closeConnection@QHttp@@QAEHXZ @ 144 NONAME ; int QHttp::closeConnection(void)
	?serverPort@QTcpServer@@QBEGXZ @ 145 NONAME ; unsigned short QTcpServer::serverPort(void) const
	?setMaximumCacheSize@QNetworkDiskCache@@QAEX_J@Z @ 146 NONAME ; void QNetworkDiskCache::setMaximumCacheSize(long long)
	?dataReadProgress@QHttp@@IAEXHH@Z @ 147 NONAME ; void QHttp::dataReadProgress(int, int)
	?protocolTag@QNetworkProxyQuery@@QBE?AVQString@@XZ @ 148 NONAME ; class QString QNetworkProxyQuery::protocolTag(void) const
	?addDefaultCaCertificate@QSslSocket@@SAXABVQSslCertificate@@@Z @ 149 NONAME ; void QSslSocket::addDefaultCaCertificate(class QSslCertificate const &)
	?waitForBytesWritten@QLocalSocket@@UAE_NH@Z @ 150 NONAME ; bool QLocalSocket::waitForBytesWritten(int)
	?peerPort@QAbstractSocket@@QBEGXZ @ 151 NONAME ; unsigned short QAbstractSocket::peerPort(void) const
	??8QHostAddress@@QBE_NW4SpecialAddress@0@@Z @ 152 NONAME ; bool QHostAddress::operator==(enum QHostAddress::SpecialAddress) const
	?readBufferSize@QAbstractSocket@@QBE_JXZ @ 153 NONAME ; long long QAbstractSocket::readBufferSize(void) const
	?tr@QUdpSocket@@SA?AVQString@@PBD0H@Z @ 154 NONAME ; class QString QUdpSocket::tr(char const *, char const *, int)
	?remove@QFtp@@QAEHABVQString@@@Z @ 155 NONAME ; int QFtp::remove(class QString const &)
	?humanReadableName@QNetworkInterface@@QBE?AVQString@@XZ @ 156 NONAME ; class QString QNetworkInterface::humanReadableName(void) const
	??8QSslError@@QBE_NABV0@@Z @ 157 NONAME ; bool QSslError::operator==(class QSslError const &) const
	??0QHostAddress@@QAE@W4SpecialAddress@0@@Z @ 158 NONAME ; QHostAddress::QHostAddress(enum QHostAddress::SpecialAddress)
	?put@QNetworkAccessManager@@QAEPAVQNetworkReply@@ABVQNetworkRequest@@PAVQIODevice@@@Z @ 159 NONAME ; class QNetworkReply * QNetworkAccessManager::put(class QNetworkRequest const &, class QIODevice *)
	?peerHostName@QNetworkProxyQuery@@QBE?AVQString@@XZ @ 160 NONAME ; class QString QNetworkProxyQuery::peerHostName(void) const
	?setError@QNetworkReply@@IAEXW4NetworkError@1@ABVQString@@@Z @ 161 NONAME ; void QNetworkReply::setError(enum QNetworkReply::NetworkError, class QString const &)
	??0QHttpResponseHeader@@QAE@HABVQString@@HH@Z @ 162 NONAME ; QHttpResponseHeader::QHttpResponseHeader(int, class QString const &, int, int)
	?url@QNetworkReply@@QBE?AVQUrl@@XZ @ 163 NONAME ; class QUrl QNetworkReply::url(void) const
	?setPermissions@QUrlInfo@@UAEXH@Z @ 164 NONAME ; void QUrlInfo::setPermissions(int)
	?serverAddress@QTcpServer@@QBE?AVQHostAddress@@XZ @ 165 NONAME ; class QHostAddress QTcpServer::serverAddress(void) const
	?setAddress@QHostAddress@@QAEXPBUsockaddr@@@Z @ 166 NONAME ; void QHostAddress::setAddress(struct sockaddr const *)
	?setSocketError@QAbstractSocket@@IAEXW4SocketError@1@@Z @ 167 NONAME ; void QAbstractSocket::setSocketError(enum QAbstractSocket::SocketError)
	?setUser@QAuthenticator@@QAEXABVQString@@@Z @ 168 NONAME ; void QAuthenticator::setUser(class QString const &)
	??4QAuthenticator@@QAEAAV0@ABV0@@Z @ 169 NONAME ; class QAuthenticator & QAuthenticator::operator=(class QAuthenticator const &)
	?tr@QNetworkReply@@SA?AVQString@@PBD0H@Z @ 170 NONAME ; class QString QNetworkReply::tr(char const *, char const *, int)
	?setCapabilities@QNetworkProxy@@QAEXV?$QFlags@W4Capability@QNetworkProxy@@@@@Z @ 171 NONAME ; void QNetworkProxy::setCapabilities(class QFlags<enum QNetworkProxy::Capability>)
	?tr@QAbstractSocket@@SA?AVQString@@PBD0@Z @ 172 NONAME ; class QString QAbstractSocket::tr(char const *, char const *)
	??0QSslKey@@QAE@XZ @ 173 NONAME ; QSslKey::QSslKey(void)
	?rawCommandReply@QFtp@@IAEXHABVQString@@@Z @ 174 NONAME ; void QFtp::rawCommandReply(int, class QString const &)
	?canReadLine@QSslSocket@@UBE_NXZ @ 175 NONAME ; bool QSslSocket::canReadLine(void) const
	?d_func@QHttpResponseHeader@@AAEPAVQHttpResponseHeaderPrivate@@XZ @ 176 NONAME ; class QHttpResponseHeaderPrivate * QHttpResponseHeader::d_func(void)
	?setStatusLine@QHttpResponseHeader@@QAEXHABVQString@@HH@Z @ 177 NONAME ; void QHttpResponseHeader::setStatusLine(int, class QString const &, int, int)
	?setPeerAddress@QAbstractSocket@@IAEXABVQHostAddress@@@Z @ 178 NONAME ; void QAbstractSocket::setPeerAddress(class QHostAddress const &)
	?method@QHttpRequestHeader@@QBE?AVQString@@XZ @ 179 NONAME ; class QString QHttpRequestHeader::method(void) const
	??0QHostAddress@@QAE@ABV0@@Z @ 180 NONAME ; QHostAddress::QHostAddress(class QHostAddress const &)
	?allAddresses@QNetworkInterface@@SA?AV?$QList@VQHostAddress@@@@XZ @ 181 NONAME ; class QList<class QHostAddress> QNetworkInterface::allAddresses(void)
	??0QHttpResponseHeader@@QAE@XZ @ 182 NONAME ; QHttpResponseHeader::QHttpResponseHeader(void)
	?version@QSslCertificate@@QBE?AVQByteArray@@XZ @ 183 NONAME ; class QByteArray QSslCertificate::version(void) const
	?tr@QHttp@@SA?AVQString@@PBD0@Z @ 184 NONAME ; class QString QHttp::tr(char const *, char const *)
	?d_func@QNetworkDiskCache@@ABEPBVQNetworkDiskCachePrivate@@XZ @ 185 NONAME ; class QNetworkDiskCachePrivate const * QNetworkDiskCache::d_func(void) const
	??0QNetworkCacheMetaData@@QAE@XZ @ 186 NONAME ; QNetworkCacheMetaData::QNetworkCacheMetaData(void)
	?trUtf8@QUdpSocket@@SA?AVQString@@PBD0H@Z @ 187 NONAME ; class QString QUdpSocket::trUtf8(char const *, char const *, int)
	?setAttribute@QNetworkReply@@IAEXW4Attribute@QNetworkRequest@@ABVQVariant@@@Z @ 188 NONAME ; void QNetworkReply::setAttribute(enum QNetworkRequest::Attribute, class QVariant const &)
	??9QNetworkRequest@@QBE_NABV0@@Z @ 189 NONAME ; bool QNetworkRequest::operator!=(class QNetworkRequest const &) const
	?tr@QTcpServer@@SA?AVQString@@PBD0@Z @ 190 NONAME ; class QString QTcpServer::tr(char const *, char const *)
	?canReadLine@QAbstractSocket@@UBE_NXZ @ 191 NONAME ; bool QAbstractSocket::canReadLine(void) const
	?disconnectFromHostImplementation@QAbstractSocket@@IAEXXZ @ 192 NONAME ; void QAbstractSocket::disconnectFromHostImplementation(void)
	??6@YAAAVQDataStream@@AAV0@ABVQHostAddress@@@Z @ 193 NONAME ; class QDataStream & operator<<(class QDataStream &, class QHostAddress const &)
	?supportedBits@QSslCipher@@QBEHXZ @ 194 NONAME ; int QSslCipher::supportedBits(void) const
	?isSymLink@QUrlInfo@@QBE_NXZ @ 195 NONAME ; bool QUrlInfo::isSymLink(void) const
	??6@YA?AVQDebug@@V0@W4LocalSocketError@QLocalSocket@@@Z @ 196 NONAME ; class QDebug operator<<(class QDebug, enum QLocalSocket::LocalSocketError)
	?qt_metacast@QTcpSocket@@UAEPAXPBD@Z @ 197 NONAME ; void * QTcpSocket::qt_metacast(char const *)
	?serverName@QLocalSocket@@QBE?AVQString@@XZ @ 198 NONAME ; class QString QLocalSocket::serverName(void) const
	?setExpirationDate@QNetworkCacheMetaData@@QAEXABVQDateTime@@@Z @ 199 NONAME ; void QNetworkCacheMetaData::setExpirationDate(class QDateTime const &)
	??_EQNetworkDiskCache@@UAE@I@Z @ 200 NONAME ; QNetworkDiskCache::~QNetworkDiskCache(unsigned int)
	??0QUdpSocket@@QAE@PAVQObject@@@Z @ 201 NONAME ; QUdpSocket::QUdpSocket(class QObject *)
	?lastResponse@QHttp@@QBE?AVQHttpResponseHeader@@XZ @ 202 NONAME ; class QHttpResponseHeader QHttp::lastResponse(void) const
	?d_func@QTcpSocket@@AAEPAVQTcpSocketPrivate@@XZ @ 203 NONAME ; class QTcpSocketPrivate * QTcpSocket::d_func(void)
	??4QNetworkProxy@@QAEAAV0@ABV0@@Z @ 204 NONAME ; class QNetworkProxy & QNetworkProxy::operator=(class QNetworkProxy const &)
	?rawHeader@QNetworkReply@@QBE?AVQByteArray@@ABV2@@Z @ 205 NONAME ; class QByteArray QNetworkReply::rawHeader(class QByteArray const &) const
	?waitForEncrypted@QSslSocket@@QAE_NH@Z @ 206 NONAME ; bool QSslSocket::waitForEncrypted(int)
	?peerAddress@QAbstractSocket@@QBE?AVQHostAddress@@XZ @ 207 NONAME ; class QHostAddress QAbstractSocket::peerAddress(void) const
	?d_func@QTcpServer@@AAEPAVQTcpServerPrivate@@XZ @ 208 NONAME ; class QTcpServerPrivate * QTcpServer::d_func(void)
	?clear@QSslCertificate@@QAEXXZ @ 209 NONAME ; void QSslCertificate::clear(void)
	?setLastRead@QUrlInfo@@QAEXABVQDateTime@@@Z @ 210 NONAME ; void QUrlInfo::setLastRead(class QDateTime const &)
	?metaObject@QSslSocket@@UBEPBUQMetaObject@@XZ @ 211 NONAME ; struct QMetaObject const * QSslSocket::metaObject(void) const
	?setUrl@QNetworkRequest@@QAEXABVQUrl@@@Z @ 212 NONAME ; void QNetworkRequest::setUrl(class QUrl const &)
	?header@QNetworkRequest@@QBE?AVQVariant@@W4KnownHeaders@1@@Z @ 213 NONAME ; class QVariant QNetworkRequest::header(enum QNetworkRequest::KnownHeaders) const
	?d_func@QAbstractSocket@@AAEPAVQAbstractSocketPrivate@@XZ @ 214 NONAME ; class QAbstractSocketPrivate * QAbstractSocket::d_func(void)
	??_EQHttpHeader@@UAE@I@Z @ 215 NONAME ; QHttpHeader::~QHttpHeader(unsigned int)
	?readData@QSslSocket@@MAE_JPAD_J@Z @ 216 NONAME ; long long QSslSocket::readData(char *, long long)
	??0QHostAddress@@QAE@XZ @ 217 NONAME ; QHostAddress::QHostAddress(void)
	?errorString@QHostInfo@@QBE?AVQString@@XZ @ 218 NONAME ; class QString QHostInfo::errorString(void) const
	?waitForDisconnected@QSslSocket@@QAE_NH@Z @ 219 NONAME ; bool QSslSocket::waitForDisconnected(int)
	?encryptedBytesWritten@QSslSocket@@IAEX_J@Z @ 220 NONAME ; void QSslSocket::encryptedBytesWritten(long long)
	?tr@QAbstractNetworkCache@@SA?AVQString@@PBD0H@Z @ 221 NONAME ; class QString QAbstractNetworkCache::tr(char const *, char const *, int)
	?setRawHeaders@QNetworkCacheMetaData@@QAEXABV?$QList@U?$QPair@VQByteArray@@V1@@@@@@Z @ 222 NONAME ; void QNetworkCacheMetaData::setRawHeaders(class QList<struct QPair<class QByteArray, class QByteArray> > const &)
	??0QAuthenticator@@QAE@ABV0@@Z @ 223 NONAME ; QAuthenticator::QAuthenticator(class QAuthenticator const &)
	?downloadProgress@QNetworkReply@@IAEX_J0@Z @ 224 NONAME ; void QNetworkReply::downloadProgress(long long, long long)
	?cacheDirectory@QNetworkDiskCache@@QBE?AVQString@@XZ @ 225 NONAME ; class QString QNetworkDiskCache::cacheDirectory(void) const
	?put@QNetworkAccessManager@@QAEPAVQNetworkReply@@ABVQNetworkRequest@@ABVQByteArray@@@Z @ 226 NONAME ; class QNetworkReply * QNetworkAccessManager::put(class QNetworkRequest const &, class QByteArray const &)
	??4QHostAddress@@QAEAAV0@ABV0@@Z @ 227 NONAME ; class QHostAddress & QHostAddress::operator=(class QHostAddress const &)
	?tr@QLocalServer@@SA?AVQString@@PBD0@Z @ 228 NONAME ; class QString QLocalServer::tr(char const *, char const *)
	?setPrivateKey@QSslSocket@@QAEXABVQSslKey@@@Z @ 229 NONAME ; void QSslSocket::setPrivateKey(class QSslKey const &)
	?localPort@QAbstractSocket@@QBEGXZ @ 230 NONAME ; unsigned short QAbstractSocket::localPort(void) const
	?cookiesForUrl@QNetworkCookieJar@@UBE?AV?$QList@VQNetworkCookie@@@@ABVQUrl@@@Z @ 231 NONAME ; class QList<class QNetworkCookie> QNetworkCookieJar::cookiesForUrl(class QUrl const &) const
	?hasPendingDatagrams@QUdpSocket@@QBE_NXZ @ 232 NONAME ; bool QUdpSocket::hasPendingDatagrams(void) const
	??0QNetworkAddressEntry@@QAE@ABV0@@Z @ 233 NONAME ; QNetworkAddressEntry::QNetworkAddressEntry(class QNetworkAddressEntry const &)
	??0QUrlInfo@@QAE@ABVQUrl@@HABVQString@@1_JABVQDateTime@@3_N44444@Z @ 234 NONAME ; QUrlInfo::QUrlInfo(class QUrl const &, int, class QString const &, class QString const &, long long, class QDateTime const &, class QDateTime const &, bool, bool, bool, bool, bool, bool)
	?commandFinished@QFtp@@IAEXH_N@Z @ 235 NONAME ; void QFtp::commandFinished(int, bool)
	??0QHostAddress@@QAE@ABVQIPv6Address@@@Z @ 236 NONAME ; QHostAddress::QHostAddress(class QIPv6Address const &)
	?supportsSsl@QSslSocket@@SA_NXZ @ 237 NONAME ; bool QSslSocket::supportsSsl(void)
	?post@QHttp@@QAEHABVQString@@ABVQByteArray@@PAVQIODevice@@@Z @ 238 NONAME ; int QHttp::post(class QString const &, class QByteArray const &, class QIODevice *)
	??8QNetworkAddressEntry@@QBE_NABV0@@Z @ 239 NONAME ; bool QNetworkAddressEntry::operator==(class QNetworkAddressEntry const &) const
	??6@YA?AVQDebug@@V0@ABVQHostAddress@@@Z @ 240 NONAME ; class QDebug operator<<(class QDebug, class QHostAddress const &)
	??9QHostAddress@@QBE_NABV0@@Z @ 241 NONAME ; bool QHostAddress::operator!=(class QHostAddress const &) const
	?qt_metacall@QLocalServer@@UAEHW4Call@QMetaObject@@HPAPAX@Z @ 242 NONAME ; int QLocalServer::qt_metacall(enum QMetaObject::Call, int, void * *)
	??0QNetworkCookieJar@@QAE@PAVQObject@@@Z @ 243 NONAME ; QNetworkCookieJar::QNetworkCookieJar(class QObject *)
	?writeData@QNetworkReply@@MAE_JPBD_J@Z @ 244 NONAME ; long long QNetworkReply::writeData(char const *, long long)
	?metaObject@QTcpSocket@@UBEPBUQMetaObject@@XZ @ 245 NONAME ; struct QMetaObject const * QTcpSocket::metaObject(void) const
	??8QHostAddress@@QBE_NABV0@@Z @ 246 NONAME ; bool QHostAddress::operator==(class QHostAddress const &) const
	??6@YA?AVQDebug@@V0@ABW4SslError@QSslError@@@Z @ 247 NONAME ; class QDebug operator<<(class QDebug, enum QSslError::SslError const &)
	??0QNetworkProxy@@QAE@XZ @ 248 NONAME ; QNetworkProxy::QNetworkProxy(void)
	??1QSslCipher@@QAE@XZ @ 249 NONAME ; QSslCipher::~QSslCipher(void)
	??_EQAbstractNetworkCache@@UAE@I@Z @ 250 NONAME ; QAbstractNetworkCache::~QAbstractNetworkCache(unsigned int)
	?handle@QSslCertificate@@QBEKXZ @ 251 NONAME ; unsigned long QSslCertificate::handle(void) const
	?flags@QNetworkInterface@@QBE?AV?$QFlags@W4InterfaceFlag@QNetworkInterface@@@@XZ @ 252 NONAME ; class QFlags<enum QNetworkInterface::InterfaceFlag> QNetworkInterface::flags(void) const
	?error@QHttp@@QBE?AW4Error@1@XZ @ 253 NONAME ; enum QHttp::Error QHttp::error(void) const
	?qt_metacall@QNetworkDiskCache@@UAEHW4Call@QMetaObject@@HPAPAX@Z @ 254 NONAME ; int QNetworkDiskCache::qt_metacall(enum QMetaObject::Call, int, void * *)
	??0QHttpRequestHeader@@QAE@ABVQString@@0HH@Z @ 255 NONAME ; QHttpRequestHeader::QHttpRequestHeader(class QString const &, class QString const &, int, int)
	?setCiphers@QSslConfiguration@@QAEXABV?$QList@VQSslCipher@@@@@Z @ 256 NONAME ; void QSslConfiguration::setCiphers(class QList<class QSslCipher> const &)
	?setType@QNetworkProxy@@QAEXW4ProxyType@1@@Z @ 257 NONAME ; void QNetworkProxy::setType(enum QNetworkProxy::ProxyType)
	??1QTcpSocket@@UAE@XZ @ 258 NONAME ; QTcpSocket::~QTcpSocket(void)
	?abort@QHttp@@QAEXXZ @ 259 NONAME ; void QHttp::abort(void)
	?setUrl@QNetworkProxyQuery@@QAEXABVQUrl@@@Z @ 260 NONAME ; void QNetworkProxyQuery::setUrl(class QUrl const &)
	??_EQSslCipher@@QAE@I@Z @ 261 NONAME ; QSslCipher::~QSslCipher(unsigned int)
	?d_func@QAbstractNetworkCache@@ABEPBVQAbstractNetworkCachePrivate@@XZ @ 262 NONAME ; class QAbstractNetworkCachePrivate const * QAbstractNetworkCache::d_func(void) const
	??9QSslKey@@QBE_NABV0@@Z @ 263 NONAME ; bool QSslKey::operator!=(class QSslKey const &) const
	??_EQSslConfiguration@@QAE@I@Z @ 264 NONAME ; QSslConfiguration::~QSslConfiguration(unsigned int)
	?waitForDisconnected@QAbstractSocket@@QAE_NH@Z @ 265 NONAME ; bool QAbstractSocket::waitForDisconnected(int)
	??9QUrlInfo@@QBE_NABV0@@Z @ 266 NONAME ; bool QUrlInfo::operator!=(class QUrlInfo const &) const
	?readyRead@QFtp@@IAEXXZ @ 267 NONAME ; void QFtp::readyRead(void)
	??1QNetworkProxyFactory@@UAE@XZ @ 268 NONAME ; QNetworkProxyFactory::~QNetworkProxyFactory(void)
	?toIPv6Address@QHostAddress@@QBE?AVQIPv6Address@@XZ @ 269 NONAME ; class QIPv6Address QHostAddress::toIPv6Address(void) const
	?staticMetaObject@QUdpSocket@@2UQMetaObject@@B @ 270 NONAME ; struct QMetaObject const QUdpSocket::staticMetaObject
	?prefixLength@QNetworkAddressEntry@@QBEHXZ @ 271 NONAME ; int QNetworkAddressEntry::prefixLength(void) const
	??0QHttpResponseHeader@@QAE@ABVQString@@@Z @ 272 NONAME ; QHttpResponseHeader::QHttpResponseHeader(class QString const &)
	??0QNetworkInterface@@QAE@ABV0@@Z @ 273 NONAME ; QNetworkInterface::QNetworkInterface(class QNetworkInterface const &)
	?getStaticMetaObject@QNetworkAccessManager@@SAABUQMetaObject@@XZ @ 274 NONAME ; struct QMetaObject const & QNetworkAccessManager::getStaticMetaObject(void)
	??4QSslKey@@QAEAAV0@ABV0@@Z @ 275 NONAME ; class QSslKey & QSslKey::operator=(class QSslKey const &)
	?waitForBytesWritten@QAbstractSocket@@UAE_NH@Z @ 276 NONAME ; bool QAbstractSocket::waitForBytesWritten(int)
	?metaObject@QNetworkReply@@UBEPBUQMetaObject@@XZ @ 277 NONAME ; struct QMetaObject const * QNetworkReply::metaObject(void) const
	??1QSslCertificate@@QAE@XZ @ 278 NONAME ; QSslCertificate::~QSslCertificate(void)
	?listen@QTcpServer@@QAE_NABVQHostAddress@@G@Z @ 279 NONAME ; bool QTcpServer::listen(class QHostAddress const &, unsigned short)
	??1QHttpRequestHeader@@UAE@XZ @ 280 NONAME ; QHttpRequestHeader::~QHttpRequestHeader(void)
	?writeData@QSslSocket@@MAE_JPBD_J@Z @ 281 NONAME ; long long QSslSocket::writeData(char const *, long long)
	?setUser@QHttp@@QAEHABVQString@@0@Z @ 282 NONAME ; int QHttp::setUser(class QString const &, class QString const &)
	?name@QUrlInfo@@QBE?AVQString@@XZ @ 283 NONAME ; class QString QUrlInfo::name(void) const
	?trUtf8@QUdpSocket@@SA?AVQString@@PBD0@Z @ 284 NONAME ; class QString QUdpSocket::trUtf8(char const *, char const *)
	?peerVerifyMode@QSslSocket@@QBE?AW4PeerVerifyMode@1@XZ @ 285 NONAME ; enum QSslSocket::PeerVerifyMode QSslSocket::peerVerifyMode(void) const
	?serialNumber@QSslCertificate@@QBE?AVQByteArray@@XZ @ 286 NONAME ; class QByteArray QSslCertificate::serialNumber(void) const
	?isCachingProxy@QNetworkProxy@@QBE_NXZ @ 287 NONAME ; bool QNetworkProxy::isCachingProxy(void) const
	?setTransferMode@QFtp@@QAEHW4TransferMode@1@@Z @ 288 NONAME ; int QFtp::setTransferMode(enum QFtp::TransferMode)
	??0QHostAddress@@QAE@PAE@Z @ 289 NONAME ; QHostAddress::QHostAddress(unsigned char *)
	?waitForConnected@QAbstractSocket@@QAE_NH@Z @ 290 NONAME ; bool QAbstractSocket::waitForConnected(int)
	?startServerEncryption@QSslSocket@@QAEXXZ @ 291 NONAME ; void QSslSocket::startServerEncryption(void)
	?setRequest@QHttpRequestHeader@@QAEXABVQString@@0HH@Z @ 292 NONAME ; void QHttpRequestHeader::setRequest(class QString const &, class QString const &, int, int)
	?maximumCacheSize@QNetworkDiskCache@@QBE_JXZ @ 293 NONAME ; long long QNetworkDiskCache::maximumCacheSize(void) const
	?fromPath@QSslCertificate@@SA?AV?$QList@VQSslCertificate@@@@ABVQString@@W4EncodingFormat@QSsl@@W4PatternSyntax@QRegExp@@@Z @ 294 NONAME ; class QList<class QSslCertificate> QSslCertificate::fromPath(class QString const &, enum QSsl::EncodingFormat, enum QRegExp::PatternSyntax)
	?qt_metacall@QTcpSocket@@UAEHW4Call@QMetaObject@@HPAPAX@Z @ 295 NONAME ; int QTcpSocket::qt_metacall(enum QMetaObject::Call, int, void * *)
	??1QNetworkRequest@@QAE@XZ @ 296 NONAME ; QNetworkRequest::~QNetworkRequest(void)
	?insert@QNetworkDiskCache@@UAEXPAVQIODevice@@@Z @ 297 NONAME ; void QNetworkDiskCache::insert(class QIODevice *)
	??1QUdpSocket@@UAE@XZ @ 298 NONAME ; QUdpSocket::~QUdpSocket(void)
	?tr@QTcpServer@@SA?AVQString@@PBD0H@Z @ 299 NONAME ; class QString QTcpServer::tr(char const *, char const *, int)
	?serverError@QLocalServer@@QBE?AW4SocketError@QAbstractSocket@@XZ @ 300 NONAME ; enum QAbstractSocket::SocketError QLocalServer::serverError(void) const
	?d_func@QLocalSocket@@AAEPAVQLocalSocketPrivate@@XZ @ 301 NONAME ; class QLocalSocketPrivate * QLocalSocket::d_func(void)
	?trUtf8@QLocalServer@@SA?AVQString@@PBD0@Z @ 302 NONAME ; class QString QLocalServer::trUtf8(char const *, char const *)
	?abortHostLookup@QHostInfo@@SAXH@Z @ 303 NONAME ; void QHostInfo::abortHostLookup(int)
	?setOwner@QUrlInfo@@UAEXABVQString@@@Z @ 304 NONAME ; void QUrlInfo::setOwner(class QString const &)
	?tr@QLocalServer@@SA?AVQString@@PBD0H@Z @ 305 NONAME ; class QString QLocalServer::tr(char const *, char const *, int)
	?close@QLocalSocket@@UAEXXZ @ 306 NONAME ; void QLocalSocket::close(void)
	??8QAuthenticator@@QBE_NABV0@@Z @ 307 NONAME ; bool QAuthenticator::operator==(class QAuthenticator const &) const
	?setSslConfiguration@QNetworkRequest@@QAEXABVQSslConfiguration@@@Z @ 308 NONAME ; void QNetworkRequest::setSslConfiguration(class QSslConfiguration const &)
	?capabilities@QNetworkProxy@@QBE?AV?$QFlags@W4Capability@QNetworkProxy@@@@XZ @ 309 NONAME ; class QFlags<enum QNetworkProxy::Capability> QNetworkProxy::capabilities(void) const
	?waitForNewConnection@QLocalServer@@QAE_NHPA_N@Z @ 310 NONAME ; bool QLocalServer::waitForNewConnection(int, bool *)
	?setLocalCertificate@QSslSocket@@QAEXABVQSslCertificate@@@Z @ 311 NONAME ; void QSslSocket::setLocalCertificate(class QSslCertificate const &)
	?addValue@QHttpHeader@@QAEXABVQString@@0@Z @ 312 NONAME ; void QHttpHeader::addValue(class QString const &, class QString const &)
	?cache@QNetworkAccessManager@@QBEPAVQAbstractNetworkCache@@XZ @ 313 NONAME ; class QAbstractNetworkCache * QNetworkAccessManager::cache(void) const
	??0QSslKey@@QAE@ABVQByteArray@@W4KeyAlgorithm@QSsl@@W4EncodingFormat@3@W4KeyType@3@0@Z @ 314 NONAME ; QSslKey::QSslKey(class QByteArray const &, enum QSsl::KeyAlgorithm, enum QSsl::EncodingFormat, enum QSsl::KeyType, class QByteArray const &)
	?toPem@QSslKey@@QBE?AVQByteArray@@ABV2@@Z @ 315 NONAME ; class QByteArray QSslKey::toPem(class QByteArray const &) const
	?tr@QNetworkAccessManager@@SA?AVQString@@PBD0@Z @ 316 NONAME ; class QString QNetworkAccessManager::tr(char const *, char const *)
	?setIp@QNetworkAddressEntry@@QAEXABVQHostAddress@@@Z @ 317 NONAME ; void QNetworkAddressEntry::setIp(class QHostAddress const &)
	?stateChanged@QHttp@@IAEXH@Z @ 318 NONAME ; void QHttp::stateChanged(int)
	?setHttpOnly@QNetworkCookie@@QAEX_N@Z @ 319 NONAME ; void QNetworkCookie::setHttpOnly(bool)
	?url@QNetworkRequest@@QBE?AVQUrl@@XZ @ 320 NONAME ; class QUrl QNetworkRequest::url(void) const
	?cd@QFtp@@QAEHABVQString@@@Z @ 321 NONAME ; int QFtp::cd(class QString const &)
	?attribute@QNetworkRequest@@QBE?AVQVariant@@W4Attribute@1@ABV2@@Z @ 322 NONAME ; class QVariant QNetworkRequest::attribute(enum QNetworkRequest::Attribute, class QVariant const &) const
	?protocol@QSslCipher@@QBE?AW4SslProtocol@QSsl@@XZ @ 323 NONAME ; enum QSsl::SslProtocol QSslCipher::protocol(void) const
	?setHostName@QHostInfo@@QAEXABVQString@@@Z @ 324 NONAME ; void QHostInfo::setHostName(class QString const &)
	??5@YAAAVQDataStream@@AAV0@AAVQNetworkCacheMetaData@@@Z @ 325 NONAME ; class QDataStream & operator>>(class QDataStream &, class QNetworkCacheMetaData &)
	?subjectInfo@QSslCertificate@@QBE?AVQString@@W4SubjectInfo@1@@Z @ 326 NONAME ; class QString QSslCertificate::subjectInfo(enum QSslCertificate::SubjectInfo) const
	??_EQNetworkAddressEntry@@QAE@I@Z @ 327 NONAME ; QNetworkAddressEntry::~QNetworkAddressEntry(unsigned int)
	?setCiphers@QSslSocket@@QAEXABV?$QList@VQSslCipher@@@@@Z @ 328 NONAME ; void QSslSocket::setCiphers(class QList<class QSslCipher> const &)
	?bytesToWrite@QLocalSocket@@UBE_JXZ @ 329 NONAME ; long long QLocalSocket::bytesToWrite(void) const
	?setSize@QUrlInfo@@UAEX_J@Z @ 330 NONAME ; void QUrlInfo::setSize(long long)
	?isValid@QAbstractSocket@@QBE_NXZ @ 331 NONAME ; bool QAbstractSocket::isValid(void) const
	?qt_metacall@QNetworkCookieJar@@UAEHW4Call@QMetaObject@@HPAPAX@Z @ 332 NONAME ; int QNetworkCookieJar::qt_metacall(enum QMetaObject::Call, int, void * *)
	?d_func@QTcpSocket@@ABEPBVQTcpSocketPrivate@@XZ @ 333 NONAME ; class QTcpSocketPrivate const * QTcpSocket::d_func(void) const
	?state@QFtp@@QBE?AW4State@1@XZ @ 334 NONAME ; enum QFtp::State QFtp::state(void) const
	?socketOption@QAbstractSocket@@QAE?AVQVariant@@W4SocketOption@1@@Z @ 335 NONAME ; class QVariant QAbstractSocket::socketOption(enum QAbstractSocket::SocketOption)
	??0QHostAddress@@QAE@ABVQString@@@Z @ 336 NONAME ; QHostAddress::QHostAddress(class QString const &)
	?d_func@QTcpServer@@ABEPBVQTcpServerPrivate@@XZ @ 337 NONAME ; class QTcpServerPrivate const * QTcpServer::d_func(void) const
	?clear@QSslKey@@QAEXXZ @ 338 NONAME ; void QSslKey::clear(void)
	??6@YA?AVQDebug@@V0@ABVQNetworkInterface@@@Z @ 339 NONAME ; class QDebug operator<<(class QDebug, class QNetworkInterface const &)
	?contentLength@QHttpHeader@@QBEIXZ @ 340 NONAME ; unsigned int QHttpHeader::contentLength(void) const
	?sslErrors@QSslSocket@@IAEXABV?$QList@VQSslError@@@@@Z @ 341 NONAME ; void QSslSocket::sslErrors(class QList<class QSslError> const &)
	?ignoreSslErrors@QSslSocket@@QAEXABV?$QList@VQSslError@@@@@Z @ 342 NONAME ; void QSslSocket::ignoreSslErrors(class QList<class QSslError> const &)
	?trUtf8@QTcpServer@@SA?AVQString@@PBD0H@Z @ 343 NONAME ; class QString QTcpServer::trUtf8(char const *, char const *, int)
	?isNull@QAuthenticator@@QBE_NXZ @ 344 NONAME ; bool QAuthenticator::isNull(void) const
	?rmdir@QFtp@@QAEHABVQString@@@Z @ 345 NONAME ; int QFtp::rmdir(class QString const &)
	?greaterThan@QUrlInfo@@SA_NABV1@0H@Z @ 346 NONAME ; bool QUrlInfo::greaterThan(class QUrlInfo const &, class QUrlInfo const &, int)
	?isSecure@QNetworkCookie@@QBE_NXZ @ 347 NONAME ; bool QNetworkCookie::isSecure(void) const
	?protocolString@QSslCipher@@QBE?AVQString@@XZ @ 348 NONAME ; class QString QSslCipher::protocolString(void) const
	?d_func@QHttpResponseHeader@@ABEPBVQHttpResponseHeaderPrivate@@XZ @ 349 NONAME ; class QHttpResponseHeaderPrivate const * QHttpResponseHeader::d_func(void) const
	??8QUrlInfo@@QBE_NABV0@@Z @ 350 NONAME ; bool QUrlInfo::operator==(class QUrlInfo const &) const
	?isSequential@QLocalSocket@@UBE_NXZ @ 351 NONAME ; bool QLocalSocket::isSequential(void) const
	??6@YA?AVQDebug@@V0@ABVQSslError@@@Z @ 352 NONAME ; class QDebug operator<<(class QDebug, class QSslError const &)
	?metaObject@QLocalServer@@UBEPBUQMetaObject@@XZ @ 353 NONAME ; struct QMetaObject const * QLocalServer::metaObject(void) const
	?metaObject@QUdpSocket@@UBEPBUQMetaObject@@XZ @ 354 NONAME ; struct QMetaObject const * QUdpSocket::metaObject(void) const
	?setOriginatingObject@QNetworkRequest@@QAEXPAVQObject@@@Z @ 355 NONAME ; void QNetworkRequest::setOriginatingObject(class QObject *)
	?trUtf8@QNetworkAccessManager@@SA?AVQString@@PBD0H@Z @ 356 NONAME ; class QString QNetworkAccessManager::trUtf8(char const *, char const *, int)
	?isSequential@QAbstractSocket@@UBE_NXZ @ 357 NONAME ; bool QAbstractSocket::isSequential(void) const
	?d_func@QHttpRequestHeader@@AAEPAVQHttpRequestHeaderPrivate@@XZ @ 358 NONAME ; class QHttpRequestHeaderPrivate * QHttpRequestHeader::d_func(void)
	?proxyAuthenticationRequired@QNetworkAccessManager@@IAEXABVQNetworkProxy@@PAVQAuthenticator@@@Z @ 359 NONAME ; void QNetworkAccessManager::proxyAuthenticationRequired(class QNetworkProxy const &, class QAuthenticator *)
	?dataSendProgress@QHttp@@IAEXHH@Z @ 360 NONAME ; void QHttp::dataSendProgress(int, int)
	??0QAbstractNetworkCache@@IAE@PAVQObject@@@Z @ 361 NONAME ; QAbstractNetworkCache::QAbstractNetworkCache(class QObject *)
	?getStaticMetaObject@QLocalServer@@SAABUQMetaObject@@XZ @ 362 NONAME ; struct QMetaObject const & QLocalServer::getStaticMetaObject(void)
	?connectToHostEncrypted@QSslSocket@@QAEXABVQString@@GV?$QFlags@W4OpenModeFlag@QIODevice@@@@@Z @ 363 NONAME ; void QSslSocket::connectToHostEncrypted(class QString const &, unsigned short, class QFlags<enum QIODevice::OpenModeFlag>)
	??0QSslConfiguration@@QAE@XZ @ 364 NONAME ; QSslConfiguration::QSslConfiguration(void)
	??0QNetworkReply@@IAE@AAVQNetworkReplyPrivate@@PAVQObject@@@Z @ 365 NONAME ; QNetworkReply::QNetworkReply(class QNetworkReplyPrivate &, class QObject *)
	?isValid@QUrlInfo@@QBE_NXZ @ 366 NONAME ; bool QUrlInfo::isValid(void) const
	?type@QNetworkProxy@@QBE?AW4ProxyType@1@XZ @ 367 NONAME ; enum QNetworkProxy::ProxyType QNetworkProxy::type(void) const
	?serverError@QTcpServer@@QBE?AW4SocketError@QAbstractSocket@@XZ @ 368 NONAME ; enum QAbstractSocket::SocketError QTcpServer::serverError(void) const
	?hasPendingConnections@QLocalServer@@UBE_NXZ @ 369 NONAME ; bool QLocalServer::hasPendingConnections(void) const
	?setProxy@QAbstractSocket@@QAEXABVQNetworkProxy@@@Z @ 370 NONAME ; void QAbstractSocket::setProxy(class QNetworkProxy const &)
	?ignoreSslErrors@QNetworkReply@@UAEXXZ @ 371 NONAME ; void QNetworkReply::ignoreSslErrors(void)
	?waitForReadyRead@QSslSocket@@UAE_NH@Z @ 372 NONAME ; bool QSslSocket::waitForReadyRead(int)
	?subjectInfo@QSslCertificate@@QBE?AVQString@@ABVQByteArray@@@Z @ 373 NONAME ; class QString QSslCertificate::subjectInfo(class QByteArray const &) const
	?digest@QSslCertificate@@QBE?AVQByteArray@@W4Algorithm@QCryptographicHash@@@Z @ 374 NONAME ; class QByteArray QSslCertificate::digest(enum QCryptographicHash::Algorithm) const
	?setDefaultConfiguration@QSslConfiguration@@SAXABV1@@Z @ 375 NONAME ; void QSslConfiguration::setDefaultConfiguration(class QSslConfiguration const &)
	??0QTcpSocket@@IAE@AAVQTcpSocketPrivate@@PAVQObject@@@Z @ 376 NONAME ; QTcpSocket::QTcpSocket(class QTcpSocketPrivate &, class QObject *)
	?getStaticMetaObject@QSslSocket@@SAABUQMetaObject@@XZ @ 377 NONAME ; struct QMetaObject const & QSslSocket::getStaticMetaObject(void)
	??0QSslCipher@@QAE@ABV0@@Z @ 378 NONAME ; QSslCipher::QSslCipher(class QSslCipher const &)
	?applicationProxy@QNetworkProxy@@SA?AV1@XZ @ 379 NONAME ; class QNetworkProxy QNetworkProxy::applicationProxy(void)
	?setScopeId@QHostAddress@@QAEXABVQString@@@Z @ 380 NONAME ; void QHostAddress::setScopeId(class QString const &)
	?errorString@QLocalServer@@QBE?AVQString@@XZ @ 381 NONAME ; class QString QLocalServer::errorString(void) const
	?get@QNetworkAccessManager@@QAEPAVQNetworkReply@@ABVQNetworkRequest@@@Z @ 382 NONAME ; class QNetworkReply * QNetworkAccessManager::get(class QNetworkRequest const &)
	?d_func@QFtp@@AAEPAVQFtpPrivate@@XZ @ 383 NONAME ; class QFtpPrivate * QFtp::d_func(void)
	??1QLocalServer@@UAE@XZ @ 384 NONAME ; QLocalServer::~QLocalServer(void)
	??0QHostAddress@@QAE@PBUsockaddr@@@Z @ 385 NONAME ; QHostAddress::QHostAddress(struct sockaddr const *)
	?serverName@QLocalServer@@QBE?AVQString@@XZ @ 386 NONAME ; class QString QLocalServer::serverName(void) const
	?d_func@QNetworkCookieJar@@AAEPAVQNetworkCookieJarPrivate@@XZ @ 387 NONAME ; class QNetworkCookieJarPrivate * QNetworkCookieJar::d_func(void)
	??8QNetworkCookie@@QBE_NABV0@@Z @ 388 NONAME ; bool QNetworkCookie::operator==(class QNetworkCookie const &) const
	?setRawHeader@QNetworkReply@@IAEXABVQByteArray@@0@Z @ 389 NONAME ; void QNetworkReply::setRawHeader(class QByteArray const &, class QByteArray const &)
	?pendingDatagramSize@QUdpSocket@@QBE_JXZ @ 390 NONAME ; long long QUdpSocket::pendingDatagramSize(void) const
	??0QNetworkProxy@@QAE@ABV0@@Z @ 391 NONAME ; QNetworkProxy::QNetworkProxy(class QNetworkProxy const &)
	?values@QHttpHeader@@QBE?AV?$QList@U?$QPair@VQString@@V1@@@@@XZ @ 392 NONAME ; class QList<struct QPair<class QString, class QString> > QHttpHeader::values(void) const
	?d_func@QUdpSocket@@AAEPAVQUdpSocketPrivate@@XZ @ 393 NONAME ; class QUdpSocketPrivate * QUdpSocket::d_func(void)
	?connectToHost@QFtp@@QAEHABVQString@@G@Z @ 394 NONAME ; int QFtp::connectToHost(class QString const &, unsigned short)
	??0QHttpRequestHeader@@QAE@XZ @ 395 NONAME ; QHttpRequestHeader::QHttpRequestHeader(void)
	?type@QSslKey@@QBE?AW4KeyType@QSsl@@XZ @ 396 NONAME ; enum QSsl::KeyType QSslKey::type(void) const
	?trUtf8@QAbstractNetworkCache@@SA?AVQString@@PBD0@Z @ 397 NONAME ; class QString QAbstractNetworkCache::trUtf8(char const *, char const *)
	?setUseSystemConfiguration@QNetworkProxyFactory@@SAX_N@Z @ 398 NONAME ; void QNetworkProxyFactory::setUseSystemConfiguration(bool)
	?setGroup@QUrlInfo@@UAEXABVQString@@@Z @ 399 NONAME ; void QUrlInfo::setGroup(class QString const &)
	??1QFtp@@UAE@XZ @ 400 NONAME ; QFtp::~QFtp(void)
	??0QSslCertificate@@QAE@ABVQByteArray@@W4EncodingFormat@QSsl@@@Z @ 401 NONAME ; QSslCertificate::QSslCertificate(class QByteArray const &, enum QSsl::EncodingFormat)
	?setValid@QHttpHeader@@IAEX_N@Z @ 402 NONAME ; void QHttpHeader::setValid(bool)
	?setHeader@QNetworkReply@@IAEXW4KnownHeaders@QNetworkRequest@@ABVQVariant@@@Z @ 403 NONAME ; void QNetworkReply::setHeader(enum QNetworkRequest::KnownHeaders, class QVariant const &)
	?close@QNetworkReply@@UAEXXZ @ 404 NONAME ; void QNetworkReply::close(void)
	??0QSslSocket@@QAE@PAVQObject@@@Z @ 405 NONAME ; QSslSocket::QSslSocket(class QObject *)
	?trUtf8@QLocalSocket@@SA?AVQString@@PBD0H@Z @ 406 NONAME ; class QString QLocalSocket::trUtf8(char const *, char const *, int)
	??6@YA?AVQDebug@@V0@ABVQSslKey@@@Z @ 407 NONAME ; class QDebug operator<<(class QDebug, class QSslKey const &)
	?usedBits@QSslCipher@@QBEHXZ @ 408 NONAME ; int QSslCipher::usedBits(void) const
	??8QSslConfiguration@@QBE_NABV0@@Z @ 409 NONAME ; bool QSslConfiguration::operator==(class QSslConfiguration const &) const
	?request@QHttp@@QAEHABVQHttpRequestHeader@@PAVQIODevice@@1@Z @ 410 NONAME ; int QHttp::request(class QHttpRequestHeader const &, class QIODevice *, class QIODevice *)
	?reasonPhrase@QHttpResponseHeader@@QBE?AVQString@@XZ @ 411 NONAME ; class QString QHttpResponseHeader::reasonPhrase(void) const
	?socketOption@QSslSocket@@QAE?AVQVariant@@W4SocketOption@QAbstractSocket@@@Z @ 412 NONAME ; class QVariant QSslSocket::socketOption(enum QAbstractSocket::SocketOption)
	?clearPendingRequests@QHttp@@QAEXXZ @ 413 NONAME ; void QHttp::clearPendingRequests(void)
	?encryptionMethod@QSslCipher@@QBE?AVQString@@XZ @ 414 NONAME ; class QString QSslCipher::encryptionMethod(void) const
	?metaObject@QNetworkAccessManager@@UBEPBUQMetaObject@@XZ @ 415 NONAME ; struct QMetaObject const * QNetworkAccessManager::metaObject(void) const
	?isFinished@QNetworkReply@@QBE_NXZ @ 416 NONAME ; bool QNetworkReply::isFinished(void) const
	?connectToHostImplementation@QSslSocket@@IAEXABVQString@@GV?$QFlags@W4OpenModeFlag@QIODevice@@@@@Z @ 417 NONAME ; void QSslSocket::connectToHostImplementation(class QString const &, unsigned short, class QFlags<enum QIODevice::OpenModeFlag>)
	??0QHostInfo@@QAE@H@Z @ 418 NONAME ; QHostInfo::QHostInfo(int)
	?toIPv4Address@QHostAddress@@QBEIXZ @ 419 NONAME ; unsigned int QHostAddress::toIPv4Address(void) const
	??0QNetworkProxyQuery@@QAE@ABVQString@@H0W4QueryType@0@@Z @ 420 NONAME ; QNetworkProxyQuery::QNetworkProxyQuery(class QString const &, int, class QString const &, enum QNetworkProxyQuery::QueryType)
	?bind@QUdpSocket@@QAE_NGV?$QFlags@W4BindFlag@QUdpSocket@@@@@Z @ 421 NONAME ; bool QUdpSocket::bind(unsigned short, class QFlags<enum QUdpSocket::BindFlag>)
	?setLocalCertificate@QSslConfiguration@@QAEXABVQSslCertificate@@@Z @ 422 NONAME ; void QSslConfiguration::setLocalCertificate(class QSslCertificate const &)
	?parseCookies@QNetworkCookie@@SA?AV?$QList@VQNetworkCookie@@@@ABVQByteArray@@@Z @ 423 NONAME ; class QList<class QNetworkCookie> QNetworkCookie::parseCookies(class QByteArray const &)
	?flush@QAbstractSocket@@QAE_NXZ @ 424 NONAME ; bool QAbstractSocket::flush(void)
	?cacheSize@QNetworkDiskCache@@UBE_JXZ @ 425 NONAME ; long long QNetworkDiskCache::cacheSize(void) const
	?trUtf8@QTcpServer@@SA?AVQString@@PBD0@Z @ 426 NONAME ; class QString QTcpServer::trUtf8(char const *, char const *)
	?staticMetaObject@QSslSocket@@2UQMetaObject@@B @ 427 NONAME ; struct QMetaObject const QSslSocket::staticMetaObject
	?lessThan@QUrlInfo@@SA_NABV1@0H@Z @ 428 NONAME ; bool QUrlInfo::lessThan(class QUrlInfo const &, class QUrlInfo const &, int)
	?connected@QAbstractSocket@@IAEXXZ @ 429 NONAME ; void QAbstractSocket::connected(void)
	?setLastModified@QUrlInfo@@UAEXABVQDateTime@@@Z @ 430 NONAME ; void QUrlInfo::setLastModified(class QDateTime const &)
	?setHost@QHttp@@QAEHABVQString@@G@Z @ 431 NONAME ; int QHttp::setHost(class QString const &, unsigned short)
	?name@QNetworkInterface@@QBE?AVQString@@XZ @ 432 NONAME ; class QString QNetworkInterface::name(void) const
	?netmask@QNetworkAddressEntry@@QBE?AVQHostAddress@@XZ @ 433 NONAME ; class QHostAddress QNetworkAddressEntry::netmask(void) const
	?hasPendingConnections@QTcpServer@@UBE_NXZ @ 434 NONAME ; bool QTcpServer::hasPendingConnections(void) const
	?qt_metacast@QNetworkAccessManager@@UAEPAXPBD@Z @ 435 NONAME ; void * QNetworkAccessManager::qt_metacast(char const *)
	?put@QFtp@@QAEHABVQByteArray@@ABVQString@@W4TransferType@1@@Z @ 436 NONAME ; int QFtp::put(class QByteArray const &, class QString const &, enum QFtp::TransferType)
	??0QHostInfo@@QAE@ABV0@@Z @ 437 NONAME ; QHostInfo::QHostInfo(class QHostInfo const &)
	??0QNetworkCookie@@QAE@ABVQByteArray@@0@Z @ 438 NONAME ; QNetworkCookie::QNetworkCookie(class QByteArray const &, class QByteArray const &)
	?value@QHttpHeader@@QBE?AVQString@@ABV2@@Z @ 439 NONAME ; class QString QHttpHeader::value(class QString const &) const
	?deleteResource@QNetworkAccessManager@@QAEPAVQNetworkReply@@ABVQNetworkRequest@@@Z @ 440 NONAME ; class QNetworkReply * QNetworkAccessManager::deleteResource(class QNetworkRequest const &)
	??6@YAAAVQDataStream@@AAV0@ABVQNetworkCacheMetaData@@@Z @ 441 NONAME ; class QDataStream & operator<<(class QDataStream &, class QNetworkCacheMetaData const &)
	?caCertificates@QSslConfiguration@@QBE?AV?$QList@VQSslCertificate@@@@XZ @ 442 NONAME ; class QList<class QSslCertificate> QSslConfiguration::caCertificates(void) const
	?staticMetaObject@QNetworkReply@@2UQMetaObject@@B @ 443 NONAME ; struct QMetaObject const QNetworkReply::staticMetaObject
	?d_func@QHttpHeader@@AAEPAVQHttpHeaderPrivate@@XZ @ 444 NONAME ; class QHttpHeaderPrivate * QHttpHeader::d_func(void)
	?originatingObject@QNetworkRequest@@QBEPAVQObject@@XZ @ 445 NONAME ; class QObject * QNetworkRequest::originatingObject(void) const
	?errorString@QTcpServer@@QBE?AVQString@@XZ @ 446 NONAME ; class QString QTcpServer::errorString(void) const
	?setHostName@QNetworkProxy@@QAEXABVQString@@@Z @ 447 NONAME ; void QNetworkProxy::setHostName(class QString const &)
	??_EQNetworkCookie@@QAE@I@Z @ 448 NONAME ; QNetworkCookie::~QNetworkCookie(unsigned int)
	?tr@QSslSocket@@SA?AVQString@@PBD0@Z @ 449 NONAME ; class QString QSslSocket::tr(char const *, char const *)
	?proxy@QTcpServer@@QBE?AVQNetworkProxy@@XZ @ 450 NONAME ; class QNetworkProxy QTcpServer::proxy(void) const
	?issuerInfo@QSslCertificate@@QBE?AVQString@@W4SubjectInfo@1@@Z @ 451 NONAME ; class QString QSslCertificate::issuerInfo(enum QSslCertificate::SubjectInfo) const
	??9QNetworkProxy@@QBE_NABV0@@Z @ 452 NONAME ; bool QNetworkProxy::operator!=(class QNetworkProxy const &) const
	??0QTcpServer@@QAE@PAVQObject@@@Z @ 453 NONAME ; QTcpServer::QTcpServer(class QObject *)
	??0QNetworkAccessManager@@QAE@PAVQObject@@@Z @ 454 NONAME ; QNetworkAccessManager::QNetworkAccessManager(class QObject *)
	??4QNetworkProxyQuery@@QAEAAV0@ABV0@@Z @ 455 NONAME ; class QNetworkProxyQuery & QNetworkProxyQuery::operator=(class QNetworkProxyQuery const &)
	?addCaCertificate@QSslSocket@@QAEXABVQSslCertificate@@@Z @ 456 NONAME ; void QSslSocket::addCaCertificate(class QSslCertificate const &)
	?setSocketDescriptor@QSslSocket@@QAE_NHW4SocketState@QAbstractSocket@@V?$QFlags@W4OpenModeFlag@QIODevice@@@@@Z @ 457 NONAME ; bool QSslSocket::setSocketDescriptor(int, enum QAbstractSocket::SocketState, class QFlags<enum QIODevice::OpenModeFlag>)
	?allInterfaces@QNetworkInterface@@SA?AV?$QList@VQNetworkInterface@@@@XZ @ 458 NONAME ; class QList<class QNetworkInterface> QNetworkInterface::allInterfaces(void)
	?read@QHttp@@QAE_JPAD_J@Z @ 459 NONAME ; long long QHttp::read(char *, long long)
	?disconnected@QAbstractSocket@@IAEXXZ @ 460 NONAME ; void QAbstractSocket::disconnected(void)
	?qt_metacast@QHttp@@UAEPAXPBD@Z @ 461 NONAME ; void * QHttp::qt_metacast(char const *)
	?expire@QNetworkDiskCache@@MAE_JXZ @ 462 NONAME ; long long QNetworkDiskCache::expire(void)
	?socketDescriptor@QTcpServer@@QBEHXZ @ 463 NONAME ; int QTcpServer::socketDescriptor(void) const
	?proxyForQuery@QNetworkProxyFactory@@SA?AV?$QList@VQNetworkProxy@@@@ABVQNetworkProxyQuery@@@Z @ 464 NONAME ; class QList<class QNetworkProxy> QNetworkProxyFactory::proxyForQuery(class QNetworkProxyQuery const &)
	?waitForBytesWritten@QSslSocket@@UAE_NH@Z @ 465 NONAME ; bool QSslSocket::waitForBytesWritten(int)
	?privateKey@QSslSocket@@QBE?AVQSslKey@@XZ @ 466 NONAME ; class QSslKey QSslSocket::privateKey(void) const
	?trUtf8@QFtp@@SA?AVQString@@PBD0@Z @ 467 NONAME ; class QString QFtp::trUtf8(char const *, char const *)
	?fileMetaData@QNetworkDiskCache@@QBE?AVQNetworkCacheMetaData@@ABVQString@@@Z @ 468 NONAME ; class QNetworkCacheMetaData QNetworkDiskCache::fileMetaData(class QString const &) const
	?d_func@QHttp@@AAEPAVQHttpPrivate@@XZ @ 469 NONAME ; class QHttpPrivate * QHttp::d_func(void)
	?setError@QHostInfo@@QAEXW4HostInfoError@1@@Z @ 470 NONAME ; void QHostInfo::setError(enum QHostInfo::HostInfoError)
	?isHttpOnly@QNetworkCookie@@QBE_NXZ @ 471 NONAME ; bool QNetworkCookie::isHttpOnly(void) const
	?lastRead@QUrlInfo@@QBE?AVQDateTime@@XZ @ 472 NONAME ; class QDateTime QUrlInfo::lastRead(void) const
	?protocol@QSslConfiguration@@QBE?AW4SslProtocol@QSsl@@XZ @ 473 NONAME ; enum QSsl::SslProtocol QSslConfiguration::protocol(void) const
	?setProxy@QNetworkAccessManager@@QAEXABVQNetworkProxy@@@Z @ 474 NONAME ; void QNetworkAccessManager::setProxy(class QNetworkProxy const &)
	?metaObject@QNetworkDiskCache@@UBEPBUQMetaObject@@XZ @ 475 NONAME ; struct QMetaObject const * QNetworkDiskCache::metaObject(void) const
	?handle@QSslKey@@QBEKXZ @ 476 NONAME ; unsigned long QSslKey::handle(void) const
	??_EQSslCertificate@@QAE@I@Z @ 477 NONAME ; QSslCertificate::~QSslCertificate(unsigned int)
	?setDomain@QNetworkCookie@@QAEXABVQString@@@Z @ 478 NONAME ; void QNetworkCookie::setDomain(class QString const &)
	?incomingConnection@QLocalServer@@MAEXI@Z @ 479 NONAME ; void QLocalServer::incomingConnection(unsigned int)
	?state@QAbstractSocket@@QBE?AW4SocketState@1@XZ @ 480 NONAME ; enum QAbstractSocket::SocketState QAbstractSocket::state(void) const
	?setBroadcast@QNetworkAddressEntry@@QAEXABVQHostAddress@@@Z @ 481 NONAME ; void QNetworkAddressEntry::setBroadcast(class QHostAddress const &)
	?disconnectFromHost@QAbstractSocket@@QAEXXZ @ 482 NONAME ; void QAbstractSocket::disconnectFromHost(void)
	??0QNetworkDiskCache@@QAE@PAVQObject@@@Z @ 483 NONAME ; QNetworkDiskCache::QNetworkDiskCache(class QObject *)
	?waitForNewConnection@QTcpServer@@QAE_NHPA_N@Z @ 484 NONAME ; bool QTcpServer::waitForNewConnection(int, bool *)
	?connectToHost@QAbstractSocket@@QAEXABVQString@@GV?$QFlags@W4OpenModeFlag@QIODevice@@@@@Z @ 485 NONAME ; void QAbstractSocket::connectToHost(class QString const &, unsigned short, class QFlags<enum QIODevice::OpenModeFlag>)
	?currentId@QHttp@@QBEHXZ @ 486 NONAME ; int QHttp::currentId(void) const
	?statusCode@QHttpResponseHeader@@QBEHXZ @ 487 NONAME ; int QHttpResponseHeader::statusCode(void) const
	?qt_metacast@QSslSocket@@UAEPAXPBD@Z @ 488 NONAME ; void * QSslSocket::qt_metacast(char const *)
	?defaultCaCertificates@QSslSocket@@SA?AV?$QList@VQSslCertificate@@@@XZ @ 489 NONAME ; class QList<class QSslCertificate> QSslSocket::defaultCaCertificates(void)
	?error@QSslError@@QBE?AW4SslError@1@XZ @ 490 NONAME ; enum QSslError::SslError QSslError::error(void) const
	?realm@QAuthenticator@@QBE?AVQString@@XZ @ 491 NONAME ; class QString QAuthenticator::realm(void) const
	?done@QFtp@@IAEX_N@Z @ 492 NONAME ; void QFtp::done(bool)
	?trUtf8@QFtp@@SA?AVQString@@PBD0H@Z @ 493 NONAME ; class QString QFtp::trUtf8(char const *, char const *, int)
	?isValid@QLocalSocket@@QBE_NXZ @ 494 NONAME ; bool QLocalSocket::isValid(void) const
	?setFile@QUrlInfo@@UAEX_N@Z @ 495 NONAME ; void QUrlInfo::setFile(bool)
	?d_func@QHttpRequestHeader@@ABEPBVQHttpRequestHeaderPrivate@@XZ @ 496 NONAME ; class QHttpRequestHeaderPrivate const * QHttpRequestHeader::d_func(void) const
	??4QHostInfo@@QAEAAV0@ABV0@@Z @ 497 NONAME ; class QHostInfo & QHostInfo::operator=(class QHostInfo const &)
	?proxy@QNetworkAccessManager@@QBE?AVQNetworkProxy@@XZ @ 498 NONAME ; class QNetworkProxy QNetworkAccessManager::proxy(void) const
	?head@QHttp@@QAEHABVQString@@@Z @ 499 NONAME ; int QHttp::head(class QString const &)
	?toString@QHttpResponseHeader@@UBE?AVQString@@XZ @ 500 NONAME ; class QString QHttpResponseHeader::toString(void) const
	?rawHeader@QNetworkRequest@@QBE?AVQByteArray@@ABV2@@Z @ 501 NONAME ; class QByteArray QNetworkRequest::rawHeader(class QByteArray const &) const
	??0QSslKey@@QAE@PAVQIODevice@@W4KeyAlgorithm@QSsl@@W4EncodingFormat@3@W4KeyType@3@ABVQByteArray@@@Z @ 502 NONAME ; QSslKey::QSslKey(class QIODevice *, enum QSsl::KeyAlgorithm, enum QSsl::EncodingFormat, enum QSsl::KeyType, class QByteArray const &)
	?qt_metacast@QAbstractNetworkCache@@UAEPAXPBD@Z @ 503 NONAME ; void * QAbstractNetworkCache::qt_metacast(char const *)
	?sslErrors@QNetworkReply@@IAEXABV?$QList@VQSslError@@@@@Z @ 504 NONAME ; void QNetworkReply::sslErrors(class QList<class QSslError> const &)
	?metaObject@QTcpServer@@UBEPBUQMetaObject@@XZ @ 505 NONAME ; struct QMetaObject const * QTcpServer::metaObject(void) const
	??_EQNetworkAccessManager@@UAE@I@Z @ 506 NONAME ; QNetworkAccessManager::~QNetworkAccessManager(unsigned int)
	?isSessionCookie@QNetworkCookie@@QBE_NXZ @ 507 NONAME ; bool QNetworkCookie::isSessionCookie(void) const
	?tr@QNetworkCookieJar@@SA?AVQString@@PBD0@Z @ 508 NONAME ; class QString QNetworkCookieJar::tr(char const *, char const *)
	??_EQNetworkReply@@UAE@I@Z @ 509 NONAME ; QNetworkReply::~QNetworkReply(unsigned int)
	?sslConfiguration@QSslSocket@@QBE?AVQSslConfiguration@@XZ @ 510 NONAME ; class QSslConfiguration QSslSocket::sslConfiguration(void) const
	?localHostName@QHostInfo@@SA?AVQString@@XZ @ 511 NONAME ; class QString QHostInfo::localHostName(void)
	?setPort@QNetworkProxy@@QAEXG@Z @ 512 NONAME ; void QNetworkProxy::setPort(unsigned short)
	??6@YA?AVQDebug@@V0@W4SocketState@QAbstractSocket@@@Z @ 513 NONAME ; class QDebug operator<<(class QDebug, enum QAbstractSocket::SocketState)
	??1QNetworkProxy@@QAE@XZ @ 514 NONAME ; QNetworkProxy::~QNetworkProxy(void)
	?setProtocolTag@QNetworkProxyQuery@@QAEXABVQString@@@Z @ 515 NONAME ; void QNetworkProxyQuery::setProtocolTag(class QString const &)
	?parseLine@QHttpResponseHeader@@MAE_NABVQString@@H@Z @ 516 NONAME ; bool QHttpResponseHeader::parseLine(class QString const &, int)
	?d_func@QUdpSocket@@ABEPBVQUdpSocketPrivate@@XZ @ 517 NONAME ; class QUdpSocketPrivate const * QUdpSocket::d_func(void) const
	?interfaceFromName@QNetworkInterface@@SA?AV1@ABVQString@@@Z @ 518 NONAME ; class QNetworkInterface QNetworkInterface::interfaceFromName(class QString const &)
	??0QNetworkRequest@@QAE@ABV0@@Z @ 519 NONAME ; QNetworkRequest::QNetworkRequest(class QNetworkRequest const &)
	??_EQNetworkProxyFactory@@UAE@I@Z @ 520 NONAME ; QNetworkProxyFactory::~QNetworkProxyFactory(unsigned int)
	??1QHttpHeader@@UAE@XZ @ 521 NONAME ; QHttpHeader::~QHttpHeader(void)
	?writeDatagram@QUdpSocket@@QAE_JPBD_JABVQHostAddress@@G@Z @ 522 NONAME ; long long QUdpSocket::writeDatagram(char const *, long long, class QHostAddress const &, unsigned short)
	?nextPendingConnection@QLocalServer@@UAEPAVQLocalSocket@@XZ @ 523 NONAME ; class QLocalSocket * QLocalServer::nextPendingConnection(void)
	?setUrl@QNetworkReply@@IAEXABVQUrl@@@Z @ 524 NONAME ; void QNetworkReply::setUrl(class QUrl const &)
	?qt_metacall@QUdpSocket@@UAEHW4Call@QMetaObject@@HPAPAX@Z @ 525 NONAME ; int QUdpSocket::qt_metacall(enum QMetaObject::Call, int, void * *)
	?setPeerVerifyMode@QSslConfiguration@@QAEXW4PeerVerifyMode@QSslSocket@@@Z @ 526 NONAME ; void QSslConfiguration::setPeerVerifyMode(enum QSslSocket::PeerVerifyMode)
	?setSaveToDisk@QNetworkCacheMetaData@@QAEX_N@Z @ 527 NONAME ; void QNetworkCacheMetaData::setSaveToDisk(bool)
	??0QNetworkProxyQuery@@QAE@ABV0@@Z @ 528 NONAME ; QNetworkProxyQuery::QNetworkProxyQuery(class QNetworkProxyQuery const &)
	?setAttribute@QNetworkRequest@@QAEXW4Attribute@1@ABVQVariant@@@Z @ 529 NONAME ; void QNetworkRequest::setAttribute(enum QNetworkRequest::Attribute, class QVariant const &)
	??8QSslCertificate@@QBE_NABV0@@Z @ 530 NONAME ; bool QSslCertificate::operator==(class QSslCertificate const &) const
	?setHost@QHttp@@QAEHABVQString@@W4ConnectionMode@1@G@Z @ 531 NONAME ; int QHttp::setHost(class QString const &, enum QHttp::ConnectionMode, unsigned short)
	?setPeerPort@QNetworkProxyQuery@@QAEXH@Z @ 532 NONAME ; void QNetworkProxyQuery::setPeerPort(int)
	??1QNetworkProxyQuery@@QAE@XZ @ 533 NONAME ; QNetworkProxyQuery::~QNetworkProxyQuery(void)
	?setPath@QNetworkCookie@@QAEXABVQString@@@Z @ 534 NONAME ; void QNetworkCookie::setPath(class QString const &)
	?close@QTcpServer@@QAEXXZ @ 535 NONAME ; void QTcpServer::close(void)
	??0QNetworkProxyQuery@@QAE@XZ @ 536 NONAME ; QNetworkProxyQuery::QNetworkProxyQuery(void)
	?data@QNetworkDiskCache@@UAEPAVQIODevice@@ABVQUrl@@@Z @ 537 NONAME ; class QIODevice * QNetworkDiskCache::data(class QUrl const &)
	?setAllCookies@QNetworkCookieJar@@IAEXABV?$QList@VQNetworkCookie@@@@@Z @ 538 NONAME ; void QNetworkCookieJar::setAllCookies(class QList<class QNetworkCookie> const &)
	?qt_metacall@QTcpServer@@UAEHW4Call@QMetaObject@@HPAPAX@Z @ 539 NONAME ; int QTcpServer::qt_metacall(enum QMetaObject::Call, int, void * *)
	?maxPendingConnections@QLocalServer@@QBEHXZ @ 540 NONAME ; int QLocalServer::maxPendingConnections(void) const
	?parse@QHttpHeader@@IAE_NABVQString@@@Z @ 541 NONAME ; bool QHttpHeader::parse(class QString const &)
	?domain@QNetworkCookie@@QBE?AVQString@@XZ @ 542 NONAME ; class QString QNetworkCookie::domain(void) const
	?staticMetaObject@QHttp@@2UQMetaObject@@B @ 543 NONAME ; struct QMetaObject const QHttp::staticMetaObject
	?fromData@QSslCertificate@@SA?AV?$QList@VQSslCertificate@@@@ABVQByteArray@@W4EncodingFormat@QSsl@@@Z @ 544 NONAME ; class QList<class QSslCertificate> QSslCertificate::fromData(class QByteArray const &, enum QSsl::EncodingFormat)
	?trUtf8@QNetworkDiskCache@@SA?AVQString@@PBD0H@Z @ 545 NONAME ; class QString QNetworkDiskCache::trUtf8(char const *, char const *, int)
	?protocol@QHostAddress@@QBE?AW4NetworkLayerProtocol@QAbstractSocket@@XZ @ 546 NONAME ; enum QAbstractSocket::NetworkLayerProtocol QHostAddress::protocol(void) const
	?currentDevice@QFtp@@QBEPAVQIODevice@@XZ @ 547 NONAME ; class QIODevice * QFtp::currentDevice(void) const
	?qt_metacall@QSslSocket@@UAEHW4Call@QMetaObject@@HPAPAX@Z @ 548 NONAME ; int QSslSocket::qt_metacall(enum QMetaObject::Call, int, void * *)
	?bind@QUdpSocket@@QAE_NABVQHostAddress@@G@Z @ 549 NONAME ; bool QUdpSocket::bind(class QHostAddress const &, unsigned short)
	?setReadBufferSize@QNetworkReply@@UAEX_J@Z @ 550 NONAME ; void QNetworkReply::setReadBufferSize(long long)
	?setApplicationProxy@QNetworkProxy@@SAXABV1@@Z @ 551 NONAME ; void QNetworkProxy::setApplicationProxy(class QNetworkProxy const &)
	??1QNetworkDiskCache@@UAE@XZ @ 552 NONAME ; QNetworkDiskCache::~QNetworkDiskCache(void)
	??1QSslConfiguration@@QAE@XZ @ 553 NONAME ; QSslConfiguration::~QSslConfiguration(void)
	?d_func@QNetworkCookieJar@@ABEPBVQNetworkCookieJarPrivate@@XZ @ 554 NONAME ; class QNetworkCookieJarPrivate const * QNetworkCookieJar::d_func(void) const
	?d_func@QLocalSocket@@ABEPBVQLocalSocketPrivate@@XZ @ 555 NONAME ; class QLocalSocketPrivate const * QLocalSocket::d_func(void) const
	?socketType@QAbstractSocket@@QBE?AW4SocketType@1@XZ @ 556 NONAME ; enum QAbstractSocket::SocketType QAbstractSocket::socketType(void) const
	?d_func@QSslSocket@@AAEPAVQSslSocketPrivate@@XZ @ 557 NONAME ; class QSslSocketPrivate * QSslSocket::d_func(void)
	?abort@QFtp@@QAEXXZ @ 558 NONAME ; void QFtp::abort(void)
	?readData@QLocalSocket@@MAE_JPAD_J@Z @ 559 NONAME ; long long QLocalSocket::readData(char *, long long)
	?lookupId@QHostInfo@@QBEHXZ @ 560 NONAME ; int QHostInfo::lookupId(void) const
	?qHash@@YAIABVQHostAddress@@@Z @ 561 NONAME ; unsigned int qHash(class QHostAddress const &)
	??6@YA?AVQDebug@@V0@ABVQNetworkCookie@@@Z @ 562 NONAME ; class QDebug operator<<(class QDebug, class QNetworkCookie const &)
	?clear@QNetworkDiskCache@@UAEXXZ @ 563 NONAME ; void QNetworkDiskCache::clear(void)
	?privateKey@QSslConfiguration@@QBE?AVQSslKey@@XZ @ 564 NONAME ; class QSslKey QSslConfiguration::privateKey(void) const
	?peerCertificateChain@QSslSocket@@QBE?AV?$QList@VQSslCertificate@@@@XZ @ 565 NONAME ; class QList<class QSslCertificate> QSslSocket::peerCertificateChain(void) const
	?tr@QFtp@@SA?AVQString@@PBD0@Z @ 566 NONAME ; class QString QFtp::tr(char const *, char const *)
	?readAll@QHttp@@QAE?AVQByteArray@@XZ @ 567 NONAME ; class QByteArray QHttp::readAll(void)
	?hasRawHeader@QNetworkRequest@@QBE_NABVQByteArray@@@Z @ 568 NONAME ; bool QNetworkRequest::hasRawHeader(class QByteArray const &) const
	?authenticationMethod@QSslCipher@@QBE?AVQString@@XZ @ 569 NONAME ; class QString QSslCipher::authenticationMethod(void) const
	?hardwareAddress@QNetworkInterface@@QBE?AVQString@@XZ @ 570 NONAME ; class QString QNetworkInterface::hardwareAddress(void) const
	?setName@QNetworkCookie@@QAEXABVQByteArray@@@Z @ 571 NONAME ; void QNetworkCookie::setName(class QByteArray const &)
	?isTransparentProxy@QNetworkProxy@@QBE_NXZ @ 572 NONAME ; bool QNetworkProxy::isTransparentProxy(void) const
	?trUtf8@QNetworkAccessManager@@SA?AVQString@@PBD0@Z @ 573 NONAME ; class QString QNetworkAccessManager::trUtf8(char const *, char const *)
	?isValid@QSslCertificate@@QBE_NXZ @ 574 NONAME ; bool QSslCertificate::isValid(void) const
	?bind@QUdpSocket@@QAE_NG@Z @ 575 NONAME ; bool QUdpSocket::bind(unsigned short)
	?ip@QNetworkAddressEntry@@QBE?AVQHostAddress@@XZ @ 576 NONAME ; class QHostAddress QNetworkAddressEntry::ip(void) const
	?isNull@QSslCertificate@@QBE_NXZ @ 577 NONAME ; bool QSslCertificate::isNull(void) const
	??_EQLocalSocket@@UAE@I@Z @ 578 NONAME ; QLocalSocket::~QLocalSocket(unsigned int)
	??8QNetworkRequest@@QBE_NABV0@@Z @ 579 NONAME ; bool QNetworkRequest::operator==(class QNetworkRequest const &) const
	?readBufferSize@QLocalSocket@@QBE_JXZ @ 580 NONAME ; long long QLocalSocket::readBufferSize(void) const
	?setPeerHostName@QNetworkProxyQuery@@QAEXABVQString@@@Z @ 581 NONAME ; void QNetworkProxyQuery::setPeerHostName(class QString const &)
	??0QNetworkProxy@@QAE@W4ProxyType@0@ABVQString@@G11@Z @ 582 NONAME ; QNetworkProxy::QNetworkProxy(enum QNetworkProxy::ProxyType, class QString const &, unsigned short, class QString const &, class QString const &)
	??9QNetworkCacheMetaData@@QBE_NABV0@@Z @ 583 NONAME ; bool QNetworkCacheMetaData::operator!=(class QNetworkCacheMetaData const &) const
	?isEncrypted@QSslSocket@@QBE_NXZ @ 584 NONAME ; bool QSslSocket::isEncrypted(void) const
	?setAddress@QHostAddress@@QAEXABVQIPv6Address@@@Z @ 585 NONAME ; void QHostAddress::setAddress(class QIPv6Address const &)
	??0QNetworkRequest@@QAE@ABVQUrl@@@Z @ 586 NONAME ; QNetworkRequest::QNetworkRequest(class QUrl const &)
	?qt_metacast@QNetworkReply@@UAEPAXPBD@Z @ 587 NONAME ; void * QNetworkReply::qt_metacast(char const *)
	?trUtf8@QHttp@@SA?AVQString@@PBD0@Z @ 588 NONAME ; class QString QHttp::trUtf8(char const *, char const *)
	?getStaticMetaObject@QAbstractSocket@@SAABUQMetaObject@@XZ @ 589 NONAME ; struct QMetaObject const & QAbstractSocket::getStaticMetaObject(void)
	?isFile@QUrlInfo@@QBE_NXZ @ 590 NONAME ; bool QUrlInfo::isFile(void) const
	?error@QNetworkReply@@QBE?AW4NetworkError@1@XZ @ 591 NONAME ; enum QNetworkReply::NetworkError QNetworkReply::error(void) const
	?addresses@QHostInfo@@QBE?AV?$QList@VQHostAddress@@@@XZ @ 592 NONAME ; class QList<class QHostAddress> QHostInfo::addresses(void) const
	?setCacheDirectory@QNetworkDiskCache@@QAEXABVQString@@@Z @ 593 NONAME ; void QNetworkDiskCache::setCacheDirectory(class QString const &)
	??8QNetworkProxy@@QBE_NABV0@@Z @ 594 NONAME ; bool QNetworkProxy::operator==(class QNetworkProxy const &) const
	?error@QFtp@@QBE?AW4Error@1@XZ @ 595 NONAME ; enum QFtp::Error QFtp::error(void) const
	?toString@QHttpHeader@@UBE?AVQString@@XZ @ 596 NONAME ; class QString QHttpHeader::toString(void) const
	?allValues@QHttpHeader@@QBE?AVQStringList@@ABVQString@@@Z @ 597 NONAME ; class QStringList QHttpHeader::allValues(class QString const &) const
	?sessionCipher@QSslSocket@@QBE?AVQSslCipher@@XZ @ 598 NONAME ; class QSslCipher QSslSocket::sessionCipher(void) const
	??_EQTcpSocket@@UAE@I@Z @ 599 NONAME ; QTcpSocket::~QTcpSocket(unsigned int)
	?setMaxPendingConnections@QTcpServer@@QAEXH@Z @ 600 NONAME ; void QTcpServer::setMaxPendingConnections(int)
	?bind@QUdpSocket@@QAE_NABVQHostAddress@@GV?$QFlags@W4BindFlag@QUdpSocket@@@@@Z @ 601 NONAME ; bool QUdpSocket::bind(class QHostAddress const &, unsigned short, class QFlags<enum QUdpSocket::BindFlag>)
	?minorVersion@QHttpResponseHeader@@UBEHXZ @ 602 NONAME ; int QHttpResponseHeader::minorVersion(void) const
	?setLocalPort@QAbstractSocket@@IAEXG@Z @ 603 NONAME ; void QAbstractSocket::setLocalPort(unsigned short)
	?d_func@QFtp@@ABEPBVQFtpPrivate@@XZ @ 604 NONAME ; class QFtpPrivate const * QFtp::d_func(void) const
	?expiryDate@QSslCertificate@@QBE?AVQDateTime@@XZ @ 605 NONAME ; class QDateTime QSslCertificate::expiryDate(void) const
	?createRequest@QNetworkAccessManager@@MAEPAVQNetworkReply@@W4Operation@1@ABVQNetworkRequest@@PAVQIODevice@@@Z @ 606 NONAME ; class QNetworkReply * QNetworkAccessManager::createRequest(enum QNetworkAccessManager::Operation, class QNetworkRequest const &, class QIODevice *)
	?supportedCiphers@QSslSocket@@SA?AV?$QList@VQSslCipher@@@@XZ @ 607 NONAME ; class QList<class QSslCipher> QSslSocket::supportedCiphers(void)
	?setRequest@QNetworkReply@@IAEXABVQNetworkRequest@@@Z @ 608 NONAME ; void QNetworkReply::setRequest(class QNetworkRequest const &)
	??4QHttpRequestHeader@@QAEAAV0@ABV0@@Z @ 609 NONAME ; class QHttpRequestHeader & QHttpRequestHeader::operator=(class QHttpRequestHeader const &)
	?metaObject@QHttp@@UBEPBUQMetaObject@@XZ @ 610 NONAME ; struct QMetaObject const * QHttp::metaObject(void) const
	?setErrorString@QHostInfo@@QAEXABVQString@@@Z @ 611 NONAME ; void QHostInfo::setErrorString(class QString const &)
	?staticMetaObject@QNetworkAccessManager@@2UQMetaObject@@B @ 612 NONAME ; struct QMetaObject const QNetworkAccessManager::staticMetaObject
	?setPassword@QNetworkProxy@@QAEXABVQString@@@Z @ 613 NONAME ; void QNetworkProxy::setPassword(class QString const &)
	?fullServerName@QLocalSocket@@QBE?AVQString@@XZ @ 614 NONAME ; class QString QLocalSocket::fullServerName(void) const
	?error@QLocalSocket@@QBE?AW4LocalSocketError@1@XZ @ 615 NONAME ; enum QLocalSocket::LocalSocketError QLocalSocket::error(void) const
	?setAddress@QHostAddress@@QAE_NABVQString@@@Z @ 616 NONAME ; bool QHostAddress::setAddress(class QString const &)
	??0QSslCertificate@@QAE@ABV0@@Z @ 617 NONAME ; QSslCertificate::QSslCertificate(class QSslCertificate const &)
	?setPrivateKey@QSslConfiguration@@QAEXABVQSslKey@@@Z @ 618 NONAME ; void QSslConfiguration::setPrivateKey(class QSslKey const &)
	?qt_metacall@QAbstractSocket@@UAEHW4Call@QMetaObject@@HPAPAX@Z @ 619 NONAME ; int QAbstractSocket::qt_metacall(enum QMetaObject::Call, int, void * *)
	?majorVersion@QHttpRequestHeader@@UBEHXZ @ 620 NONAME ; int QHttpRequestHeader::majorVersion(void) const
	?queryType@QNetworkProxyQuery@@QBE?AW4QueryType@1@XZ @ 621 NONAME ; enum QNetworkProxyQuery::QueryType QNetworkProxyQuery::queryType(void) const
	?d_func@QAbstractSocket@@ABEPBVQAbstractSocketPrivate@@XZ @ 622 NONAME ; class QAbstractSocketPrivate const * QAbstractSocket::d_func(void) const
	?flush@QLocalSocket@@QAE_NXZ @ 623 NONAME ; bool QLocalSocket::flush(void)
	?qt_metacall@QHttp@@UAEHW4Call@QMetaObject@@HPAPAX@Z @ 624 NONAME ; int QHttp::qt_metacall(enum QMetaObject::Call, int, void * *)
	??9QNetworkProxyQuery@@QBE_NABV0@@Z @ 625 NONAME ; bool QNetworkProxyQuery::operator!=(class QNetworkProxyQuery const &) const
	?defaultCiphers@QSslSocket@@SA?AV?$QList@VQSslCipher@@@@XZ @ 626 NONAME ; class QList<class QSslCipher> QSslSocket::defaultCiphers(void)
	??8QSslCipher@@QBE_NABV0@@Z @ 627 NONAME ; bool QSslCipher::operator==(class QSslCipher const &) const
	?ignoreSslErrors@QNetworkReply@@QAEXABV?$QList@VQSslError@@@@@Z @ 628 NONAME ; void QNetworkReply::ignoreSslErrors(class QList<class QSslError> const &)
	??1QSslError@@QAE@XZ @ 629 NONAME ; QSslError::~QSslError(void)
	??0QFtp@@QAE@PAVQObject@@@Z @ 630 NONAME ; QFtp::QFtp(class QObject *)
	?removeValue@QHttpHeader@@QAEXABVQString@@@Z @ 631 NONAME ; void QHttpHeader::removeValue(class QString const &)
	?setQueryType@QNetworkProxyQuery@@QAEXW4QueryType@1@@Z @ 632 NONAME ; void QNetworkProxyQuery::setQueryType(enum QNetworkProxyQuery::QueryType)
	?trUtf8@QLocalServer@@SA?AVQString@@PBD0H@Z @ 633 NONAME ; class QString QLocalServer::trUtf8(char const *, char const *, int)
	?setReadBufferSize@QSslSocket@@QAEX_J@Z @ 634 NONAME ; void QSslSocket::setReadBufferSize(long long)
	?trUtf8@QNetworkDiskCache@@SA?AVQString@@PBD0@Z @ 635 NONAME ; class QString QNetworkDiskCache::trUtf8(char const *, char const *)
	??_EQNetworkInterface@@QAE@I@Z @ 636 NONAME ; QNetworkInterface::~QNetworkInterface(unsigned int)
	?setAttributes@QNetworkCacheMetaData@@QAEXABV?$QHash@W4Attribute@QNetworkRequest@@VQVariant@@@@@Z @ 637 NONAME ; void QNetworkCacheMetaData::setAttributes(class QHash<enum QNetworkRequest::Attribute, class QVariant> const &)
	?canReadLine@QLocalSocket@@UBE_NXZ @ 638 NONAME ; bool QLocalSocket::canReadLine(void) const
	??0QLocalServer@@QAE@PAVQObject@@@Z @ 639 NONAME ; QLocalServer::QLocalServer(class QObject *)
	??1QTcpServer@@UAE@XZ @ 640 NONAME ; QTcpServer::~QTcpServer(void)
	?tr@QNetworkDiskCache@@SA?AVQString@@PBD0H@Z @ 641 NONAME ; class QString QNetworkDiskCache::tr(char const *, char const *, int)
	?connectToServer@QLocalSocket@@QAEXABVQString@@V?$QFlags@W4OpenModeFlag@QIODevice@@@@@Z @ 642 NONAME ; void QLocalSocket::connectToServer(class QString const &, class QFlags<enum QIODevice::OpenModeFlag>)
	?toDer@QSslCertificate@@QBE?AVQByteArray@@XZ @ 643 NONAME ; class QByteArray QSslCertificate::toDer(void) const
	?newConnection@QTcpServer@@IAEXXZ @ 644 NONAME ; void QTcpServer::newConnection(void)
	?login@QFtp@@QAEHABVQString@@0@Z @ 645 NONAME ; int QFtp::login(class QString const &, class QString const &)
	?setAddresses@QHostInfo@@QAEXABV?$QList@VQHostAddress@@@@@Z @ 646 NONAME ; void QHostInfo::setAddresses(class QList<class QHostAddress> const &)
	??6@YA?AVQDebug@@V0@ABVQSslCipher@@@Z @ 647 NONAME ; class QDebug operator<<(class QDebug, class QSslCipher const &)
	??0QHttpHeader@@QAE@XZ @ 648 NONAME ; QHttpHeader::QHttpHeader(void)
	?trUtf8@QSslSocket@@SA?AVQString@@PBD0@Z @ 649 NONAME ; class QString QSslSocket::trUtf8(char const *, char const *)
	??4QHttpResponseHeader@@QAEAAV0@ABV0@@Z @ 650 NONAME ; class QHttpResponseHeader & QHttpResponseHeader::operator=(class QHttpResponseHeader const &)
	?commandStarted@QFtp@@IAEXH@Z @ 651 NONAME ; void QFtp::commandStarted(int)
	?toRawForm@QNetworkCookie@@QBE?AVQByteArray@@W4RawForm@1@@Z @ 652 NONAME ; class QByteArray QNetworkCookie::toRawForm(enum QNetworkCookie::RawForm) const
	?toPem@QSslCertificate@@QBE?AVQByteArray@@XZ @ 653 NONAME ; class QByteArray QSslCertificate::toPem(void) const
	?get@QHttp@@QAEHABVQString@@PAVQIODevice@@@Z @ 654 NONAME ; int QHttp::get(class QString const &, class QIODevice *)
	?setSocketOption@QAbstractSocket@@QAEXW4SocketOption@1@ABVQVariant@@@Z @ 655 NONAME ; void QAbstractSocket::setSocketOption(enum QAbstractSocket::SocketOption, class QVariant const &)
	?d_func@QSslSocket@@ABEPBVQSslSocketPrivate@@XZ @ 656 NONAME ; class QSslSocketPrivate const * QSslSocket::d_func(void) const
	?tr@QAbstractSocket@@SA?AVQString@@PBD0H@Z @ 657 NONAME ; class QString QAbstractSocket::tr(char const *, char const *, int)
	??0QTcpSocket@@QAE@PAVQObject@@@Z @ 658 NONAME ; QTcpSocket::QTcpSocket(class QObject *)
	??0QHttp@@QAE@ABVQString@@W4ConnectionMode@0@GPAVQObject@@@Z @ 659 NONAME ; QHttp::QHttp(class QString const &, enum QHttp::ConnectionMode, unsigned short, class QObject *)
	?connectToHostImplementation@QAbstractSocket@@IAEXABVQString@@GV?$QFlags@W4OpenModeFlag@QIODevice@@@@@Z @ 660 NONAME ; void QAbstractSocket::connectToHostImplementation(class QString const &, unsigned short, class QFlags<enum QIODevice::OpenModeFlag>)
	?sslConfiguration@QNetworkReply@@QBE?AVQSslConfiguration@@XZ @ 661 NONAME ; class QSslConfiguration QNetworkReply::sslConfiguration(void) const
	??AQIPv6Address@@QAEAAEH@Z @ 662 NONAME ; unsigned char & QIPv6Address::operator[](int)
	?setSocketDescriptor@QLocalSocket@@QAE_NIW4LocalSocketState@1@V?$QFlags@W4OpenModeFlag@QIODevice@@@@@Z @ 663 NONAME ; bool QLocalSocket::setSocketDescriptor(unsigned int, enum QLocalSocket::LocalSocketState, class QFlags<enum QIODevice::OpenModeFlag>)
	??_EQNetworkProxy@@QAE@I@Z @ 664 NONAME ; QNetworkProxy::~QNetworkProxy(unsigned int)
	?setPeerName@QAbstractSocket@@IAEXABVQString@@@Z @ 665 NONAME ; void QAbstractSocket::setPeerName(class QString const &)
	?getStaticMetaObject@QHttp@@SAABUQMetaObject@@XZ @ 666 NONAME ; struct QMetaObject const & QHttp::getStaticMetaObject(void)
	??0QNetworkProxyFactory@@QAE@XZ @ 667 NONAME ; QNetworkProxyFactory::QNetworkProxyFactory(void)
	?interfaceFromIndex@QNetworkInterface@@SA?AV1@H@Z @ 668 NONAME ; class QNetworkInterface QNetworkInterface::interfaceFromIndex(int)
	?url@QNetworkCacheMetaData@@QBE?AVQUrl@@XZ @ 669 NONAME ; class QUrl QNetworkCacheMetaData::url(void) const
	?setSslConfiguration@QSslSocket@@QAEXABVQSslConfiguration@@@Z @ 670 NONAME ; void QSslSocket::setSslConfiguration(class QSslConfiguration const &)
	?staticMetaObject@QFtp@@2UQMetaObject@@B @ 671 NONAME ; struct QMetaObject const QFtp::staticMetaObject
	?peerVerifyDepth@QSslConfiguration@@QBEHXZ @ 672 NONAME ; int QSslConfiguration::peerVerifyDepth(void) const
	??_EQUdpSocket@@UAE@I@Z @ 673 NONAME ; QUdpSocket::~QUdpSocket(unsigned int)
	?bytesAvailable@QAbstractSocket@@UBE_JXZ @ 674 NONAME ; long long QAbstractSocket::bytesAvailable(void) const
	?qt_metacast@QLocalServer@@UAEPAXPBD@Z @ 675 NONAME ; void * QLocalServer::qt_metacast(char const *)
	?protocol@QSslSocket@@QBE?AW4SslProtocol@QSsl@@XZ @ 676 NONAME ; enum QSsl::SslProtocol QSslSocket::protocol(void) const
	?toString@QHttpRequestHeader@@UBE?AVQString@@XZ @ 677 NONAME ; class QString QHttpRequestHeader::toString(void) const
	?setProxy@QHttp@@QAEHABVQString@@H00@Z @ 678 NONAME ; int QHttp::setProxy(class QString const &, int, class QString const &, class QString const &)
	?startClientEncryption@QSslSocket@@QAEXXZ @ 679 NONAME ; void QSslSocket::startClientEncryption(void)
	??1QNetworkCookieJar@@UAE@XZ @ 680 NONAME ; QNetworkCookieJar::~QNetworkCookieJar(void)
	??0QNetworkProxyQuery@@QAE@GABVQString@@W4QueryType@0@@Z @ 681 NONAME ; QNetworkProxyQuery::QNetworkProxyQuery(unsigned short, class QString const &, enum QNetworkProxyQuery::QueryType)
	?caCertificates@QSslSocket@@QBE?AV?$QList@VQSslCertificate@@@@XZ @ 682 NONAME ; class QList<class QSslCertificate> QSslSocket::caCertificates(void) const
	??4QSslCertificate@@QAEAAV0@ABV0@@Z @ 683 NONAME ; class QSslCertificate & QSslCertificate::operator=(class QSslCertificate const &)
	?trUtf8@QAbstractSocket@@SA?AVQString@@PBD0@Z @ 684 NONAME ; class QString QAbstractSocket::trUtf8(char const *, char const *)
	?stateChanged@QLocalSocket@@IAEXW4LocalSocketState@1@@Z @ 685 NONAME ; void QLocalSocket::stateChanged(enum QLocalSocket::LocalSocketState)
	?setProxy@QFtp@@QAEHABVQString@@G@Z @ 686 NONAME ; int QFtp::setProxy(class QString const &, unsigned short)
	?isReadable@QUrlInfo@@QBE_NXZ @ 687 NONAME ; bool QUrlInfo::isReadable(void) const
	?tr@QNetworkReply@@SA?AVQString@@PBD0@Z @ 688 NONAME ; class QString QNetworkReply::tr(char const *, char const *)
	?metaObject@QFtp@@UBEPBUQMetaObject@@XZ @ 689 NONAME ; struct QMetaObject const * QFtp::metaObject(void) const
	?getStaticMetaObject@QNetworkDiskCache@@SAABUQMetaObject@@XZ @ 690 NONAME ; struct QMetaObject const & QNetworkDiskCache::getStaticMetaObject(void)
	?keys@QHttpHeader@@QBE?AVQStringList@@XZ @ 691 NONAME ; class QStringList QHttpHeader::keys(void) const
	?peerCertificate@QSslSocket@@QBE?AVQSslCertificate@@XZ @ 692 NONAME ; class QSslCertificate QSslSocket::peerCertificate(void) const
	?toString@QHostAddress@@QBE?AVQString@@XZ @ 693 NONAME ; class QString QHostAddress::toString(void) const
	?setOperation@QNetworkReply@@IAEXW4Operation@QNetworkAccessManager@@@Z @ 694 NONAME ; void QNetworkReply::setOperation(enum QNetworkAccessManager::Operation)
	?attributes@QNetworkCacheMetaData@@QBE?AV?$QHash@W4Attribute@QNetworkRequest@@VQVariant@@@@XZ @ 695 NONAME ; class QHash<enum QNetworkRequest::Attribute, class QVariant> QNetworkCacheMetaData::attributes(void) const
	??1QNetworkAddressEntry@@QAE@XZ @ 696 NONAME ; QNetworkAddressEntry::~QNetworkAddressEntry(void)
	?close@QFtp@@QAEHXZ @ 697 NONAME ; int QFtp::close(void)
	?proxyAuthenticationRequired@QHttp@@IAEXABVQNetworkProxy@@PAVQAuthenticator@@@Z @ 698 NONAME ; void QHttp::proxyAuthenticationRequired(class QNetworkProxy const &, class QAuthenticator *)
	?rawHeaderList@QNetworkReply@@QBE?AV?$QList@VQByteArray@@@@XZ @ 699 NONAME ; class QList<class QByteArray> QNetworkReply::rawHeaderList(void) const
	?d_func@QLocalServer@@AAEPAVQLocalServerPrivate@@XZ @ 700 NONAME ; class QLocalServerPrivate * QLocalServer::d_func(void)
	?setUser@QNetworkProxy@@QAEXABVQString@@@Z @ 701 NONAME ; void QNetworkProxy::setUser(class QString const &)
	?trUtf8@QAbstractNetworkCache@@SA?AVQString@@PBD0H@Z @ 702 NONAME ; class QString QAbstractNetworkCache::trUtf8(char const *, char const *, int)
	?authenticationRequired@QHttp@@IAEXABVQString@@GPAVQAuthenticator@@@Z @ 703 NONAME ; void QHttp::authenticationRequired(class QString const &, unsigned short, class QAuthenticator *)
	?read@QFtp@@QAE_JPAD_J@Z @ 704 NONAME ; long long QFtp::read(char *, long long)
	?detach@QAuthenticator@@QAEXXZ @ 705 NONAME ; void QAuthenticator::detach(void)
	??_EQHttp@@UAE@I@Z @ 706 NONAME ; QHttp::~QHttp(unsigned int)
	?finished@QNetworkReply@@IAEXXZ @ 707 NONAME ; void QNetworkReply::finished(void)
	?remove@QNetworkDiskCache@@UAE_NABVQUrl@@@Z @ 708 NONAME ; bool QNetworkDiskCache::remove(class QUrl const &)
	?request@QHttp@@QAEHABVQHttpRequestHeader@@ABVQByteArray@@PAVQIODevice@@@Z @ 709 NONAME ; int QHttp::request(class QHttpRequestHeader const &, class QByteArray const &, class QIODevice *)
	?put@QFtp@@QAEHPAVQIODevice@@ABVQString@@W4TransferType@1@@Z @ 710 NONAME ; int QFtp::put(class QIODevice *, class QString const &, enum QFtp::TransferType)
	?waitForDisconnected@QLocalSocket@@QAE_NH@Z @ 711 NONAME ; bool QLocalSocket::waitForDisconnected(int)
	?name@QSslCipher@@QBE?AVQString@@XZ @ 712 NONAME ; class QString QSslCipher::name(void) const
	?mode@QSslSocket@@QBE?AW4SslMode@1@XZ @ 713 NONAME ; enum QSslSocket::SslMode QSslSocket::mode(void) const
	?metaData@QNetworkDiskCache@@UAE?AVQNetworkCacheMetaData@@ABVQUrl@@@Z @ 714 NONAME ; class QNetworkCacheMetaData QNetworkDiskCache::metaData(class QUrl const &)
	??_EQHostAddress@@QAE@I@Z @ 715 NONAME ; QHostAddress::~QHostAddress(unsigned int)
	?abort@QLocalSocket@@QAEXXZ @ 716 NONAME ; void QLocalSocket::abort(void)
	?setDir@QUrlInfo@@UAEX_N@Z @ 717 NONAME ; void QUrlInfo::setDir(bool)
	?systemCaCertificates@QSslSocket@@SA?AV?$QList@VQSslCertificate@@@@XZ @ 718 NONAME ; class QList<class QSslCertificate> QSslSocket::systemCaCertificates(void)
	??0QHttpHeader@@IAE@AAVQHttpHeaderPrivate@@ABVQString@@@Z @ 719 NONAME ; QHttpHeader::QHttpHeader(class QHttpHeaderPrivate &, class QString const &)
	??0QNetworkCacheMetaData@@QAE@ABV0@@Z @ 720 NONAME ; QNetworkCacheMetaData::QNetworkCacheMetaData(class QNetworkCacheMetaData const &)
	?localDomainName@QHostInfo@@SA?AVQString@@XZ @ 721 NONAME ; class QString QHostInfo::localDomainName(void)
	??0QSslKey@@QAE@ABV0@@Z @ 722 NONAME ; QSslKey::QSslKey(class QSslKey const &)
	?lookupHost@QHostInfo@@SAHABVQString@@PAVQObject@@PBD@Z @ 723 NONAME ; int QHostInfo::lookupHost(class QString const &, class QObject *, char const *)
	?permissions@QUrlInfo@@QBEHXZ @ 724 NONAME ; int QUrlInfo::permissions(void) const
	??4QHostAddress@@QAEAAV0@ABVQString@@@Z @ 725 NONAME ; class QHostAddress & QHostAddress::operator=(class QString const &)
	?d_func@QNetworkAccessManager@@AAEPAVQNetworkAccessManagerPrivate@@XZ @ 726 NONAME ; class QNetworkAccessManagerPrivate * QNetworkAccessManager::d_func(void)
	?rawHeaders@QNetworkCacheMetaData@@QBE?AV?$QList@U?$QPair@VQByteArray@@V1@@@@@XZ @ 727 NONAME ; class QList<struct QPair<class QByteArray, class QByteArray> > QNetworkCacheMetaData::rawHeaders(void) const
	??_EQLocalServer@@UAE@I@Z @ 728 NONAME ; QLocalServer::~QLocalServer(unsigned int)
	?length@QSslKey@@QBEHXZ @ 729 NONAME ; int QSslKey::length(void) const
	?setSymLink@QUrlInfo@@UAEX_N@Z @ 730 NONAME ; void QUrlInfo::setSymLink(bool)
	?allCookies@QNetworkCookieJar@@IBE?AV?$QList@VQNetworkCookie@@@@XZ @ 731 NONAME ; class QList<class QNetworkCookie> QNetworkCookieJar::allCookies(void) const
	?localCertificate@QSslSocket@@QBE?AVQSslCertificate@@XZ @ 732 NONAME ; class QSslCertificate QSslSocket::localCertificate(void) const
	?qt_metacast@QNetworkCookieJar@@UAEPAXPBD@Z @ 733 NONAME ; void * QNetworkCookieJar::qt_metacast(char const *)
	?writeDatagram@QUdpSocket@@QAE_JABVQByteArray@@ABVQHostAddress@@G@Z @ 734 NONAME ; long long QUdpSocket::writeDatagram(class QByteArray const &, class QHostAddress const &, unsigned short)
	??0QAbstractSocket@@QAE@W4SocketType@0@PAVQObject@@@Z @ 735 NONAME ; QAbstractSocket::QAbstractSocket(enum QAbstractSocket::SocketType, class QObject *)
	?get@QFtp@@QAEHABVQString@@PAVQIODevice@@W4TransferType@1@@Z @ 736 NONAME ; int QFtp::get(class QString const &, class QIODevice *, enum QFtp::TransferType)
	?setSocketDescriptor@QAbstractSocket@@QAE_NHW4SocketState@1@V?$QFlags@W4OpenModeFlag@QIODevice@@@@@Z @ 737 NONAME ; bool QAbstractSocket::setSocketDescriptor(int, enum QAbstractSocket::SocketState, class QFlags<enum QIODevice::OpenModeFlag>)
	?setNetmask@QNetworkAddressEntry@@QAEXABVQHostAddress@@@Z @ 738 NONAME ; void QNetworkAddressEntry::setNetmask(class QHostAddress const &)
	??_EQHttpResponseHeader@@UAE@I@Z @ 739 NONAME ; QHttpResponseHeader::~QHttpResponseHeader(unsigned int)
	?encryptedBytesToWrite@QSslSocket@@QBE_JXZ @ 740 NONAME ; long long QSslSocket::encryptedBytesToWrite(void) const
	?localPort@QNetworkProxyQuery@@QBEHXZ @ 741 NONAME ; int QNetworkProxyQuery::localPort(void) const
	?alternateSubjectNames@QSslCertificate@@QBE?AV?$QMultiMap@W4AlternateNameEntryType@QSsl@@VQString@@@@XZ @ 742 NONAME ; class QMultiMap<enum QSsl::AlternateNameEntryType, class QString> QSslCertificate::alternateSubjectNames(void) const
	?peerName@QAbstractSocket@@QBE?AVQString@@XZ @ 743 NONAME ; class QString QAbstractSocket::peerName(void) const
	??4QSslCipher@@QAEAAV0@ABV0@@Z @ 744 NONAME ; class QSslCipher & QSslCipher::operator=(class QSslCipher const &)
	??4QHttpHeader@@QAEAAV0@ABV0@@Z @ 745 NONAME ; class QHttpHeader & QHttpHeader::operator=(class QHttpHeader const &)
	?parseLine@QHttpRequestHeader@@MAE_NABVQString@@H@Z @ 746 NONAME ; bool QHttpRequestHeader::parseLine(class QString const &, int)
	?setPeerVerifyDepth@QSslSocket@@QAEXH@Z @ 747 NONAME ; void QSslSocket::setPeerVerifyDepth(int)
	?close@QHttp@@QAEHXZ @ 748 NONAME ; int QHttp::close(void)
	??0QNetworkInterface@@QAE@XZ @ 749 NONAME ; QNetworkInterface::QNetworkInterface(void)
	??_EQTcpServer@@UAE@I@Z @ 750 NONAME ; QTcpServer::~QTcpServer(unsigned int)
	?metaObject@QAbstractNetworkCache@@UBEPBUQMetaObject@@XZ @ 751 NONAME ; struct QMetaObject const * QAbstractNetworkCache::metaObject(void) const
	?bytesAvailable@QLocalSocket@@UBE_JXZ @ 752 NONAME ; long long QLocalSocket::bytesAvailable(void) const
	??1QAuthenticator@@QAE@XZ @ 753 NONAME ; QAuthenticator::~QAuthenticator(void)
	?setContentType@QHttpHeader@@QAEXABVQString@@@Z @ 754 NONAME ; void QHttpHeader::setContentType(class QString const &)
	?port@QNetworkProxy@@QBEGXZ @ 755 NONAME ; unsigned short QNetworkProxy::port(void) const
	?encryptedBytesAvailable@QSslSocket@@QBE_JXZ @ 756 NONAME ; long long QSslSocket::encryptedBytesAvailable(void) const
	??6@YA?AVQDebug@@V0@W4SocketError@QAbstractSocket@@@Z @ 757 NONAME ; class QDebug operator<<(class QDebug, enum QAbstractSocket::SocketError)
	?close@QLocalServer@@QAEXXZ @ 758 NONAME ; void QLocalServer::close(void)
	?staticMetaObject@QAbstractNetworkCache@@2UQMetaObject@@B @ 759 NONAME ; struct QMetaObject const QAbstractNetworkCache::staticMetaObject
	?hasKey@QHttpHeader@@QBE_NABVQString@@@Z @ 760 NONAME ; bool QHttpHeader::hasKey(class QString const &) const
	?setContentLength@QHttpHeader@@QAEXH@Z @ 761 NONAME ; void QHttpHeader::setContentLength(int)
	??_EQNetworkCookieJar@@UAE@I@Z @ 762 NONAME ; QNetworkCookieJar::~QNetworkCookieJar(unsigned int)
	?currentId@QFtp@@QBEHXZ @ 763 NONAME ; int QFtp::currentId(void) const
	?updateMetaData@QNetworkDiskCache@@UAEXABVQNetworkCacheMetaData@@@Z @ 764 NONAME ; void QNetworkDiskCache::updateMetaData(class QNetworkCacheMetaData const &)
	?errorString@QSslError@@QBE?AVQString@@XZ @ 765 NONAME ; class QString QSslError::errorString(void) const
	?disconnectFromServer@QLocalSocket@@QAEXXZ @ 766 NONAME ; void QLocalSocket::disconnectFromServer(void)
	?errorString@QFtp@@QBE?AVQString@@XZ @ 767 NONAME ; class QString QFtp::errorString(void) const
	?uploadProgress@QNetworkReply@@IAEX_J0@Z @ 768 NONAME ; void QNetworkReply::uploadProgress(long long, long long)
	??0QHttpRequestHeader@@QAE@ABVQString@@@Z @ 769 NONAME ; QHttpRequestHeader::QHttpRequestHeader(class QString const &)
	?cookieJar@QNetworkAccessManager@@QBEPAVQNetworkCookieJar@@XZ @ 770 NONAME ; class QNetworkCookieJar * QNetworkAccessManager::cookieJar(void) const
	?setAddress@QHostAddress@@QAEXPAE@Z @ 771 NONAME ; void QHostAddress::setAddress(unsigned char *)
	?parseSubnet@QHostAddress@@SA?AU?$QPair@VQHostAddress@@H@@ABVQString@@@Z @ 772 NONAME ; struct QPair<class QHostAddress, int> QHostAddress::parseSubnet(class QString const &)
	??0QSslConfiguration@@QAE@ABV0@@Z @ 773 NONAME ; QSslConfiguration::QSslConfiguration(class QSslConfiguration const &)
	?metaObject@QNetworkCookieJar@@UBEPBUQMetaObject@@XZ @ 774 NONAME ; struct QMetaObject const * QNetworkCookieJar::metaObject(void) const
	??0QHostAddress@@QAE@I@Z @ 775 NONAME ; QHostAddress::QHostAddress(unsigned int)
	?user@QNetworkProxy@@QBE?AVQString@@XZ @ 776 NONAME ; class QString QNetworkProxy::user(void) const
	?fullServerName@QLocalServer@@QBE?AVQString@@XZ @ 777 NONAME ; class QString QLocalServer::fullServerName(void) const
	?incomingConnection@QTcpServer@@MAEXH@Z @ 778 NONAME ; void QTcpServer::incomingConnection(int)
	?mkdir@QFtp@@QAEHABVQString@@@Z @ 779 NONAME ; int QFtp::mkdir(class QString const &)
	?removeAllValues@QHttpHeader@@QAEXABVQString@@@Z @ 780 NONAME ; void QHttpHeader::removeAllValues(class QString const &)
	?error@QHostInfo@@QBE?AW4HostInfoError@1@XZ @ 781 NONAME ; enum QHostInfo::HostInfoError QHostInfo::error(void) const
	??5@YAAAVQDataStream@@AAV0@AAVQHostAddress@@@Z @ 782 NONAME ; class QDataStream & operator>>(class QDataStream &, class QHostAddress &)
	?setValue@QHttpHeader@@QAEXABVQString@@0@Z @ 783 NONAME ; void QHttpHeader::setValue(class QString const &, class QString const &)
	??AQIPv6Address@@QBEEH@Z @ 784 NONAME ; unsigned char QIPv6Address::operator[](int) const
	??0QSslCertificate@@QAE@PAVQIODevice@@W4EncodingFormat@QSsl@@@Z @ 785 NONAME ; QSslCertificate::QSslCertificate(class QIODevice *, enum QSsl::EncodingFormat)
	?peerVerifyError@QSslSocket@@IAEXABVQSslError@@@Z @ 786 NONAME ; void QSslSocket::peerVerifyError(class QSslError const &)
	?owner@QUrlInfo@@QBE?AVQString@@XZ @ 787 NONAME ; class QString QUrlInfo::owner(void) const
	??0QUrlInfo@@QAE@ABVQString@@H00_JABVQDateTime@@2_N33333@Z @ 788 NONAME ; QUrlInfo::QUrlInfo(class QString const &, int, class QString const &, class QString const &, long long, class QDateTime const &, class QDateTime const &, bool, bool, bool, bool, bool, bool)
	?defaultConfiguration@QSslConfiguration@@SA?AV1@XZ @ 789 NONAME ; class QSslConfiguration QSslConfiguration::defaultConfiguration(void)
	?prepare@QNetworkDiskCache@@UAEPAVQIODevice@@ABVQNetworkCacheMetaData@@@Z @ 790 NONAME ; class QIODevice * QNetworkDiskCache::prepare(class QNetworkCacheMetaData const &)
	??1QHostAddress@@QAE@XZ @ 791 NONAME ; QHostAddress::~QHostAddress(void)
	?modeChanged@QSslSocket@@IAEXW4SslMode@1@@Z @ 792 NONAME ; void QSslSocket::modeChanged(enum QSslSocket::SslMode)
	?attribute@QNetworkReply@@QBE?AVQVariant@@W4Attribute@QNetworkRequest@@@Z @ 793 NONAME ; class QVariant QNetworkReply::attribute(enum QNetworkRequest::Attribute) const
	?setExpirationDate@QNetworkCookie@@QAEXABVQDateTime@@@Z @ 794 NONAME ; void QNetworkCookie::setExpirationDate(class QDateTime const &)
	?hostName@QHostInfo@@QBE?AVQString@@XZ @ 795 NONAME ; class QString QHostInfo::hostName(void) const
	?addDefaultCaCertificates@QSslSocket@@SA_NABVQString@@W4EncodingFormat@QSsl@@W4PatternSyntax@QRegExp@@@Z @ 796 NONAME ; bool QSslSocket::addDefaultCaCertificates(class QString const &, enum QSsl::EncodingFormat, enum QRegExp::PatternSyntax)
	?parseLine@QHttpHeader@@MAE_NABVQString@@H@Z @ 797 NONAME ; bool QHttpHeader::parseLine(class QString const &, int)
	??9QSslError@@QBE_NABV0@@Z @ 798 NONAME ; bool QSslError::operator!=(class QSslError const &) const
	??0QSslError@@QAE@ABV0@@Z @ 799 NONAME ; QSslError::QSslError(class QSslError const &)
	??1QNetworkCacheMetaData@@QAE@XZ @ 800 NONAME ; QNetworkCacheMetaData::~QNetworkCacheMetaData(void)
	?socketDescriptor@QAbstractSocket@@QBEHXZ @ 801 NONAME ; int QAbstractSocket::socketDescriptor(void) const
	?rename@QFtp@@QAEHABVQString@@0@Z @ 802 NONAME ; int QFtp::rename(class QString const &, class QString const &)
	?readBufferSize@QNetworkReply@@QBE_JXZ @ 803 NONAME ; long long QNetworkReply::readBufferSize(void) const
	?staticMetaObject@QNetworkDiskCache@@2UQMetaObject@@B @ 804 NONAME ; struct QMetaObject const QNetworkDiskCache::staticMetaObject
	?request@QNetworkReply@@QBE?AVQNetworkRequest@@XZ @ 805 NONAME ; class QNetworkRequest QNetworkReply::request(void) const
	??0QSslError@@QAE@XZ @ 806 NONAME ; QSslError::QSslError(void)
	??9QHostAddress@@QBE_NW4SpecialAddress@0@@Z @ 807 NONAME ; bool QHostAddress::operator!=(enum QHostAddress::SpecialAddress) const
	?isWritable@QUrlInfo@@QBE_NXZ @ 808 NONAME ; bool QUrlInfo::isWritable(void) const
	?post@QNetworkAccessManager@@QAEPAVQNetworkReply@@ABVQNetworkRequest@@ABVQByteArray@@@Z @ 809 NONAME ; class QNetworkReply * QNetworkAccessManager::post(class QNetworkRequest const &, class QByteArray const &)
	?getStaticMetaObject@QTcpSocket@@SAABUQMetaObject@@XZ @ 810 NONAME ; struct QMetaObject const & QTcpSocket::getStaticMetaObject(void)
	?disconnected@QLocalSocket@@IAEXXZ @ 811 NONAME ; void QLocalSocket::disconnected(void)
	?isValid@QHttpHeader@@QBE_NXZ @ 812 NONAME ; bool QHttpHeader::isValid(void) const
	?d_func@QHttp@@ABEPBVQHttpPrivate@@XZ @ 813 NONAME ; class QHttpPrivate const * QHttp::d_func(void) const
	?requestStarted@QHttp@@IAEXH@Z @ 814 NONAME ; void QHttp::requestStarted(int)
	?setUrl@QNetworkCacheMetaData@@QAEXABVQUrl@@@Z @ 815 NONAME ; void QNetworkCacheMetaData::setUrl(class QUrl const &)
	??0QAuthenticator@@QAE@XZ @ 816 NONAME ; QAuthenticator::QAuthenticator(void)
	?setMaxPendingConnections@QLocalServer@@QAEXH@Z @ 817 NONAME ; void QLocalServer::setMaxPendingConnections(int)
	?peerPort@QNetworkProxyQuery@@QBEHXZ @ 818 NONAME ; int QNetworkProxyQuery::peerPort(void) const
	?addressEntries@QNetworkInterface@@QBE?AV?$QList@VQNetworkAddressEntry@@@@XZ @ 819 NONAME ; class QList<class QNetworkAddressEntry> QNetworkInterface::addressEntries(void) const
	?staticMetaObject@QAbstractSocket@@2UQMetaObject@@B @ 820 NONAME ; struct QMetaObject const QAbstractSocket::staticMetaObject
	?readData@QAbstractSocket@@MAE_JPAD_J@Z @ 821 NONAME ; long long QAbstractSocket::readData(char *, long long)
	?hostName@QNetworkProxy@@QBE?AVQString@@XZ @ 822 NONAME ; class QString QNetworkProxy::hostName(void) const
	?peerVerifyDepth@QSslSocket@@QBEHXZ @ 823 NONAME ; int QSslSocket::peerVerifyDepth(void) const
	?path@QHttpRequestHeader@@QBE?AVQString@@XZ @ 824 NONAME ; class QString QHttpRequestHeader::path(void) const
	?close@QSslSocket@@UAEXXZ @ 825 NONAME ; void QSslSocket::close(void)
	?setLocalCertificate@QSslSocket@@QAEXABVQString@@W4EncodingFormat@QSsl@@@Z @ 826 NONAME ; void QSslSocket::setLocalCertificate(class QString const &, enum QSsl::EncodingFormat)
	?toDer@QSslKey@@QBE?AVQByteArray@@ABV2@@Z @ 827 NONAME ; class QByteArray QSslKey::toDer(class QByteArray const &) const
	?isListening@QTcpServer@@QBE_NXZ @ 828 NONAME ; bool QTcpServer::isListening(void) const
	?password@QNetworkProxy@@QBE?AVQString@@XZ @ 829 NONAME ; class QString QNetworkProxy::password(void) const
	??6@YA?AVQDebug@@V0@ABVQSslCertificate@@@Z @ 830 NONAME ; class QDebug operator<<(class QDebug, class QSslCertificate const &)
	??0QLocalSocket@@QAE@PAVQObject@@@Z @ 831 NONAME ; QLocalSocket::QLocalSocket(class QObject *)
	?isValid@QNetworkInterface@@QBE_NXZ @ 832 NONAME ; bool QNetworkInterface::isValid(void) const
	?saveToDisk@QNetworkCacheMetaData@@QBE_NXZ @ 833 NONAME ; bool QNetworkCacheMetaData::saveToDisk(void) const
	?writeData@QLocalSocket@@MAE_JPBD_J@Z @ 834 NONAME ; long long QLocalSocket::writeData(char const *, long long)
	?setProxy@QHttp@@QAEHABVQNetworkProxy@@@Z @ 835 NONAME ; int QHttp::setProxy(class QNetworkProxy const &)
	?operation@QNetworkReply@@QBE?AW4Operation@QNetworkAccessManager@@XZ @ 836 NONAME ; enum QNetworkAccessManager::Operation QNetworkReply::operation(void) const
	?d_func@QAbstractNetworkCache@@AAEPAVQAbstractNetworkCachePrivate@@XZ @ 837 NONAME ; class QAbstractNetworkCachePrivate * QAbstractNetworkCache::d_func(void)
	?stateChanged@QFtp@@IAEXH@Z @ 838 NONAME ; void QFtp::stateChanged(int)
	?equal@QUrlInfo@@SA_NABV1@0H@Z @ 839 NONAME ; bool QUrlInfo::equal(class QUrlInfo const &, class QUrlInfo const &, int)
	?error@QLocalSocket@@IAEXW4LocalSocketError@1@@Z @ 840 NONAME ; void QLocalSocket::error(enum QLocalSocket::LocalSocketError)
	?systemProxyForQuery@QNetworkProxyFactory@@SA?AV?$QList@VQNetworkProxy@@@@ABVQNetworkProxyQuery@@@Z @ 841 NONAME ; class QList<class QNetworkProxy> QNetworkProxyFactory::systemProxyForQuery(class QNetworkProxyQuery const &)
	?waitForConnected@QLocalSocket@@QAE_NH@Z @ 842 NONAME ; bool QLocalSocket::waitForConnected(int)
	??8QNetworkCacheMetaData@@QBE_NABV0@@Z @ 843 NONAME ; bool QNetworkCacheMetaData::operator==(class QNetworkCacheMetaData const &) const
	?trUtf8@QNetworkCookieJar@@SA?AVQString@@PBD0H@Z @ 844 NONAME ; class QString QNetworkCookieJar::trUtf8(char const *, char const *, int)
	?size@QUrlInfo@@QBE_JXZ @ 845 NONAME ; long long QUrlInfo::size(void) const
	?qt_metacast@QFtp@@UAEPAXPBD@Z @ 846 NONAME ; void * QFtp::qt_metacast(char const *)
	?localAddress@QAbstractSocket@@QBE?AVQHostAddress@@XZ @ 847 NONAME ; class QHostAddress QAbstractSocket::localAddress(void) const
	??_EQAbstractSocket@@UAE@I@Z @ 848 NONAME ; QAbstractSocket::~QAbstractSocket(unsigned int)
	?proxyFactory@QNetworkAccessManager@@QBEPAVQNetworkProxyFactory@@XZ @ 849 NONAME ; class QNetworkProxyFactory * QNetworkAccessManager::proxyFactory(void) const
	?connectToHostEncrypted@QSslSocket@@QAEXABVQString@@G0V?$QFlags@W4OpenModeFlag@QIODevice@@@@@Z @ 850 NONAME ; void QSslSocket::connectToHostEncrypted(class QString const &, unsigned short, class QString const &, class QFlags<enum QIODevice::OpenModeFlag>)
	?tr@QNetworkAccessManager@@SA?AVQString@@PBD0H@Z @ 851 NONAME ; class QString QNetworkAccessManager::tr(char const *, char const *, int)
	?setReadBufferSize@QAbstractSocket@@QAEX_J@Z @ 852 NONAME ; void QAbstractSocket::setReadBufferSize(long long)
	?setPrivateKey@QSslSocket@@QAEXABVQString@@W4KeyAlgorithm@QSsl@@W4EncodingFormat@4@ABVQByteArray@@@Z @ 853 NONAME ; void QSslSocket::setPrivateKey(class QString const &, enum QSsl::KeyAlgorithm, enum QSsl::EncodingFormat, class QByteArray const &)
	??0QHttpHeader@@QAE@ABVQString@@@Z @ 854 NONAME ; QHttpHeader::QHttpHeader(class QString const &)
	??0QUrlInfo@@QAE@ABV0@@Z @ 855 NONAME ; QUrlInfo::QUrlInfo(class QUrlInfo const &)
	?fromName@QHostInfo@@SA?AV1@ABVQString@@@Z @ 856 NONAME ; class QHostInfo QHostInfo::fromName(class QString const &)
	?localCertificate@QSslConfiguration@@QBE?AVQSslCertificate@@XZ @ 857 NONAME ; class QSslCertificate QSslConfiguration::localCertificate(void) const
	?setSocketOption@QSslSocket@@QAEXW4SocketOption@QAbstractSocket@@ABVQVariant@@@Z @ 858 NONAME ; void QSslSocket::setSocketOption(enum QAbstractSocket::SocketOption, class QVariant const &)
	??0QHttpResponseHeader@@QAE@ABV0@@Z @ 859 NONAME ; QHttpResponseHeader::QHttpResponseHeader(class QHttpResponseHeader const &)
	?currentSourceDevice@QHttp@@QBEPAVQIODevice@@XZ @ 860 NONAME ; class QIODevice * QHttp::currentSourceDevice(void) const
	?peerCertificateChain@QSslConfiguration@@QBE?AV?$QList@VQSslCertificate@@@@XZ @ 861 NONAME ; class QList<class QSslCertificate> QSslConfiguration::peerCertificateChain(void) const
	??_EQHostInfo@@QAE@I@Z @ 862 NONAME ; QHostInfo::~QHostInfo(unsigned int)
	?errorString@QHttp@@QBE?AVQString@@XZ @ 863 NONAME ; class QString QHttp::errorString(void) const
	?proxyAuthenticationRequired@QAbstractSocket@@IAEXABVQNetworkProxy@@PAVQAuthenticator@@@Z @ 864 NONAME ; void QAbstractSocket::proxyAuthenticationRequired(class QNetworkProxy const &, class QAuthenticator *)
	?isSequential@QNetworkReply@@UBE_NXZ @ 865 NONAME ; bool QNetworkReply::isSequential(void) const
	??9QNetworkAddressEntry@@QBE_NABV0@@Z @ 866 NONAME ; bool QNetworkAddressEntry::operator!=(class QNetworkAddressEntry const &) const
	??0QHttp@@QAE@PAVQObject@@@Z @ 867 NONAME ; QHttp::QHttp(class QObject *)
	??0QAbstractSocket@@IAE@W4SocketType@0@AAVQAbstractSocketPrivate@@PAVQObject@@@Z @ 868 NONAME ; QAbstractSocket::QAbstractSocket(enum QAbstractSocket::SocketType, class QAbstractSocketPrivate &, class QObject *)
	?readDatagram@QUdpSocket@@QAE_JPAD_JPAVQHostAddress@@PAG@Z @ 869 NONAME ; long long QUdpSocket::readDatagram(char *, long long, class QHostAddress *, unsigned short *)
	??0QNetworkProxyQuery@@QAE@ABVQUrl@@W4QueryType@0@@Z @ 870 NONAME ; QNetworkProxyQuery::QNetworkProxyQuery(class QUrl const &, enum QNetworkProxyQuery::QueryType)
	?manager@QNetworkReply@@QBEPAVQNetworkAccessManager@@XZ @ 871 NONAME ; class QNetworkAccessManager * QNetworkReply::manager(void) const
	?tr@QTcpSocket@@SA?AVQString@@PBD0@Z @ 872 NONAME ; class QString QTcpSocket::tr(char const *, char const *)
	?peerCertificate@QSslConfiguration@@QBE?AVQSslCertificate@@XZ @ 873 NONAME ; class QSslCertificate QSslConfiguration::peerCertificate(void) const
	?setPeerVerifyDepth@QSslConfiguration@@QAEXH@Z @ 874 NONAME ; void QSslConfiguration::setPeerVerifyDepth(int)
	??6@YA?AVQDebug@@V0@W4LocalSocketState@QLocalSocket@@@Z @ 875 NONAME ; class QDebug operator<<(class QDebug, enum QLocalSocket::LocalSocketState)
	?setLookupId@QHostInfo@@QAEXH@Z @ 876 NONAME ; void QHostInfo::setLookupId(int)
	?lastModified@QNetworkCacheMetaData@@QBE?AVQDateTime@@XZ @ 877 NONAME ; class QDateTime QNetworkCacheMetaData::lastModified(void) const
	?setSecure@QNetworkCookie@@QAEX_N@Z @ 878 NONAME ; void QNetworkCookie::setSecure(bool)
	??0QSslError@@QAE@W4SslError@0@@Z @ 879 NONAME ; QSslError::QSslError(enum QSslError::SslError)
	??0QSslCipher@@QAE@XZ @ 880 NONAME ; QSslCipher::QSslCipher(void)
	?expirationDate@QNetworkCacheMetaData@@QBE?AVQDateTime@@XZ @ 881 NONAME ; class QDateTime QNetworkCacheMetaData::expirationDate(void) const
	?rawCommand@QFtp@@QAEHABVQString@@@Z @ 882 NONAME ; int QFtp::rawCommand(class QString const &)
	?flush@QSslSocket@@QAE_NXZ @ 883 NONAME ; bool QSslSocket::flush(void)
	??0QUrlInfo@@QAE@XZ @ 884 NONAME ; QUrlInfo::QUrlInfo(void)
	?getStaticMetaObject@QNetworkReply@@SAABUQMetaObject@@XZ @ 885 NONAME ; struct QMetaObject const & QNetworkReply::getStaticMetaObject(void)
	?listInfo@QFtp@@IAEXABVQUrlInfo@@@Z @ 886 NONAME ; void QFtp::listInfo(class QUrlInfo const &)
	?bytesAvailable@QSslSocket@@UBE_JXZ @ 887 NONAME ; long long QSslSocket::bytesAvailable(void) const
	?bytesToWrite@QSslSocket@@UBE_JXZ @ 888 NONAME ; long long QSslSocket::bytesToWrite(void) const
	?waitForReadyRead@QAbstractSocket@@UAE_NH@Z @ 889 NONAME ; bool QAbstractSocket::waitForReadyRead(int)
	?password@QAuthenticator@@QBE?AVQString@@XZ @ 890 NONAME ; class QString QAuthenticator::password(void) const
	??0QSslError@@QAE@W4SslError@0@ABVQSslCertificate@@@Z @ 891 NONAME ; QSslError::QSslError(enum QSslError::SslError, class QSslCertificate const &)
	?d_func@QNetworkReply@@ABEPBVQNetworkReplyPrivate@@XZ @ 892 NONAME ; class QNetworkReplyPrivate const * QNetworkReply::d_func(void) const
	?disconnectFromHostImplementation@QSslSocket@@IAEXXZ @ 893 NONAME ; void QSslSocket::disconnectFromHostImplementation(void)
	??4QNetworkCookie@@QAEAAV0@ABV0@@Z @ 894 NONAME ; class QNetworkCookie & QNetworkCookie::operator=(class QNetworkCookie const &)
	??1QNetworkAccessManager@@UAE@XZ @ 895 NONAME ; QNetworkAccessManager::~QNetworkAccessManager(void)
	?tr@QLocalSocket@@SA?AVQString@@PBD0@Z @ 896 NONAME ; class QString QLocalSocket::tr(char const *, char const *)
	?user@QAuthenticator@@QBE?AVQString@@XZ @ 897 NONAME ; class QString QAuthenticator::user(void) const
	?qt_metacall@QAbstractNetworkCache@@UAEHW4Call@QMetaObject@@HPAPAX@Z @ 898 NONAME ; int QAbstractNetworkCache::qt_metacall(enum QMetaObject::Call, int, void * *)
	??_EQFtp@@UAE@I@Z @ 899 NONAME ; QFtp::~QFtp(unsigned int)
	?setProtocol@QSslConfiguration@@QAEXW4SslProtocol@QSsl@@@Z @ 900 NONAME ; void QSslConfiguration::setProtocol(enum QSsl::SslProtocol)
	?setLastModified@QNetworkCacheMetaData@@QAEXABVQDateTime@@@Z @ 901 NONAME ; void QNetworkCacheMetaData::setLastModified(class QDateTime const &)
	??4QNetworkRequest@@QAEAAV0@ABV0@@Z @ 902 NONAME ; class QNetworkRequest & QNetworkRequest::operator=(class QNetworkRequest const &)
	??1QHttp@@UAE@XZ @ 903 NONAME ; QHttp::~QHttp(void)
	?qt_metacast@QTcpServer@@UAEPAXPBD@Z @ 904 NONAME ; void * QTcpServer::qt_metacast(char const *)
	?close@QAbstractSocket@@UAEXXZ @ 905 NONAME ; void QAbstractSocket::close(void)
	?setWritable@QUrlInfo@@UAEX_N@Z @ 906 NONAME ; void QUrlInfo::setWritable(bool)
	??1QHttpResponseHeader@@UAE@XZ @ 907 NONAME ; QHttpResponseHeader::~QHttpResponseHeader(void)
	?isExecutable@QUrlInfo@@QBE_NXZ @ 908 NONAME ; bool QUrlInfo::isExecutable(void) const
	?ignoreSslErrors@QHttp@@QAEXXZ @ 909 NONAME ; void QHttp::ignoreSslErrors(void)
	?setPeerPort@QAbstractSocket@@IAEXG@Z @ 910 NONAME ; void QAbstractSocket::setPeerPort(unsigned short)
	?setApplicationProxyFactory@QNetworkProxyFactory@@SAXPAV1@@Z @ 911 NONAME ; void QNetworkProxyFactory::setApplicationProxyFactory(class QNetworkProxyFactory *)
	?error@QNetworkReply@@IAEXW4NetworkError@1@@Z @ 912 NONAME ; void QNetworkReply::error(enum QNetworkReply::NetworkError)
	??0QSslCipher@@QAE@ABVQString@@W4SslProtocol@QSsl@@@Z @ 913 NONAME ; QSslCipher::QSslCipher(class QString const &, enum QSsl::SslProtocol)
	?getStaticMetaObject@QFtp@@SAABUQMetaObject@@XZ @ 914 NONAME ; struct QMetaObject const & QFtp::getStaticMetaObject(void)
	?isNull@QHostAddress@@QBE_NXZ @ 915 NONAME ; bool QHostAddress::isNull(void) const
	??9QSslConfiguration@@QBE_NABV0@@Z @ 916 NONAME ; bool QSslConfiguration::operator!=(class QSslConfiguration const &) const
	??4QNetworkAddressEntry@@QAEAAV0@ABV0@@Z @ 917 NONAME ; class QNetworkAddressEntry & QNetworkAddressEntry::operator=(class QNetworkAddressEntry const &)
	??_EQUrlInfo@@UAE@I@Z @ 918 NONAME ; QUrlInfo::~QUrlInfo(unsigned int)
	??4QUrlInfo@@QAEAAV0@ABV0@@Z @ 919 NONAME ; class QUrlInfo & QUrlInfo::operator=(class QUrlInfo const &)
	??1QNetworkInterface@@QAE@XZ @ 920 NONAME ; QNetworkInterface::~QNetworkInterface(void)
	?d_func@QLocalServer@@ABEPBVQLocalServerPrivate@@XZ @ 921 NONAME ; class QLocalServerPrivate const * QLocalServer::d_func(void) const
	??1QSslKey@@QAE@XZ @ 922 NONAME ; QSslKey::~QSslKey(void)
	?tr@QHttp@@SA?AVQString@@PBD0H@Z @ 923 NONAME ; class QString QHttp::tr(char const *, char const *, int)
	?nextPendingConnection@QTcpServer@@UAEPAVQTcpSocket@@XZ @ 924 NONAME ; class QTcpSocket * QTcpServer::nextPendingConnection(void)
	?addDefaultCaCertificates@QSslSocket@@SAXABV?$QList@VQSslCertificate@@@@@Z @ 925 NONAME ; void QSslSocket::addDefaultCaCertificates(class QList<class QSslCertificate> const &)
	?hasRawHeader@QNetworkReply@@QBE_NABVQByteArray@@@Z @ 926 NONAME ; bool QNetworkReply::hasRawHeader(class QByteArray const &) const
	?qt_metacast@QNetworkDiskCache@@UAEPAXPBD@Z @ 927 NONAME ; void * QNetworkDiskCache::qt_metacast(char const *)
	?qt_metacast@QLocalSocket@@UAEPAXPBD@Z @ 928 NONAME ; void * QLocalSocket::qt_metacast(char const *)
	?setAddress@QHostAddress@@QAEXI@Z @ 929 NONAME ; void QHostAddress::setAddress(unsigned int)
	?index@QNetworkInterface@@QBEHXZ @ 930 NONAME ; int QNetworkInterface::index(void) const
	?finished@QNetworkAccessManager@@IAEXPAVQNetworkReply@@@Z @ 931 NONAME ; void QNetworkAccessManager::finished(class QNetworkReply *)
	?peerVerifyMode@QSslConfiguration@@QBE?AW4PeerVerifyMode@QSslSocket@@XZ @ 932 NONAME ; enum QSslSocket::PeerVerifyMode QSslConfiguration::peerVerifyMode(void) const
	??1QAbstractSocket@@UAE@XZ @ 933 NONAME ; QAbstractSocket::~QAbstractSocket(void)
	?isValid@QNetworkCacheMetaData@@QBE_NXZ @ 934 NONAME ; bool QNetworkCacheMetaData::isValid(void) const
	?keyExchangeMethod@QSslCipher@@QBE?AVQString@@XZ @ 935 NONAME ; class QString QSslCipher::keyExchangeMethod(void) const
	?encrypted@QSslSocket@@IAEXXZ @ 936 NONAME ; void QSslSocket::encrypted(void)
	?bytesAvailable@QHttp@@QBE_JXZ @ 937 NONAME ; long long QHttp::bytesAvailable(void) const
	?maxPendingConnections@QTcpServer@@QBEHXZ @ 938 NONAME ; int QTcpServer::maxPendingConnections(void) const
	?setLocalAddress@QAbstractSocket@@IAEXABVQHostAddress@@@Z @ 939 NONAME ; void QAbstractSocket::setLocalAddress(class QHostAddress const &)
	??1QAbstractNetworkCache@@UAE@XZ @ 940 NONAME ; QAbstractNetworkCache::~QAbstractNetworkCache(void)
	?url@QNetworkProxyQuery@@QBE?AVQUrl@@XZ @ 941 NONAME ; class QUrl QNetworkProxyQuery::url(void) const
	?tr@QNetworkCookieJar@@SA?AVQString@@PBD0H@Z @ 942 NONAME ; class QString QNetworkCookieJar::tr(char const *, char const *, int)
	??_EQNetworkRequest@@QAE@I@Z @ 943 NONAME ; QNetworkRequest::~QNetworkRequest(unsigned int)
	??0QNetworkAddressEntry@@QAE@XZ @ 944 NONAME ; QNetworkAddressEntry::QNetworkAddressEntry(void)
	?error@QAbstractSocket@@IAEXW4SocketError@1@@Z @ 945 NONAME ; void QAbstractSocket::error(enum QAbstractSocket::SocketError)
	?post@QHttp@@QAEHABVQString@@PAVQIODevice@@1@Z @ 946 NONAME ; int QHttp::post(class QString const &, class QIODevice *, class QIODevice *)
	?isDir@QUrlInfo@@QBE_NXZ @ 947 NONAME ; bool QUrlInfo::isDir(void) const
	?trUtf8@QNetworkReply@@SA?AVQString@@PBD0H@Z @ 948 NONAME ; class QString QNetworkReply::trUtf8(char const *, char const *, int)
	?state@QHttp@@QBE?AW4State@1@XZ @ 949 NONAME ; enum QHttp::State QHttp::state(void) const
	?list@QFtp@@QAEHABVQString@@@Z @ 950 NONAME ; int QFtp::list(class QString const &)
	??0QNetworkCookie@@QAE@ABV0@@Z @ 951 NONAME ; QNetworkCookie::QNetworkCookie(class QNetworkCookie const &)
	?group@QUrlInfo@@QBE?AVQString@@XZ @ 952 NONAME ; class QString QUrlInfo::group(void) const
	?readLineData@QAbstractSocket@@MAE_JPAD_J@Z @ 953 NONAME ; long long QAbstractSocket::readLineData(char *, long long)
	?dataTransferProgress@QFtp@@IAEX_J0@Z @ 954 NONAME ; void QFtp::dataTransferProgress(long long, long long)
	??_EQHttpRequestHeader@@UAE@I@Z @ 955 NONAME ; QHttpRequestHeader::~QHttpRequestHeader(unsigned int)
	?broadcast@QNetworkAddressEntry@@QBE?AVQHostAddress@@XZ @ 956 NONAME ; class QHostAddress QNetworkAddressEntry::broadcast(void) const
	??0QHttpRequestHeader@@QAE@ABV0@@Z @ 957 NONAME ; QHttpRequestHeader::QHttpRequestHeader(class QHttpRequestHeader const &)
	?fromDevice@QSslCertificate@@SA?AV?$QList@VQSslCertificate@@@@PAVQIODevice@@W4EncodingFormat@QSsl@@@Z @ 958 NONAME ; class QList<class QSslCertificate> QSslCertificate::fromDevice(class QIODevice *, enum QSsl::EncodingFormat)
	?trUtf8@QLocalSocket@@SA?AVQString@@PBD0@Z @ 959 NONAME ; class QString QLocalSocket::trUtf8(char const *, char const *)
	?ignoreSslErrors@QSslSocket@@QAEXXZ @ 960 NONAME ; void QSslSocket::ignoreSslErrors(void)
	?value@QNetworkCookie@@QBE?AVQByteArray@@XZ @ 961 NONAME ; class QByteArray QNetworkCookie::value(void) const
	?qt_metacast@QAbstractSocket@@UAEPAXPBD@Z @ 962 NONAME ; void * QAbstractSocket::qt_metacast(char const *)
	?sessionCipher@QSslConfiguration@@QBE?AVQSslCipher@@XZ @ 963 NONAME ; class QSslCipher QSslConfiguration::sessionCipher(void) const
	?name@QNetworkCookie@@QBE?AVQByteArray@@XZ @ 964 NONAME ; class QByteArray QNetworkCookie::name(void) const
	??4QSslConfiguration@@QAEAAV0@ABV0@@Z @ 965 NONAME ; class QSslConfiguration & QSslConfiguration::operator=(class QSslConfiguration const &)
	??4QIPv6Address@@QAEAAV0@ABV0@@Z @ 966 NONAME ; class QIPv6Address & QIPv6Address::operator=(class QIPv6Address const &)
	?setCookieJar@QNetworkAccessManager@@QAEXPAVQNetworkCookieJar@@@Z @ 967 NONAME ; void QNetworkAccessManager::setCookieJar(class QNetworkCookieJar *)
	??_EQSslSocket@@UAE@I@Z @ 968 NONAME ; QSslSocket::~QSslSocket(unsigned int)
	?qt_metacall@QNetworkReply@@UAEHW4Call@QMetaObject@@HPAPAX@Z @ 969 NONAME ; int QNetworkReply::qt_metacall(enum QMetaObject::Call, int, void * *)
	?post@QNetworkAccessManager@@QAEPAVQNetworkReply@@ABVQNetworkRequest@@PAVQIODevice@@@Z @ 970 NONAME ; class QNetworkReply * QNetworkAccessManager::post(class QNetworkRequest const &, class QIODevice *)
	?isNull@QSslCipher@@QBE_NXZ @ 971 NONAME ; bool QSslCipher::isNull(void) const
	?abort@QAbstractSocket@@QAEXXZ @ 972 NONAME ; void QAbstractSocket::abort(void)
	?setProxy@QTcpServer@@QAEXABVQNetworkProxy@@@Z @ 973 NONAME ; void QTcpServer::setProxy(class QNetworkProxy const &)
	??0QNetworkReply@@IAE@PAVQObject@@@Z @ 974 NONAME ; QNetworkReply::QNetworkReply(class QObject *)
	?trUtf8@QNetworkReply@@SA?AVQString@@PBD0@Z @ 975 NONAME ; class QString QNetworkReply::trUtf8(char const *, char const *)

