EXPORTS
	?size@QVGPixmapData@@QBE?AVQSize@@XZ @ 1 NONAME ; class QSize QVGPixmapData::size(void) const
	??0QVGEGLWindowSurfaceQImage@@QAE@PAVQWindowSurface@@@Z @ 2 NONAME ; QVGEGLWindowSurfaceQImage::QVGEGLWindowSurfaceQImage(class QWindowSurface *)
	?qt_metacall@QVGPixmapConvolutionFilter@@UAEHW4Call@QMetaObject@@HPAPAX@Z @ 3 NONAME ; int QVGPixmapConvolutionFilter::qt_metacall(enum QMetaObject::Call, int, void * *)
	??_EQVGPixmapColorizeFilter@@UAE@I@Z @ 4 NONAME ; QVGPixmapColorizeFilter::~QVGPixmapColorizeFilter(unsigned int)
	?staticMetaObject@QVGPixmapDropShadowFilter@@2UQMetaObject@@B @ 5 NONAME ; struct QMetaObject const QVGPixmapDropShadowFilter::staticMetaObject
	??1QVGPixmapDropShadowFilter@@UAE@XZ @ 6 NONAME ; QVGPixmapDropShadowFilter::~QVGPixmapDropShadowFilter(void)
	?trUtf8@QVGPixmapDropShadowFilter@@SA?AVQString@@PBD0@Z @ 7 NONAME ; class QString QVGPixmapDropShadowFilter::trUtf8(char const *, char const *)
	?trUtf8@QVGPixmapConvolutionFilter@@SA?AVQString@@PBD0@Z @ 8 NONAME ; class QString QVGPixmapConvolutionFilter::trUtf8(char const *, char const *)
	?drawEllipse@QVGPaintEngine@@UAEXABVQRect@@@Z @ 9 NONAME ; void QVGPaintEngine::drawEllipse(class QRect const &)
	?getStaticMetaObject@QVGPixmapColorizeFilter@@SAABUQMetaObject@@XZ @ 10 NONAME ; struct QMetaObject const & QVGPixmapColorizeFilter::getStaticMetaObject(void)
	?staticMetaObject@QVGPixmapConvolutionFilter@@2UQMetaObject@@B @ 11 NONAME ; struct QMetaObject const QVGPixmapConvolutionFilter::staticMetaObject
	?trUtf8@QVGPixmapBlurFilter@@SA?AVQString@@PBD0@Z @ 12 NONAME ; class QString QVGPixmapBlurFilter::trUtf8(char const *, char const *)
	?setState@QVGPaintEngine@@UAEXPAVQPainterState@@@Z @ 13 NONAME ; void QVGPaintEngine::setState(class QPainterState *)
	?penChanged@QVGPaintEngine@@UAEXXZ @ 14 NONAME ; void QVGPaintEngine::penChanged(void)
	??1QVGPixmapColorizeFilter@@UAE@XZ @ 15 NONAME ; QVGPixmapColorizeFilter::~QVGPixmapColorizeFilter(void)
	?defaultClipRegion@QVGPaintEngine@@AAE?AVQRegion@@XZ @ 16 NONAME ; class QRegion QVGPaintEngine::defaultClipRegion(void)
	??_EQVGPixmapDropShadowFilter@@UAE@I@Z @ 17 NONAME ; QVGPixmapDropShadowFilter::~QVGPixmapDropShadowFilter(unsigned int)
	??0QVGEGLWindowSurfaceVGImage@@QAE@PAVQWindowSurface@@@Z @ 18 NONAME ; QVGEGLWindowSurfaceVGImage::QVGEGLWindowSurfaceVGImage(class QWindowSurface *)
	?paintEngine@QVGPixmapData@@UBEPAVQPaintEngine@@XZ @ 19 NONAME ; class QPaintEngine * QVGPixmapData::paintEngine(void) const
	??1QVGEGLWindowSurfaceQImage@@UAE@XZ @ 20 NONAME ; QVGEGLWindowSurfaceQImage::~QVGEGLWindowSurfaceQImage(void)
	?drawRoundedRect@QVGPaintEngine@@UAEXABVQRectF@@MMW4SizeMode@Qt@@@Z @ 21 NONAME ; void QVGPaintEngine::drawRoundedRect(class QRectF const &, float, float, enum Qt::SizeMode)
	?qt_vg_image_to_vg_format@@YA?AW4VGImageFormat@@W4Format@QImage@@@Z @ 22 NONAME ; enum VGImageFormat qt_vg_image_to_vg_format(enum QImage::Format)
	?surfaceImage@QVGEGLWindowSurfacePrivate@@UBEKXZ @ 23 NONAME ; unsigned long QVGEGLWindowSurfacePrivate::surfaceImage(void) const
	?staticMetaObject@QVGPixmapColorizeFilter@@2UQMetaObject@@B @ 24 NONAME ; struct QMetaObject const QVGPixmapColorizeFilter::staticMetaObject
	?state@QVGPaintEngine@@QBEPBVQVGPainterState@@XZ @ 25 NONAME ; class QVGPainterState const * QVGPaintEngine::state(void) const
	??_EQVGEGLWindowSurfaceDirect@@UAE@I@Z @ 26 NONAME ; QVGEGLWindowSurfaceDirect::~QVGEGLWindowSurfaceDirect(unsigned int)
	?updateScissor@QVGPaintEngine@@AAEXXZ @ 27 NONAME ; void QVGPaintEngine::updateScissor(void)
	?trUtf8@QVGPixmapColorizeFilter@@SA?AVQString@@PBD0@Z @ 28 NONAME ; class QString QVGPixmapColorizeFilter::trUtf8(char const *, char const *)
	??_EQVGCompositionHelper@@UAE@I@Z @ 29 NONAME ; QVGCompositionHelper::~QVGCompositionHelper(unsigned int)
	?metaObject@QVGPixmapColorizeFilter@@UBEPBUQMetaObject@@XZ @ 30 NONAME ; struct QMetaObject const * QVGPixmapColorizeFilter::metaObject(void) const
	?fill@QVGPixmapData@@UAEXABVQColor@@@Z @ 31 NONAME ; void QVGPixmapData::fill(class QColor const &)
	?tr@QVGPixmapDropShadowFilter@@SA?AVQString@@PBD0@Z @ 32 NONAME ; class QString QVGPixmapDropShadowFilter::tr(char const *, char const *)
	?toImage@QVGPixmapData@@UBE?AVQImage@@XZ @ 33 NONAME ; class QImage QVGPixmapData::toImage(void) const
	??0QVGPixmapBlurFilter@@QAE@PAVQObject@@@Z @ 34 NONAME ; QVGPixmapBlurFilter::QVGPixmapBlurFilter(class QObject *)
	?renderHintsChanged@QVGPaintEngine@@UAEXXZ @ 35 NONAME ; void QVGPaintEngine::renderHintsChanged(void)
	?clearRect@QVGPaintEngine@@AAE_NABVQRectF@@ABVQColor@@@Z @ 36 NONAME ; bool QVGPaintEngine::clearRect(class QRectF const &, class QColor const &)
	??0QVGPixmapDropShadowFilter@@QAE@XZ @ 37 NONAME ; QVGPixmapDropShadowFilter::QVGPixmapDropShadowFilter(void)
	?staticMetaObject@QVGPixmapBlurFilter@@2UQMetaObject@@B @ 38 NONAME ; struct QMetaObject const QVGPixmapBlurFilter::staticMetaObject
	??1QVGEGLWindowSurfaceVGImage@@UAE@XZ @ 39 NONAME ; QVGEGLWindowSurfaceVGImage::~QVGEGLWindowSurfaceVGImage(void)
	?state@QVGPaintEngine@@QAEPAVQVGPainterState@@XZ @ 40 NONAME ; class QVGPainterState * QVGPaintEngine::state(void)
	?qt_metacall@QVGPixmapBlurFilter@@UAEHW4Call@QMetaObject@@HPAPAX@Z @ 41 NONAME ; int QVGPixmapBlurFilter::qt_metacall(enum QMetaObject::Call, int, void * *)
	?draw@QVGPixmapBlurFilter@@UBEXPAVQPainter@@ABVQPointF@@ABVQPixmap@@ABVQRectF@@@Z @ 42 NONAME ; void QVGPixmapBlurFilter::draw(class QPainter *, class QPointF const &, class QPixmap const &, class QRectF const &) const
	?tr@QVGPixmapBlurFilter@@SA?AVQString@@PBD0@Z @ 43 NONAME ; class QString QVGPixmapBlurFilter::tr(char const *, char const *)
	?qt_metacast@QVGPixmapDropShadowFilter@@UAEPAXPBD@Z @ 44 NONAME ; void * QVGPixmapDropShadowFilter::qt_metacast(char const *)
	??0QVGPaintEngine@@IAE@AAVQVGPaintEnginePrivate@@@Z @ 45 NONAME ; QVGPaintEngine::QVGPaintEngine(class QVGPaintEnginePrivate &)
	?tr@QVGPixmapConvolutionFilter@@SA?AVQString@@PBD0H@Z @ 46 NONAME ; class QString QVGPixmapConvolutionFilter::tr(char const *, char const *, int)
	?ensureContext@QVGEGLWindowSurfaceVGImage@@UAEPAVQEglContext@@PAVQWidget@@@Z @ 47 NONAME ; class QEglContext * QVGEGLWindowSurfaceVGImage::ensureContext(class QWidget *)
	??0QVGCompositionHelper@@QAE@XZ @ 48 NONAME ; QVGCompositionHelper::QVGCompositionHelper(void)
	?beginNativePainting@QVGPaintEngine@@UAEXXZ @ 49 NONAME ; void QVGPaintEngine::beginNativePainting(void)
	?clipEnabledChanged@QVGPaintEngine@@UAEXXZ @ 50 NONAME ; void QVGPaintEngine::clipEnabledChanged(void)
	?create@QVGEGLWindowSurfacePrivate@@SAPAV1@W4SurfaceType@1@PAVQWindowSurface@@@Z @ 51 NONAME ; class QVGEGLWindowSurfacePrivate * QVGEGLWindowSurfacePrivate::create(enum QVGEGLWindowSurfacePrivate::SurfaceType, class QWindowSurface *)
	?metric@QVGPixmapData@@MBEHW4PaintDeviceMetric@QPaintDevice@@@Z @ 52 NONAME ; int QVGPixmapData::metric(enum QPaintDevice::PaintDeviceMetric) const
	?drawRects@QVGPaintEngine@@UAEXPBVQRect@@H@Z @ 53 NONAME ; void QVGPaintEngine::drawRects(class QRect const *, int)
	?draw@QVGPaintEngine@@UAEXABVQVectorPath@@@Z @ 54 NONAME ; void QVGPaintEngine::draw(class QVectorPath const &)
	??0QVGPixmapData@@QAE@W4PixelType@QPixmapData@@@Z @ 55 NONAME ; QVGPixmapData::QVGPixmapData(enum QPixmapData::PixelType)
	??0QVGWindowSurface@@QAE@PAVQWidget@@PAVQVGEGLWindowSurfacePrivate@@@Z @ 56 NONAME ; QVGWindowSurface::QVGWindowSurface(class QWidget *, class QVGEGLWindowSurfacePrivate *)
	?fillBackground@QVGCompositionHelper@@QAEXABVQRegion@@ABVQBrush@@@Z @ 57 NONAME ; void QVGCompositionHelper::fillBackground(class QRegion const &, class QBrush const &)
	?drawLines@QVGPaintEngine@@UAEXPBVQLine@@H@Z @ 58 NONAME ; void QVGPaintEngine::drawLines(class QLine const *, int)
	??_EQVGEGLWindowSurfaceQImage@@UAE@I@Z @ 59 NONAME ; QVGEGLWindowSurfaceQImage::~QVGEGLWindowSurfaceQImage(unsigned int)
	?ensureContext@QVGEGLWindowSurfaceDirect@@UAEPAVQEglContext@@PAVQWidget@@@Z @ 60 NONAME ; class QEglContext * QVGEGLWindowSurfaceDirect::ensureContext(class QWidget *)
	??0QVGPaintEngine@@QAE@XZ @ 61 NONAME ; QVGPaintEngine::QVGPaintEngine(void)
	?cleanup@QVGPixmapData@@IAEXXZ @ 62 NONAME ; void QVGPixmapData::cleanup(void)
	?drawPixmap@QVGPaintEngine@@UAEXABVQPointF@@ABVQPixmap@@@Z @ 63 NONAME ; void QVGPaintEngine::drawPixmap(class QPointF const &, class QPixmap const &)
	?drawImage@QVGPaintEngine@@UAEXABVQRectF@@ABVQImage@@0V?$QFlags@W4ImageConversionFlag@Qt@@@@@Z @ 64 NONAME ; void QVGPaintEngine::drawImage(class QRectF const &, class QImage const &, class QRectF const &, class QFlags<enum Qt::ImageConversionFlag>)
	??_EQVGPixmapConvolutionFilter@@UAE@I@Z @ 65 NONAME ; QVGPixmapConvolutionFilter::~QVGPixmapConvolutionFilter(unsigned int)
	?toVGImage@QVGPixmapData@@QAEKXZ @ 66 NONAME ; unsigned long QVGPixmapData::toVGImage(void)
	?drawTiledPixmap@QVGPaintEngine@@UAEXABVQRectF@@ABVQPixmap@@ABVQPointF@@@Z @ 67 NONAME ; void QVGPaintEngine::drawTiledPixmap(class QRectF const &, class QPixmap const &, class QPointF const &)
	?drawEllipse@QVGPaintEngine@@UAEXABVQRectF@@@Z @ 68 NONAME ; void QVGPaintEngine::drawEllipse(class QRectF const &)
	?endCompositing@QVGCompositionHelper@@QAEXXZ @ 69 NONAME ; void QVGCompositionHelper::endCompositing(void)
	?getStaticMetaObject@QVGPixmapBlurFilter@@SAABUQMetaObject@@XZ @ 70 NONAME ; struct QMetaObject const & QVGPixmapBlurFilter::getStaticMetaObject(void)
	??0QVGPixmapColorizeFilter@@QAE@XZ @ 71 NONAME ; QVGPixmapColorizeFilter::QVGPixmapColorizeFilter(void)
	??_EQVGEGLWindowSurfaceVGImage@@UAE@I@Z @ 72 NONAME ; QVGEGLWindowSurfaceVGImage::~QVGEGLWindowSurfaceVGImage(unsigned int)
	?begin@QVGPaintEngine@@UAE_NPAVQPaintDevice@@@Z @ 73 NONAME ; bool QVGPaintEngine::begin(class QPaintDevice *)
	?fillRect@QVGPaintEngine@@UAEXABVQRectF@@ABVQBrush@@@Z @ 74 NONAME ; void QVGPaintEngine::fillRect(class QRectF const &, class QBrush const &)
	?paintEngine@QVGWindowSurface@@UBEPAVQPaintEngine@@XZ @ 75 NONAME ; class QPaintEngine * QVGWindowSurface::paintEngine(void) const
	?metaObject@QVGPixmapBlurFilter@@UBEPBUQMetaObject@@XZ @ 76 NONAME ; struct QMetaObject const * QVGPixmapBlurFilter::metaObject(void) const
	?drawCursorImage@QVGCompositionHelper@@QAEXABVQImage@@ABVQPoint@@@Z @ 77 NONAME ; void QVGCompositionHelper::drawCursorImage(class QImage const &, class QPoint const &)
	?toVGImage@QVGPixmapData@@QAEKM@Z @ 78 NONAME ; unsigned long QVGPixmapData::toVGImage(float)
	??0QVGPainterState@@QAE@XZ @ 79 NONAME ; QVGPainterState::QVGPainterState(void)
	?d_func@QVGPaintEngine@@ABEPBVQVGPaintEnginePrivate@@XZ @ 80 NONAME ; class QVGPaintEnginePrivate const * QVGPaintEngine::d_func(void) const
	??_EQVGPixmapBlurFilter@@UAE@I@Z @ 81 NONAME ; QVGPixmapBlurFilter::~QVGPixmapBlurFilter(unsigned int)
	?qt_vg_create_context@@YAPAVQEglContext@@PAVQPaintDevice@@@Z @ 82 NONAME ; class QEglContext * qt_vg_create_context(class QPaintDevice *)
	??0QVGPixmapConvolutionFilter@@QAE@XZ @ 83 NONAME ; QVGPixmapConvolutionFilter::QVGPixmapConvolutionFilter(void)
	?clip@QVGPaintEngine@@UAEXABVQRegion@@W4ClipOperation@Qt@@@Z @ 84 NONAME ; void QVGPaintEngine::clip(class QRegion const &, enum Qt::ClipOperation)
	?tr@QVGPixmapColorizeFilter@@SA?AVQString@@PBD0@Z @ 85 NONAME ; class QString QVGPixmapColorizeFilter::tr(char const *, char const *)
	?endNativePainting@QVGPaintEngine@@UAEXXZ @ 86 NONAME ; void QVGPaintEngine::endNativePainting(void)
	?brushChanged@QVGPaintEngine@@UAEXXZ @ 87 NONAME ; void QVGPaintEngine::brushChanged(void)
	?setGeometry@QVGWindowSurface@@UAEXABVQRect@@@Z @ 88 NONAME ; void QVGWindowSurface::setGeometry(class QRect const &)
	?createCompatiblePixmapData@QVGPixmapData@@UBEPAVQPixmapData@@XZ @ 89 NONAME ; class QPixmapData * QVGPixmapData::createCompatiblePixmapData(void) const
	?qt_metacast@QVGPixmapConvolutionFilter@@UAEPAXPBD@Z @ 90 NONAME ; void * QVGPixmapConvolutionFilter::qt_metacast(char const *)
	?endPaint@QVGWindowSurface@@UAEXABVQRegion@@@Z @ 91 NONAME ; void QVGWindowSurface::endPaint(class QRegion const &)
	?resize@QVGPixmapData@@UAEXHH@Z @ 92 NONAME ; void QVGPixmapData::resize(int, int)
	?mainSurface@QVGEGLWindowSurfaceVGImage@@IBEHXZ @ 93 NONAME ; int QVGEGLWindowSurfaceVGImage::mainSurface(void) const
	??0QVGEGLWindowSurfaceDirect@@QAE@PAVQWindowSurface@@@Z @ 94 NONAME ; QVGEGLWindowSurfaceDirect::QVGEGLWindowSurfaceDirect(class QWindowSurface *)
	?clip@QVGPaintEngine@@UAEXABVQRect@@W4ClipOperation@Qt@@@Z @ 95 NONAME ; void QVGPaintEngine::clip(class QRect const &, enum Qt::ClipOperation)
	?metaObject@QVGPixmapConvolutionFilter@@UBEPBUQMetaObject@@XZ @ 96 NONAME ; struct QMetaObject const * QVGPixmapConvolutionFilter::metaObject(void) const
	?surfaceSize@QVGEGLWindowSurfaceDirect@@UBE?AVQSize@@XZ @ 97 NONAME ; class QSize QVGEGLWindowSurfaceDirect::surfaceSize(void) const
	?stroke@QVGPaintEngine@@UAEXABVQVectorPath@@ABVQPen@@@Z @ 98 NONAME ; void QVGPaintEngine::stroke(class QVectorPath const &, class QPen const &)
	?sourceFormat@QVGPixmapData@@ABE?AW4Format@QImage@@XZ @ 99 NONAME ; enum QImage::Format QVGPixmapData::sourceFormat(void) const
	?drawPoints@QVGPaintEngine@@UAEXPBVQPointF@@H@Z @ 100 NONAME ; void QVGPaintEngine::drawPoints(class QPointF const *, int)
	?paintEngine@QVGEGLWindowSurfacePrivate@@QAEPAVQVGPaintEngine@@XZ @ 101 NONAME ; class QVGPaintEngine * QVGEGLWindowSurfacePrivate::paintEngine(void)
	??0QVGPainterState@@QAE@AAV0@@Z @ 102 NONAME ; QVGPainterState::QVGPainterState(class QVGPainterState &)
	?startCompositing@QVGCompositionHelper@@QAEXABVQSize@@@Z @ 103 NONAME ; void QVGCompositionHelper::startCompositing(class QSize const &)
	?getStaticMetaObject@QVGPixmapConvolutionFilter@@SAABUQMetaObject@@XZ @ 104 NONAME ; struct QMetaObject const & QVGPixmapConvolutionFilter::getStaticMetaObject(void)
	??1QVGEGLWindowSurfacePrivate@@UAE@XZ @ 105 NONAME ; QVGEGLWindowSurfacePrivate::~QVGEGLWindowSurfacePrivate(void)
	?qt_vg_destroy_paint_engine@@YAXPAVQVGPaintEngine@@@Z @ 106 NONAME ; void qt_vg_destroy_paint_engine(class QVGPaintEngine *)
	?compositionModeChanged@QVGPaintEngine@@UAEXXZ @ 107 NONAME ; void QVGPaintEngine::compositionModeChanged(void)
	??1QVGPixmapConvolutionFilter@@UAE@XZ @ 108 NONAME ; QVGPixmapConvolutionFilter::~QVGPixmapConvolutionFilter(void)
	?type@QVGPaintEngine@@UBE?AW4Type@QPaintEngine@@XZ @ 109 NONAME ; enum QPaintEngine::Type QVGPaintEngine::type(void) const
	?qt_metacall@QVGPixmapColorizeFilter@@UAEHW4Call@QMetaObject@@HPAPAX@Z @ 110 NONAME ; int QVGPixmapColorizeFilter::qt_metacall(enum QMetaObject::Call, int, void * *)
	?fillRect@QVGPaintEngine@@UAEXABVQRectF@@ABVQColor@@@Z @ 111 NONAME ; void QVGPaintEngine::fillRect(class QRectF const &, class QColor const &)
	?getStaticMetaObject@QVGPixmapDropShadowFilter@@SAABUQMetaObject@@XZ @ 112 NONAME ; struct QMetaObject const & QVGPixmapDropShadowFilter::getStaticMetaObject(void)
	??0QVGEGLWindowSurfacePrivate@@QAE@PAVQWindowSurface@@@Z @ 113 NONAME ; QVGEGLWindowSurfacePrivate::QVGEGLWindowSurfacePrivate(class QWindowSurface *)
	?drawImage@QVGPaintEngine@@UAEXABVQPointF@@ABVQImage@@@Z @ 114 NONAME ; void QVGPaintEngine::drawImage(class QPointF const &, class QImage const &)
	?blitWindow@QVGCompositionHelper@@QAEXPAVQVGEGLWindowSurfacePrivate@@ABVQRect@@ABVQPoint@@H@Z @ 115 NONAME ; void QVGCompositionHelper::blitWindow(class QVGEGLWindowSurfacePrivate *, class QRect const &, class QPoint const &, int)
	?flush@QVGWindowSurface@@UAEXPAVQWidget@@ABVQRegion@@ABVQPoint@@@Z @ 116 NONAME ; void QVGWindowSurface::flush(class QWidget *, class QRegion const &, class QPoint const &)
	?tr@QVGPixmapColorizeFilter@@SA?AVQString@@PBD0H@Z @ 117 NONAME ; class QString QVGPixmapColorizeFilter::tr(char const *, char const *, int)
	?isValid@QVGPixmapData@@QBE_NXZ @ 118 NONAME ; bool QVGPixmapData::isValid(void) const
	?qt_metacast@QVGPixmapColorizeFilter@@UAEPAXPBD@Z @ 119 NONAME ; void * QVGPixmapColorizeFilter::qt_metacast(char const *)
	?beginPaint@QVGEGLWindowSurfaceVGImage@@UAEXPAVQWidget@@@Z @ 120 NONAME ; void QVGEGLWindowSurfaceVGImage::beginPaint(class QWidget *)
	?createState@QVGPaintEngine@@UBEPAVQPainterState@@PAV2@@Z @ 121 NONAME ; class QPainterState * QVGPaintEngine::createState(class QPainterState *) const
	?qt_metacall@QVGPixmapDropShadowFilter@@UAEHW4Call@QMetaObject@@HPAPAX@Z @ 122 NONAME ; int QVGPixmapDropShadowFilter::qt_metacall(enum QMetaObject::Call, int, void * *)
	?qt_vg_destroy_context@@YAXPAVQEglContext@@@Z @ 123 NONAME ; void qt_vg_destroy_context(class QEglContext *)
	?buffer@QVGPixmapData@@UAEPAVQImage@@XZ @ 124 NONAME ; class QImage * QVGPixmapData::buffer(void)
	?clip@QVGPaintEngine@@UAEXABVQVectorPath@@W4ClipOperation@Qt@@@Z @ 125 NONAME ; void QVGPaintEngine::clip(class QVectorPath const &, enum Qt::ClipOperation)
	?drawPolygon@QVGPaintEngine@@UAEXPBVQPoint@@HW4PolygonDrawMode@QPaintEngine@@@Z @ 126 NONAME ; void QVGPaintEngine::drawPolygon(class QPoint const *, int, enum QPaintEngine::PolygonDrawMode)
	?fromImage@QVGPixmapData@@UAEXABVQImage@@V?$QFlags@W4ImageConversionFlag@Qt@@@@@Z @ 127 NONAME ; void QVGPixmapData::fromImage(class QImage const &, class QFlags<enum Qt::ImageConversionFlag>)
	??1QVGPainterState@@UAE@XZ @ 128 NONAME ; QVGPainterState::~QVGPainterState(void)
	??1QVGPaintEngine@@UAE@XZ @ 129 NONAME ; QVGPaintEngine::~QVGPaintEngine(void)
	?hasAlphaChannel@QVGPixmapData@@UBE_NXZ @ 130 NONAME ; bool QVGPixmapData::hasAlphaChannel(void) const
	?tr@QVGPixmapDropShadowFilter@@SA?AVQString@@PBD0H@Z @ 131 NONAME ; class QString QVGPixmapDropShadowFilter::tr(char const *, char const *, int)
	?qt_metacast@QVGPixmapBlurFilter@@UAEPAXPBD@Z @ 132 NONAME ; void * QVGPixmapBlurFilter::qt_metacast(char const *)
	?endPaint@QVGEGLWindowSurfaceVGImage@@UAEXPAVQWidget@@ABVQRegion@@PAVQImage@@@Z @ 133 NONAME ; void QVGEGLWindowSurfaceVGImage::endPaint(class QWidget *, class QRegion const &, class QImage *)
	?qt_vg_config_to_vg_format@@YA?AW4VGImageFormat@@PAVQEglContext@@@Z @ 134 NONAME ; enum VGImageFormat qt_vg_config_to_vg_format(class QEglContext *)
	?qt_vg_config_to_image_format@@YA?AW4Format@QImage@@PAVQEglContext@@@Z @ 135 NONAME ; enum QImage::Format qt_vg_config_to_image_format(class QEglContext *)
	?beginPaint@QVGEGLWindowSurfaceDirect@@UAEXPAVQWidget@@@Z @ 136 NONAME ; void QVGEGLWindowSurfaceDirect::beginPaint(class QWidget *)
	?setScissor@QVGCompositionHelper@@QAEXABVQRegion@@@Z @ 137 NONAME ; void QVGCompositionHelper::setScissor(class QRegion const &)
	?draw@QVGPixmapDropShadowFilter@@UBEXPAVQPainter@@ABVQPointF@@ABVQPixmap@@ABVQRectF@@@Z @ 138 NONAME ; void QVGPixmapDropShadowFilter::draw(class QPainter *, class QPointF const &, class QPixmap const &, class QRectF const &) const
	?metaObject@QVGPixmapDropShadowFilter@@UBEPBUQMetaObject@@XZ @ 139 NONAME ; struct QMetaObject const * QVGPixmapDropShadowFilter::metaObject(void) const
	?drawPath@QVGPaintEngine@@UAEXABVQPainterPath@@@Z @ 140 NONAME ; void QVGPaintEngine::drawPath(class QPainterPath const &)
	?trUtf8@QVGPixmapBlurFilter@@SA?AVQString@@PBD0H@Z @ 141 NONAME ; class QString QVGPixmapBlurFilter::trUtf8(char const *, char const *, int)
	?tr@QVGPixmapBlurFilter@@SA?AVQString@@PBD0H@Z @ 142 NONAME ; class QString QVGPixmapBlurFilter::tr(char const *, char const *, int)
	?drawLines@QVGPaintEngine@@UAEXPBVQLineF@@H@Z @ 143 NONAME ; void QVGPaintEngine::drawLines(class QLineF const *, int)
	?toNativeType@QVGPixmapData@@UAEPAXW4NativeType@QPixmapData@@@Z @ 144 NONAME ; void * QVGPixmapData::toNativeType(enum QPixmapData::NativeType)
	??1QVGWindowSurface@@UAE@XZ @ 145 NONAME ; QVGWindowSurface::~QVGWindowSurface(void)
	?metric@QVGWindowSurface@@MBEHW4PaintDeviceMetric@QPaintDevice@@@Z @ 146 NONAME ; int QVGWindowSurface::metric(enum QPaintDevice::PaintDeviceMetric) const
	??1QVGPixmapData@@UAE@XZ @ 147 NONAME ; QVGPixmapData::~QVGPixmapData(void)
	??1QVGEGLWindowSurfaceDirect@@UAE@XZ @ 148 NONAME ; QVGEGLWindowSurfaceDirect::~QVGEGLWindowSurfaceDirect(void)
	?draw@QVGPixmapConvolutionFilter@@UBEXPAVQPainter@@ABVQPointF@@ABVQPixmap@@ABVQRectF@@@Z @ 149 NONAME ; void QVGPixmapConvolutionFilter::draw(class QPainter *, class QPointF const &, class QPixmap const &, class QRectF const &) const
	??_EQVGPixmapData@@UAE@I@Z @ 150 NONAME ; QVGPixmapData::~QVGPixmapData(unsigned int)
	?restoreState@QVGPaintEngine@@AAEXV?$QFlags@W4DirtyFlag@QPaintEngine@@@@@Z @ 151 NONAME ; void QVGPaintEngine::restoreState(class QFlags<enum QPaintEngine::DirtyFlag>)
	??1QVGCompositionHelper@@UAE@XZ @ 152 NONAME ; QVGCompositionHelper::~QVGCompositionHelper(void)
	??1QVGPixmapBlurFilter@@UAE@XZ @ 153 NONAME ; QVGPixmapBlurFilter::~QVGPixmapBlurFilter(void)
	??0QVGWindowSurface@@QAE@PAVQWidget@@@Z @ 154 NONAME ; QVGWindowSurface::QVGWindowSurface(class QWidget *)
	?isDefaultClipRegion@QVGPaintEngine@@AAE_NABVQRegion@@@Z @ 155 NONAME ; bool QVGPaintEngine::isDefaultClipRegion(class QRegion const &)
	?transformChanged@QVGPaintEngine@@UAEXXZ @ 156 NONAME ; void QVGPaintEngine::transformChanged(void)
	?setAlphaChannel@QVGPixmapData@@UAEXABVQPixmap@@@Z @ 157 NONAME ; void QVGPixmapData::setAlphaChannel(class QPixmap const &)
	?fromNativeType@QVGPixmapData@@UAEXPAXW4NativeType@QPixmapData@@@Z @ 158 NONAME ; void QVGPixmapData::fromNativeType(void *, enum QPixmapData::NativeType)
	?qPixmapToVGImage@@YAKABVQPixmap@@@Z @ 159 NONAME ; unsigned long qPixmapToVGImage(class QPixmap const &)
	??_EQVGWindowSurface@@UAE@I@Z @ 160 NONAME ; QVGWindowSurface::~QVGWindowSurface(unsigned int)
	?tr@QVGPixmapConvolutionFilter@@SA?AVQString@@PBD0@Z @ 161 NONAME ; class QString QVGPixmapConvolutionFilter::tr(char const *, char const *)
	?opacityChanged@QVGPaintEngine@@UAEXXZ @ 162 NONAME ; void QVGPaintEngine::opacityChanged(void)
	?surfaceSize@QVGEGLWindowSurfaceVGImage@@UBE?AVQSize@@XZ @ 163 NONAME ; class QSize QVGEGLWindowSurfaceVGImage::surfaceSize(void) const
	?qt_vg_create_paint_engine@@YAPAVQVGPaintEngine@@XZ @ 164 NONAME ; class QVGPaintEngine * qt_vg_create_paint_engine(void)
	?paintDevice@QVGWindowSurface@@UAEPAVQPaintDevice@@XZ @ 165 NONAME ; class QPaintDevice * QVGWindowSurface::paintDevice(void)
	?drawPixmap@QVGPaintEngine@@UAEXABVQRectF@@ABVQPixmap@@0@Z @ 166 NONAME ; void QVGPaintEngine::drawPixmap(class QRectF const &, class QPixmap const &, class QRectF const &)
	?forceToImage@QVGPixmapData@@AAEXXZ @ 167 NONAME ; void QVGPixmapData::forceToImage(void)
	?beginPaint@QVGWindowSurface@@UAEXABVQRegion@@@Z @ 168 NONAME ; void QVGWindowSurface::beginPaint(class QRegion const &)
	??_EQVGEGLWindowSurfacePrivate@@UAE@I@Z @ 169 NONAME ; QVGEGLWindowSurfacePrivate::~QVGEGLWindowSurfacePrivate(unsigned int)
	?endPaint@QVGEGLWindowSurfaceDirect@@UAEXPAVQWidget@@ABVQRegion@@PAVQImage@@@Z @ 170 NONAME ; void QVGEGLWindowSurfaceDirect::endPaint(class QWidget *, class QRegion const &, class QImage *)
	?trUtf8@QVGPixmapConvolutionFilter@@SA?AVQString@@PBD0H@Z @ 171 NONAME ; class QString QVGPixmapConvolutionFilter::trUtf8(char const *, char const *, int)
	?scroll@QVGWindowSurface@@UAE_NABVQRegion@@HH@Z @ 172 NONAME ; bool QVGWindowSurface::scroll(class QRegion const &, int, int)
	?surfaceImage@QVGEGLWindowSurfaceVGImage@@UBEKXZ @ 173 NONAME ; unsigned long QVGEGLWindowSurfaceVGImage::surfaceImage(void) const
	?isDefaultClipRect@QVGPaintEngine@@AAE_NABVQRect@@@Z @ 174 NONAME ; bool QVGPaintEngine::isDefaultClipRect(class QRect const &)
	?windowSurfaceSize@QVGEGLWindowSurfacePrivate@@IBE?AVQSize@@PAVQWidget@@@Z @ 175 NONAME ; class QSize QVGEGLWindowSurfacePrivate::windowSurfaceSize(class QWidget *) const
	?pixmapFilter@QVGPaintEngine@@UAEPAVQPixmapFilter@@HPBV2@@Z @ 176 NONAME ; class QPixmapFilter * QVGPaintEngine::pixmapFilter(int, class QPixmapFilter const *)
	?destroyPaintEngine@QVGEGLWindowSurfacePrivate@@IAEXXZ @ 177 NONAME ; void QVGEGLWindowSurfacePrivate::destroyPaintEngine(void)
	?qt_vg_shared_surface@@YAHXZ @ 178 NONAME ; int qt_vg_shared_surface(void)
	?drawCursorPixmap@QVGCompositionHelper@@QAEXABVQPixmap@@ABVQPoint@@@Z @ 179 NONAME ; void QVGCompositionHelper::drawCursorPixmap(class QPixmap const &, class QPoint const &)
	?drawPixmaps@QVGPaintEngine@@UAEXPBUData@QDrawPixmaps@@HABVQPixmap@@V?$QFlags@W4DrawingHint@QDrawPixmaps@@@@@Z @ 180 NONAME ; void QVGPaintEngine::drawPixmaps(struct QDrawPixmaps::Data const *, int, class QPixmap const &, class QFlags<enum QDrawPixmaps::DrawingHint>)
	?endPaint@QVGEGLWindowSurfaceQImage@@UAEXPAVQWidget@@ABVQRegion@@PAVQImage@@@Z @ 181 NONAME ; void QVGEGLWindowSurfaceQImage::endPaint(class QWidget *, class QRegion const &, class QImage *)
	?drawPolygon@QVGPaintEngine@@UAEXPBVQPointF@@HW4PolygonDrawMode@QPaintEngine@@@Z @ 182 NONAME ; void QVGPaintEngine::drawPolygon(class QPointF const *, int, enum QPaintEngine::PolygonDrawMode)
	?trUtf8@QVGPixmapDropShadowFilter@@SA?AVQString@@PBD0H@Z @ 183 NONAME ; class QString QVGPixmapDropShadowFilter::trUtf8(char const *, char const *, int)
	?end@QVGPaintEngine@@UAE_NXZ @ 184 NONAME ; bool QVGPaintEngine::end(void)
	?trUtf8@QVGPixmapColorizeFilter@@SA?AVQString@@PBD0H@Z @ 185 NONAME ; class QString QVGPixmapColorizeFilter::trUtf8(char const *, char const *, int)
	??_EQVGPainterState@@UAE@I@Z @ 186 NONAME ; QVGPainterState::~QVGPainterState(unsigned int)
	?d_func@QVGPaintEngine@@AAEPAVQVGPaintEnginePrivate@@XZ @ 187 NONAME ; class QVGPaintEnginePrivate * QVGPaintEngine::d_func(void)
	?drawRects@QVGPaintEngine@@UAEXPBVQRectF@@H@Z @ 188 NONAME ; void QVGPaintEngine::drawRects(class QRectF const *, int)
	?brushOriginChanged@QVGPaintEngine@@UAEXXZ @ 189 NONAME ; void QVGPaintEngine::brushOriginChanged(void)
	?draw@QVGPixmapColorizeFilter@@UBEXPAVQPainter@@ABVQPointF@@ABVQPixmap@@ABVQRectF@@@Z @ 190 NONAME ; void QVGPixmapColorizeFilter::draw(class QPainter *, class QPointF const &, class QPixmap const &, class QRectF const &) const
	?drawTextItem@QVGPaintEngine@@UAEXABVQPointF@@ABVQTextItem@@@Z @ 191 NONAME ; void QVGPaintEngine::drawTextItem(class QPointF const &, class QTextItem const &)
	?clearScissor@QVGCompositionHelper@@QAEXXZ @ 192 NONAME ; void QVGCompositionHelper::clearScissor(void)
	?fill@QVGPaintEngine@@UAEXABVQVectorPath@@ABVQBrush@@@Z @ 193 NONAME ; void QVGPaintEngine::fill(class QVectorPath const &, class QBrush const &)
	?drawPoints@QVGPaintEngine@@UAEXPBVQPoint@@H@Z @ 194 NONAME ; void QVGPaintEngine::drawPoints(class QPoint const *, int)
	??_EQVGPaintEngine@@UAE@I@Z @ 195 NONAME ; QVGPaintEngine::~QVGPaintEngine(unsigned int)
	?clip@QVGPaintEngine@@UAEXABVQPainterPath@@W4ClipOperation@Qt@@@Z @ 196 NONAME ; void QVGPaintEngine::clip(class QPainterPath const &, enum Qt::ClipOperation)
	?vgPrivate@QVGPaintEngine@@QAEPAVQVGPaintEnginePrivate@@XZ @ 197 NONAME ; class QVGPaintEnginePrivate * QVGPaintEngine::vgPrivate(void)

