EXPORTS
	?argument@QScriptContext@@QBE?AVQScriptValue@@H@Z @ 1 NONAME ; class QScriptValue QScriptContext::argument(int) const
	?abortEvaluation@QScriptEngine@@QAEXABVQScriptValue@@@Z @ 2 NONAME ; void QScriptEngine::abortEvaluation(class QScriptValue const &)
	?isNumber@QScriptValue@@QBE_NXZ @ 3 NONAME ; bool QScriptValue::isNumber(void) const
	?propertyFlags@QScriptValue@@QBE?AV?$QFlags@W4PropertyFlag@QScriptValue@@@@ABVQString@@ABV?$QFlags@W4ResolveFlag@QScriptValue@@@@@Z @ 4 NONAME ; class QFlags<enum QScriptValue::PropertyFlag> QScriptValue::propertyFlags(class QString const &, class QFlags<enum QScriptValue::ResolveFlag> const &) const
	??0QScriptValue@@QAE@PBD@Z @ 5 NONAME ; QScriptValue::QScriptValue(char const *)
	?toQObject@QScriptValue@@QBEPAVQObject@@XZ @ 6 NONAME ; class QObject * QScriptValue::toQObject(void) const
	?functionName@QScriptContextInfo@@QBE?AVQString@@XZ @ 7 NONAME ; class QString QScriptContextInfo::functionName(void) const
	??1QScriptable@@QAE@XZ @ 8 NONAME ; QScriptable::~QScriptable(void)
	?setProperty@QScriptValue@@QAEXABVQScriptString@@ABV1@ABV?$QFlags@W4PropertyFlag@QScriptValue@@@@@Z @ 9 NONAME ; void QScriptValue::setProperty(class QScriptString const &, class QScriptValue const &, class QFlags<enum QScriptValue::PropertyFlag> const &)
	?functionExit@QScriptEngineAgent@@UAEX_JABVQScriptValue@@@Z @ 10 NONAME ; void QScriptEngineAgent::functionExit(long long, class QScriptValue const &)
	?qScriptConnect@@YA_NPAVQObject@@PBDABVQScriptValue@@2@Z @ 11 NONAME ; bool qScriptConnect(class QObject *, char const *, class QScriptValue const &, class QScriptValue const &)
	?sourceParsed@QScriptEngineAgentPrivate@@UAEXPAVExecState@QTJSC@@ABVSourceCode@3@HABVUString@3@@Z @ 12 NONAME ; void QScriptEngineAgentPrivate::sourceParsed(class QTJSC::ExecState *, class QTJSC::SourceCode const &, int, class QTJSC::UString const &)
	?getStaticMetaObject@QScriptEngine@@SAABUQMetaObject@@XZ @ 13 NONAME ; struct QMetaObject const & QScriptEngine::getStaticMetaObject(void)
	??0QScriptString@@QAE@XZ @ 14 NONAME ; QScriptString::QScriptString(void)
	?d_func@QScriptEngineAgent@@AAEPAVQScriptEngineAgentPrivate@@XZ @ 15 NONAME ; class QScriptEngineAgentPrivate * QScriptEngineAgent::d_func(void)
	??0QScriptValue@@QAE@ABV0@@Z @ 16 NONAME ; QScriptValue::QScriptValue(class QScriptValue const &)
	?engine@QScriptable@@QBEPAVQScriptEngine@@XZ @ 17 NONAME ; class QScriptEngine * QScriptable::engine(void) const
	?toObject@QScriptValue@@QBE?AV1@XZ @ 18 NONAME ; class QScriptValue QScriptValue::toObject(void) const
	?q_func@QScriptEngineAgentPrivate@@ABEPBVQScriptEngineAgent@@XZ @ 19 NONAME ; class QScriptEngineAgent const * QScriptEngineAgentPrivate::q_func(void) const
	?isString@QScriptValue@@QBE_NXZ @ 20 NONAME ; bool QScriptValue::isString(void) const
	?value@QScriptValueIterator@@QBE?AVQScriptValue@@XZ @ 21 NONAME ; class QScriptValue QScriptValueIterator::value(void) const
	?propertyFlags@QScriptClass@@UAE?AV?$QFlags@W4PropertyFlag@QScriptValue@@@@ABVQScriptValue@@ABVQScriptString@@I@Z @ 22 NONAME ; class QFlags<enum QScriptValue::PropertyFlag> QScriptClass::propertyFlags(class QScriptValue const &, class QScriptString const &, unsigned int)
	?setData@QScriptValue@@QAEXABV1@@Z @ 23 NONAME ; void QScriptValue::setData(class QScriptValue const &)
	??0QScriptValue@@QAE@ABVQLatin1String@@@Z @ 24 NONAME ; QScriptValue::QScriptValue(class QLatin1String const &)
	?toQMetaObject@QScriptValue@@QBEPBUQMetaObject@@XZ @ 25 NONAME ; struct QMetaObject const * QScriptValue::toQMetaObject(void) const
	?newArray@QScriptEngine@@QAE?AVQScriptValue@@I@Z @ 26 NONAME ; class QScriptValue QScriptEngine::newArray(unsigned int)
	?scriptName@QScriptValueIterator@@QBE?AVQScriptString@@XZ @ 27 NONAME ; class QScriptString QScriptValueIterator::scriptName(void) const
	??1QScriptEngineAgentPrivate@@UAE@XZ @ 28 NONAME ; QScriptEngineAgentPrivate::~QScriptEngineAgentPrivate(void)
	?flags@QScriptClassPropertyIterator@@UBE?AV?$QFlags@W4PropertyFlag@QScriptValue@@@@XZ @ 29 NONAME ; class QFlags<enum QScriptValue::PropertyFlag> QScriptClassPropertyIterator::flags(void) const
	?extension@QScriptClass@@UAE?AVQVariant@@W4Extension@1@ABV2@@Z @ 30 NONAME ; class QVariant QScriptClass::extension(enum QScriptClass::Extension, class QVariant const &)
	?next@QScriptValueIterator@@QAEXXZ @ 31 NONAME ; void QScriptValueIterator::next(void)
	??0QScriptValue@@QAE@PAVQScriptEngine@@PBD@Z @ 32 NONAME ; QScriptValue::QScriptValue(class QScriptEngine *, char const *)
	?d_func@QScriptEngine@@AAEPAVQScriptEnginePrivate@@XZ @ 33 NONAME ; class QScriptEnginePrivate * QScriptEngine::d_func(void)
	?returnEvent@QScriptEngineAgentPrivate@@UAEXABVDebuggerCallFrame@QTJSC@@HH@Z @ 34 NONAME ; void QScriptEngineAgentPrivate::returnEvent(class QTJSC::DebuggerCallFrame const &, int, int)
	??0QScriptValue@@QAE@XZ @ 35 NONAME ; QScriptValue::QScriptValue(void)
	?property@QScriptClass@@UAE?AVQScriptValue@@ABV2@ABVQScriptString@@I@Z @ 36 NONAME ; class QScriptValue QScriptClass::property(class QScriptValue const &, class QScriptString const &, unsigned int)
	?didReachBreakpoint@QScriptEngineAgentPrivate@@UAEXABVDebuggerCallFrame@QTJSC@@HHH@Z @ 37 NONAME ; void QScriptEngineAgentPrivate::didReachBreakpoint(class QTJSC::DebuggerCallFrame const &, int, int, int)
	??0QScriptable@@QAE@XZ @ 38 NONAME ; QScriptable::QScriptable(void)
	?qt_metacall@QScriptEngine@@UAEHW4Call@QMetaObject@@HPAPAX@Z @ 39 NONAME ; int QScriptEngine::qt_metacall(enum QMetaObject::Call, int, void * *)
	?parentContext@QScriptContext@@QBEPAV1@XZ @ 40 NONAME ; class QScriptContext * QScriptContext::parentContext(void) const
	?exceptionThrow@QScriptEngineAgent@@UAEX_JABVQScriptValue@@_N@Z @ 41 NONAME ; void QScriptEngineAgent::exceptionThrow(long long, class QScriptValue const &, bool)
	?exceptionCatch@QScriptEngineAgentPrivate@@UAEXABVDebuggerCallFrame@QTJSC@@H@Z @ 42 NONAME ; void QScriptEngineAgentPrivate::exceptionCatch(class QTJSC::DebuggerCallFrame const &, int)
	??0QScriptValue@@QAE@PAVQScriptEngine@@N@Z @ 43 NONAME ; QScriptValue::QScriptValue(class QScriptEngine *, double)
	?state@QScriptContext@@QBE?AW4ExecutionState@1@XZ @ 44 NONAME ; enum QScriptContext::ExecutionState QScriptContext::state(void) const
	?argument@QScriptable@@QBE?AVQScriptValue@@H@Z @ 45 NONAME ; class QScriptValue QScriptable::argument(int) const
	?objectById@QScriptEngine@@QBE?AVQScriptValue@@_J@Z @ 46 NONAME ; class QScriptValue QScriptEngine::objectById(long long) const
	??0QScriptEngineAgent@@QAE@PAVQScriptEngine@@@Z @ 47 NONAME ; QScriptEngineAgent::QScriptEngineAgent(class QScriptEngine *)
	?isVariant@QScriptValue@@QBE_NXZ @ 48 NONAME ; bool QScriptValue::isVariant(void) const
	?functionExit@QScriptEngineAgentPrivate@@UAEXABVJSValue@QTJSC@@H@Z @ 49 NONAME ; void QScriptEngineAgentPrivate::functionExit(class QTJSC::JSValue const &, int)
	?toBack@QScriptValueIterator@@QAEXXZ @ 50 NONAME ; void QScriptValueIterator::toBack(void)
	?pushScope@QScriptContext@@QAEXABVQScriptValue@@@Z @ 51 NONAME ; void QScriptContext::pushScope(class QScriptValue const &)
	??0QScriptValue@@QAE@PAVQScriptEngine@@I@Z @ 52 NONAME ; QScriptValue::QScriptValue(class QScriptEngine *, unsigned int)
	?staticMetaObject@QScriptExtensionPlugin@@2UQMetaObject@@B @ 53 NONAME ; struct QMetaObject const QScriptExtensionPlugin::staticMetaObject
	?setThisObject@QScriptContext@@QAEXABVQScriptValue@@@Z @ 54 NONAME ; void QScriptContext::setThisObject(class QScriptValue const &)
	??0QScriptEngineAgentPrivate@@QAE@XZ @ 55 NONAME ; QScriptEngineAgentPrivate::QScriptEngineAgentPrivate(void)
	?toNumber@QScriptValue@@QBENXZ @ 56 NONAME ; double QScriptValue::toNumber(void) const
	?d_func@QScriptClassPropertyIterator@@AAEPAVQScriptClassPropertyIteratorPrivate@@XZ @ 57 NONAME ; class QScriptClassPropertyIteratorPrivate * QScriptClassPropertyIterator::d_func(void)
	?setProperty@QScriptClass@@UAEXAAVQScriptValue@@ABVQScriptString@@IABV2@@Z @ 58 NONAME ; void QScriptClass::setProperty(class QScriptValue &, class QScriptString const &, unsigned int, class QScriptValue const &)
	?isNull@QScriptValue@@QBE_NXZ @ 59 NONAME ; bool QScriptValue::isNull(void) const
	?isNull@QScriptContextInfo@@QBE_NXZ @ 60 NONAME ; bool QScriptContextInfo::isNull(void) const
	?engine@QScriptClass@@QBEPAVQScriptEngine@@XZ @ 61 NONAME ; class QScriptEngine * QScriptClass::engine(void) const
	??0QScriptValueIterator@@QAE@ABVQScriptValue@@@Z @ 62 NONAME ; QScriptValueIterator::QScriptValueIterator(class QScriptValue const &)
	?signalHandlerException@QScriptEngine@@IAEXABVQScriptValue@@@Z @ 63 NONAME ; void QScriptEngine::signalHandlerException(class QScriptValue const &)
	?isQObject@QScriptValue@@QBE_NXZ @ 64 NONAME ; bool QScriptValue::isQObject(void) const
	?setGlobalObject@QScriptEngine@@QAEXABVQScriptValue@@@Z @ 65 NONAME ; void QScriptEngine::setGlobalObject(class QScriptValue const &)
	?exceptionThrow@QScriptEngineAgentPrivate@@UAEXABVDebuggerCallFrame@QTJSC@@H_N@Z @ 66 NONAME ; void QScriptEngineAgentPrivate::exceptionThrow(class QTJSC::DebuggerCallFrame const &, int, bool)
	??0QScriptSyntaxCheckResult@@AAE@XZ @ 67 NONAME ; QScriptSyntaxCheckResult::QScriptSyntaxCheckResult(void)
	?scriptId@QScriptContextInfo@@QBE_JXZ @ 68 NONAME ; long long QScriptContextInfo::scriptId(void) const
	?collectGarbage@QScriptEngine@@QAEXXZ @ 69 NONAME ; void QScriptEngine::collectGarbage(void)
	?call@QScriptValue@@QAE?AV1@ABV1@0@Z @ 70 NONAME ; class QScriptValue QScriptValue::call(class QScriptValue const &, class QScriptValue const &)
	?toInt32@QScriptValue@@QBEHXZ @ 71 NONAME ; int QScriptValue::toInt32(void) const
	?newObject@QScriptEngine@@QAE?AVQScriptValue@@PAVQScriptClass@@ABV2@@Z @ 72 NONAME ; class QScriptValue QScriptEngine::newObject(class QScriptClass *, class QScriptValue const &)
	??_EQScriptExtensionPlugin@@UAE@I@Z @ 73 NONAME ; QScriptExtensionPlugin::~QScriptExtensionPlugin(unsigned int)
	?get@QScriptEngineAgentPrivate@@SAPAVQScriptEngineAgent@@PAV1@@Z @ 74 NONAME ; class QScriptEngineAgent * QScriptEngineAgentPrivate::get(class QScriptEngineAgentPrivate *)
	?qt_metacall@QScriptExtensionPlugin@@UAEHW4Call@QMetaObject@@HPAPAX@Z @ 75 NONAME ; int QScriptExtensionPlugin::qt_metacall(enum QMetaObject::Call, int, void * *)
	?undefinedValue@QScriptEngine@@QAE?AVQScriptValue@@XZ @ 76 NONAME ; class QScriptValue QScriptEngine::undefinedValue(void)
	??1QScriptExtensionInterface@@UAE@XZ @ 77 NONAME ; QScriptExtensionInterface::~QScriptExtensionInterface(void)
	?trUtf8@QScriptEngine@@SA?AVQString@@PBD0@Z @ 78 NONAME ; class QString QScriptEngine::trUtf8(char const *, char const *)
	??4QScriptContextInfo@@QAEAAV0@ABV0@@Z @ 79 NONAME ; class QScriptContextInfo & QScriptContextInfo::operator=(class QScriptContextInfo const &)
	?argumentCount@QScriptContext@@QBEHXZ @ 80 NONAME ; int QScriptContext::argumentCount(void) const
	?functionType@QScriptContextInfo@@QBE?AW4FunctionType@1@XZ @ 81 NONAME ; enum QScriptContextInfo::FunctionType QScriptContextInfo::functionType(void) const
	?convert@QScriptEngine@@AAE_NABVQScriptValue@@HPAX@Z @ 82 NONAME ; bool QScriptEngine::convert(class QScriptValue const &, int, void *)
	??1QScriptValue@@QAE@XZ @ 83 NONAME ; QScriptValue::~QScriptValue(void)
	??9QScriptString@@QBE_NABV0@@Z @ 84 NONAME ; bool QScriptString::operator!=(class QScriptString const &) const
	?scriptUnload@QScriptEngineAgentPrivate@@UAEX_J@Z @ 85 NONAME ; void QScriptEngineAgentPrivate::scriptUnload(long long)
	?registerCustomType@QScriptEngine@@AAEXHP6A?AVQScriptValue@@PAV1@PBX@ZP6AXABV2@PAX@Z3@Z @ 86 NONAME ; void QScriptEngine::registerCustomType(int, class QScriptValue (*)(class QScriptEngine *, void const *), void (*)(class QScriptValue const &, void *), class QScriptValue const &)
	?setAgent@QScriptEngine@@QAEXPAVQScriptEngineAgent@@@Z @ 87 NONAME ; void QScriptEngine::setAgent(class QScriptEngineAgent *)
	?engine@QScriptContext@@QBEPAVQScriptEngine@@XZ @ 88 NONAME ; class QScriptEngine * QScriptContext::engine(void) const
	?detach@QScriptEngineAgentPrivate@@QAEXXZ @ 89 NONAME ; void QScriptEngineAgentPrivate::detach(void)
	?equals@QScriptValue@@QBE_NABV1@@Z @ 90 NONAME ; bool QScriptValue::equals(class QScriptValue const &) const
	?functionParameterNames@QScriptContextInfo@@QBE?AVQStringList@@XZ @ 91 NONAME ; class QStringList QScriptContextInfo::functionParameterNames(void) const
	?fileName@QScriptContextInfo@@QBE?AVQString@@XZ @ 92 NONAME ; class QString QScriptContextInfo::fileName(void) const
	?isObject@QScriptValue@@QBE_NXZ @ 93 NONAME ; bool QScriptValue::isObject(void) const
	?d_func@QScriptEngineAgent@@ABEPBVQScriptEngineAgentPrivate@@XZ @ 94 NONAME ; class QScriptEngineAgentPrivate const * QScriptEngineAgent::d_func(void) const
	?trUtf8@QScriptEngine@@SA?AVQString@@PBD0H@Z @ 95 NONAME ; class QString QScriptEngine::trUtf8(char const *, char const *, int)
	?uncaughtException@QScriptEngine@@QBE?AVQScriptValue@@XZ @ 96 NONAME ; class QScriptValue QScriptEngine::uncaughtException(void) const
	?qHash@@YAIABVQScriptString@@@Z @ 97 NONAME ; unsigned int qHash(class QScriptString const &)
	?id@QScriptClassPropertyIterator@@UBEIXZ @ 98 NONAME ; unsigned int QScriptClassPropertyIterator::id(void) const
	??_EQScriptEngine@@UAE@I@Z @ 99 NONAME ; QScriptEngine::~QScriptEngine(unsigned int)
	?newQObject@QScriptEngine@@QAE?AVQScriptValue@@ABV2@PAVQObject@@W4ValueOwnership@1@ABV?$QFlags@W4QObjectWrapOption@QScriptEngine@@@@@Z @ 100 NONAME ; class QScriptValue QScriptEngine::newQObject(class QScriptValue const &, class QObject *, enum QScriptEngine::ValueOwnership, class QFlags<enum QScriptEngine::QObjectWrapOption> const &)
	??0QScriptExtensionInterface@@QAE@XZ @ 101 NONAME ; QScriptExtensionInterface::QScriptExtensionInterface(void)
	?metaObject@QScriptExtensionPlugin@@UBEPBUQMetaObject@@XZ @ 102 NONAME ; struct QMetaObject const * QScriptExtensionPlugin::metaObject(void) const
	?setReturnValue@QScriptContext@@QAEXABVQScriptValue@@@Z @ 103 NONAME ; void QScriptContext::setReturnValue(class QScriptValue const &)
	?isBoolean@QScriptValue@@QBE_NXZ @ 104 NONAME ; bool QScriptValue::isBoolean(void) const
	?d_func@QScriptClass@@ABEPBVQScriptClassPrivate@@XZ @ 105 NONAME ; class QScriptClassPrivate const * QScriptClass::d_func(void) const
	?toString@QScriptValue@@QBE?AVQString@@XZ @ 106 NONAME ; class QString QScriptValue::toString(void) const
	?previous@QScriptValueIterator@@QAEXXZ @ 107 NONAME ; void QScriptValueIterator::previous(void)
	??8QScriptContextInfo@@QBE_NABV0@@Z @ 108 NONAME ; bool QScriptContextInfo::operator==(class QScriptContextInfo const &) const
	?d_func@QScriptValue@@AAEPAVQScriptValuePrivate@@XZ @ 109 NONAME ; class QScriptValuePrivate * QScriptValue::d_func(void)
	?toString@QScriptString@@QBE?AVQString@@XZ @ 110 NONAME ; class QString QScriptString::toString(void) const
	??0QScriptContext@@AAE@XZ @ 111 NONAME ; QScriptContext::QScriptContext(void)
	?setValue@QScriptValueIterator@@QAEXABVQScriptValue@@@Z @ 112 NONAME ; void QScriptValueIterator::setValue(class QScriptValue const &)
	?qScriptDisconnect@@YA_NPAVQObject@@PBDABVQScriptValue@@2@Z @ 113 NONAME ; bool qScriptDisconnect(class QObject *, char const *, class QScriptValue const &, class QScriptValue const &)
	??1QScriptValueIterator@@QAE@XZ @ 114 NONAME ; QScriptValueIterator::~QScriptValueIterator(void)
	?throwError@QScriptContext@@QAE?AVQScriptValue@@ABVQString@@@Z @ 115 NONAME ; class QScriptValue QScriptContext::throwError(class QString const &)
	?newDate@QScriptEngine@@QAE?AVQScriptValue@@ABVQDateTime@@@Z @ 116 NONAME ; class QScriptValue QScriptEngine::newDate(class QDateTime const &)
	?toStringHandle@QScriptEngine@@QAE?AVQScriptString@@ABVQString@@@Z @ 117 NONAME ; class QScriptString QScriptEngine::toStringHandle(class QString const &)
	?toInteger@QScriptValue@@QBENXZ @ 118 NONAME ; double QScriptValue::toInteger(void) const
	?scopeChain@QScriptContext@@QBE?AV?$QList@VQScriptValue@@@@XZ @ 119 NONAME ; class QList<class QScriptValue> QScriptContext::scopeChain(void) const
	?isValid@QScriptString@@QBE_NXZ @ 120 NONAME ; bool QScriptString::isValid(void) const
	?name@QScriptClass@@UBE?AVQString@@XZ @ 121 NONAME ; class QString QScriptClass::name(void) const
	??1QScriptContext@@QAE@XZ @ 122 NONAME ; QScriptContext::~QScriptContext(void)
	?construct@QScriptValue@@QAE?AV1@ABV1@@Z @ 123 NONAME ; class QScriptValue QScriptValue::construct(class QScriptValue const &)
	?defaultPrototype@QScriptEngine@@QBE?AVQScriptValue@@H@Z @ 124 NONAME ; class QScriptValue QScriptEngine::defaultPrototype(int) const
	??9QScriptContextInfo@@QBE_NABV0@@Z @ 125 NONAME ; bool QScriptContextInfo::operator!=(class QScriptContextInfo const &) const
	?evaluate@QScriptEngine@@QAE?AVQScriptValue@@ABVQString@@0H@Z @ 126 NONAME ; class QScriptValue QScriptEngine::evaluate(class QString const &, class QString const &, int)
	?prototype@QScriptClass@@UBE?AVQScriptValue@@XZ @ 127 NONAME ; class QScriptValue QScriptClass::prototype(void) const
	?lessThan@QScriptValue@@QBE_NABV1@@Z @ 128 NONAME ; bool QScriptValue::lessThan(class QScriptValue const &) const
	?errorColumnNumber@QScriptSyntaxCheckResult@@QBEHXZ @ 129 NONAME ; int QScriptSyntaxCheckResult::errorColumnNumber(void) const
	?d_func@QScriptContext@@AAEPAVQScriptContextPrivate@@XZ @ 130 NONAME ; class QScriptContextPrivate * QScriptContext::d_func(void)
	?errorMessage@QScriptSyntaxCheckResult@@QBE?AVQString@@XZ @ 131 NONAME ; class QString QScriptSyntaxCheckResult::errorMessage(void) const
	?toBool@QScriptValue@@QBE_NXZ @ 132 NONAME ; bool QScriptValue::toBool(void) const
	?argumentsObject@QScriptContext@@QBE?AVQScriptValue@@XZ @ 133 NONAME ; class QScriptValue QScriptContext::argumentsObject(void) const
	?flags@QScriptValueIterator@@QBE?AV?$QFlags@W4PropertyFlag@QScriptValue@@@@XZ @ 134 NONAME ; class QFlags<enum QScriptValue::PropertyFlag> QScriptValueIterator::flags(void) const
	?toDateTime@QScriptValue@@QBE?AVQDateTime@@XZ @ 135 NONAME ; class QDateTime QScriptValue::toDateTime(void) const
	?newDate@QScriptEngine@@QAE?AVQScriptValue@@N@Z @ 136 NONAME ; class QScriptValue QScriptEngine::newDate(double)
	?setDefaultPrototype@QScriptEngine@@QAEXHABVQScriptValue@@@Z @ 137 NONAME ; void QScriptEngine::setDefaultPrototype(int, class QScriptValue const &)
	?setupPackage@QScriptExtensionPlugin@@QBE?AVQScriptValue@@ABVQString@@PAVQScriptEngine@@@Z @ 138 NONAME ; class QScriptValue QScriptExtensionPlugin::setupPackage(class QString const &, class QScriptEngine *) const
	??0QScriptSyntaxCheckResult@@AAE@PAVQScriptSyntaxCheckResultPrivate@@@Z @ 139 NONAME ; QScriptSyntaxCheckResult::QScriptSyntaxCheckResult(class QScriptSyntaxCheckResultPrivate *)
	?scriptUnload@QScriptEngineAgent@@UAEX_J@Z @ 140 NONAME ; void QScriptEngineAgent::scriptUnload(long long)
	?prototype@QScriptValue@@QBE?AV1@XZ @ 141 NONAME ; class QScriptValue QScriptValue::prototype(void) const
	??1QScriptSyntaxCheckResult@@QAE@XZ @ 142 NONAME ; QScriptSyntaxCheckResult::~QScriptSyntaxCheckResult(void)
	??0QScriptClass@@IAE@PAVQScriptEngine@@AAVQScriptClassPrivate@@@Z @ 143 NONAME ; QScriptClass::QScriptClass(class QScriptEngine *, class QScriptClassPrivate &)
	?toObject@QScriptEngine@@QAE?AVQScriptValue@@ABV2@@Z @ 144 NONAME ; class QScriptValue QScriptEngine::toObject(class QScriptValue const &)
	??0QScriptEngine@@QAE@XZ @ 145 NONAME ; QScriptEngine::QScriptEngine(void)
	?isRegExp@QScriptValue@@QBE_NXZ @ 146 NONAME ; bool QScriptValue::isRegExp(void) const
	?evaluateStop@QScriptEngineAgentPrivate@@UAEXABVJSValue@QTJSC@@H@Z @ 147 NONAME ; void QScriptEngineAgentPrivate::evaluateStop(class QTJSC::JSValue const &, int)
	?d_func@QScriptValueIterator@@AAEPAVQScriptValueIteratorPrivate@@XZ @ 148 NONAME ; class QScriptValueIteratorPrivate * QScriptValueIterator::d_func(void)
	?errorLineNumber@QScriptSyntaxCheckResult@@QBEHXZ @ 149 NONAME ; int QScriptSyntaxCheckResult::errorLineNumber(void) const
	?d_func@QScriptSyntaxCheckResult@@AAEPAVQScriptSyntaxCheckResultPrivate@@XZ @ 150 NONAME ; class QScriptSyntaxCheckResultPrivate * QScriptSyntaxCheckResult::d_func(void)
	?instanceOf@QScriptValue@@QBE_NABV1@@Z @ 151 NONAME ; bool QScriptValue::instanceOf(class QScriptValue const &) const
	?isUndefined@QScriptValue@@QBE_NXZ @ 152 NONAME ; bool QScriptValue::isUndefined(void) const
	?toUInt16@QScriptValue@@QBEGXZ @ 153 NONAME ; unsigned short QScriptValue::toUInt16(void) const
	??_EQScriptClass@@UAE@I@Z @ 154 NONAME ; QScriptClass::~QScriptClass(unsigned int)
	?engine@QScriptValue@@QBEPAVQScriptEngine@@XZ @ 155 NONAME ; class QScriptEngine * QScriptValue::engine(void) const
	??4QScriptValue@@QAEAAV0@ABV0@@Z @ 156 NONAME ; class QScriptValue & QScriptValue::operator=(class QScriptValue const &)
	?trUtf8@QScriptExtensionPlugin@@SA?AVQString@@PBD0H@Z @ 157 NONAME ; class QString QScriptExtensionPlugin::trUtf8(char const *, char const *, int)
	??0QScriptValue@@QAE@PAVQScriptEngine@@W4SpecialValue@0@@Z @ 158 NONAME ; QScriptValue::QScriptValue(class QScriptEngine *, enum QScriptValue::SpecialValue)
	??_EQScriptEngineAgentPrivate@@UAE@I@Z @ 159 NONAME ; QScriptEngineAgentPrivate::~QScriptEngineAgentPrivate(unsigned int)
	?context@QScriptable@@QBEPAVQScriptContext@@XZ @ 160 NONAME ; class QScriptContext * QScriptable::context(void) const
	?get@QScriptEngineAgentPrivate@@SAPAV1@PAVQScriptEngineAgent@@@Z @ 161 NONAME ; class QScriptEngineAgentPrivate * QScriptEngineAgentPrivate::get(class QScriptEngineAgent *)
	?hasNext@QScriptValueIterator@@QBE_NXZ @ 162 NONAME ; bool QScriptValueIterator::hasNext(void) const
	?pushContext@QScriptEngine@@QAEPAVQScriptContext@@XZ @ 163 NONAME ; class QScriptContext * QScriptEngine::pushContext(void)
	??1QScriptString@@QAE@XZ @ 164 NONAME ; QScriptString::~QScriptString(void)
	?lineNumber@QScriptContextInfo@@QBEHXZ @ 165 NONAME ; int QScriptContextInfo::lineNumber(void) const
	?setActivationObject@QScriptContext@@QAEXABVQScriptValue@@@Z @ 166 NONAME ; void QScriptContext::setActivationObject(class QScriptValue const &)
	?qt_metacast@QScriptExtensionPlugin@@UAEPAXPBD@Z @ 167 NONAME ; void * QScriptExtensionPlugin::qt_metacast(char const *)
	??1QScriptContextInfo@@QAE@XZ @ 168 NONAME ; QScriptContextInfo::~QScriptContextInfo(void)
	?activationObject@QScriptContext@@QBE?AVQScriptValue@@XZ @ 169 NONAME ; class QScriptValue QScriptContext::activationObject(void) const
	??0QScriptClassPropertyIterator@@IAE@ABVQScriptValue@@AAVQScriptClassPropertyIteratorPrivate@@@Z @ 170 NONAME ; QScriptClassPropertyIterator::QScriptClassPropertyIterator(class QScriptValue const &, class QScriptClassPropertyIteratorPrivate &)
	?construct@QScriptValue@@QAE?AV1@ABV?$QList@VQScriptValue@@@@@Z @ 171 NONAME ; class QScriptValue QScriptValue::construct(class QList<class QScriptValue> const &)
	??0QScriptContextInfo@@QAE@XZ @ 172 NONAME ; QScriptContextInfo::QScriptContextInfo(void)
	?agent@QScriptEngine@@QBEPAVQScriptEngineAgent@@XZ @ 173 NONAME ; class QScriptEngineAgent * QScriptEngine::agent(void) const
	?backtrace@QScriptContext@@QBE?AVQStringList@@XZ @ 174 NONAME ; class QStringList QScriptContext::backtrace(void) const
	??1QScriptClassPropertyIterator@@UAE@XZ @ 175 NONAME ; QScriptClassPropertyIterator::~QScriptClassPropertyIterator(void)
	?qt_metacast@QScriptEngine@@UAEPAXPBD@Z @ 176 NONAME ; void * QScriptEngine::qt_metacast(char const *)
	?setPrototype@QScriptValue@@QAEXABV1@@Z @ 177 NONAME ; void QScriptValue::setPrototype(class QScriptValue const &)
	?setProperty@QScriptValue@@QAEXABVQString@@ABV1@ABV?$QFlags@W4PropertyFlag@QScriptValue@@@@@Z @ 178 NONAME ; void QScriptValue::setProperty(class QString const &, class QScriptValue const &, class QFlags<enum QScriptValue::PropertyFlag> const &)
	?atStatement@QScriptEngineAgentPrivate@@UAEXABVDebuggerCallFrame@QTJSC@@HHH@Z @ 179 NONAME ; void QScriptEngineAgentPrivate::atStatement(class QTJSC::DebuggerCallFrame const &, int, int, int)
	?create@QScriptEngine@@AAE?AVQScriptValue@@HPBX@Z @ 180 NONAME ; class QScriptValue QScriptEngine::create(int, void const *)
	?toString@QScriptContext@@QBE?AVQString@@XZ @ 181 NONAME ; class QString QScriptContext::toString(void) const
	?newRegExp@QScriptEngine@@QAE?AVQScriptValue@@ABVQRegExp@@@Z @ 182 NONAME ; class QScriptValue QScriptEngine::newRegExp(class QRegExp const &)
	?property@QScriptValue@@QBE?AV1@ABVQScriptString@@ABV?$QFlags@W4ResolveFlag@QScriptValue@@@@@Z @ 183 NONAME ; class QScriptValue QScriptValue::property(class QScriptString const &, class QFlags<enum QScriptValue::ResolveFlag> const &) const
	?throwError@QScriptContext@@QAE?AVQScriptValue@@W4Error@1@ABVQString@@@Z @ 184 NONAME ; class QScriptValue QScriptContext::throwError(enum QScriptContext::Error, class QString const &)
	??0QScriptValue@@QAE@PAVQScriptEngine@@_N@Z @ 185 NONAME ; QScriptValue::QScriptValue(class QScriptEngine *, bool)
	?callEvent@QScriptEngineAgentPrivate@@UAEXABVDebuggerCallFrame@QTJSC@@HH@Z @ 186 NONAME ; void QScriptEngineAgentPrivate::callEvent(class QTJSC::DebuggerCallFrame const &, int, int)
	?contextPop@QScriptEngineAgent@@UAEXXZ @ 187 NONAME ; void QScriptEngineAgent::contextPop(void)
	??1QScriptExtensionPlugin@@UAE@XZ @ 188 NONAME ; QScriptExtensionPlugin::~QScriptExtensionPlugin(void)
	?uncaughtExceptionLineNumber@QScriptEngine@@QBEHXZ @ 189 NONAME ; int QScriptEngine::uncaughtExceptionLineNumber(void) const
	??8QScriptString@@QBE_NABV0@@Z @ 190 NONAME ; bool QScriptString::operator==(class QScriptString const &) const
	?newRegExp@QScriptEngine@@QAE?AVQScriptValue@@ABVQString@@0@Z @ 191 NONAME ; class QScriptValue QScriptEngine::newRegExp(class QString const &, class QString const &)
	?tr@QScriptEngine@@SA?AVQString@@PBD0@Z @ 192 NONAME ; class QString QScriptEngine::tr(char const *, char const *)
	??0QScriptContextInfo@@QAE@ABV0@@Z @ 193 NONAME ; QScriptContextInfo::QScriptContextInfo(class QScriptContextInfo const &)
	?popContext@QScriptEngine@@QAEXXZ @ 194 NONAME ; void QScriptEngine::popContext(void)
	??0QScriptClassPropertyIterator@@IAE@ABVQScriptValue@@@Z @ 195 NONAME ; QScriptClassPropertyIterator::QScriptClassPropertyIterator(class QScriptValue const &)
	?scriptLoad@QScriptEngineAgent@@UAEX_JABVQString@@1H@Z @ 196 NONAME ; void QScriptEngineAgent::scriptLoad(long long, class QString const &, class QString const &, int)
	??1QScriptClass@@UAE@XZ @ 197 NONAME ; QScriptClass::~QScriptClass(void)
	?attach@QScriptEngineAgentPrivate@@QAEXXZ @ 198 NONAME ; void QScriptEngineAgentPrivate::attach(void)
	?exception@QScriptEngineAgentPrivate@@UAEXABVDebuggerCallFrame@QTJSC@@HH@Z @ 199 NONAME ; void QScriptEngineAgentPrivate::exception(class QTJSC::DebuggerCallFrame const &, int, int)
	?processEventsInterval@QScriptEngine@@QBEHXZ @ 200 NONAME ; int QScriptEngine::processEventsInterval(void) const
	??0QScriptContextInfo@@QAE@PBVQScriptContext@@@Z @ 201 NONAME ; QScriptContextInfo::QScriptContextInfo(class QScriptContext const *)
	?newIterator@QScriptClass@@UAEPAVQScriptClassPropertyIterator@@ABVQScriptValue@@@Z @ 202 NONAME ; class QScriptClassPropertyIterator * QScriptClass::newIterator(class QScriptValue const &)
	?name@QScriptValueIterator@@QBE?AVQString@@XZ @ 203 NONAME ; class QString QScriptValueIterator::name(void) const
	?tr@QScriptExtensionPlugin@@SA?AVQString@@PBD0H@Z @ 204 NONAME ; class QString QScriptExtensionPlugin::tr(char const *, char const *, int)
	?scriptClass@QScriptValue@@QBEPAVQScriptClass@@XZ @ 205 NONAME ; class QScriptClass * QScriptValue::scriptClass(void) const
	??0QScriptValue@@QAE@W4SpecialValue@0@@Z @ 206 NONAME ; QScriptValue::QScriptValue(enum QScriptValue::SpecialValue)
	?toFront@QScriptValueIterator@@QAEXXZ @ 207 NONAME ; void QScriptValueIterator::toFront(void)
	??0QScriptEngineAgent@@IAE@AAVQScriptEngineAgentPrivate@@PAVQScriptEngine@@@Z @ 208 NONAME ; QScriptEngineAgent::QScriptEngineAgent(class QScriptEngineAgentPrivate &, class QScriptEngine *)
	?toUInt32@QScriptValue@@QBEIXZ @ 209 NONAME ; unsigned int QScriptValue::toUInt32(void) const
	?d_func@QScriptContext@@ABEPBVQScriptContextPrivate@@XZ @ 210 NONAME ; class QScriptContextPrivate const * QScriptContext::d_func(void) const
	?isArray@QScriptValue@@QBE_NXZ @ 211 NONAME ; bool QScriptValue::isArray(void) const
	?scriptLoad@QScriptEngineAgentPrivate@@UAEX_JABVUString@QTJSC@@1H@Z @ 212 NONAME ; void QScriptEngineAgentPrivate::scriptLoad(long long, class QTJSC::UString const &, class QTJSC::UString const &, int)
	?engine@QScriptEngineAgent@@QBEPAVQScriptEngine@@XZ @ 213 NONAME ; class QScriptEngine * QScriptEngineAgent::engine(void) const
	?newVariant@QScriptEngine@@QAE?AVQScriptValue@@ABV2@ABVQVariant@@@Z @ 214 NONAME ; class QScriptValue QScriptEngine::newVariant(class QScriptValue const &, class QVariant const &)
	?setProperty@QScriptValue@@QAEXIABV1@ABV?$QFlags@W4PropertyFlag@QScriptValue@@@@@Z @ 215 NONAME ; void QScriptValue::setProperty(unsigned int, class QScriptValue const &, class QFlags<enum QScriptValue::PropertyFlag> const &)
	?property@QScriptValue@@QBE?AV1@IABV?$QFlags@W4ResolveFlag@QScriptValue@@@@@Z @ 216 NONAME ; class QScriptValue QScriptValue::property(unsigned int, class QFlags<enum QScriptValue::ResolveFlag> const &) const
	?tr@QScriptEngine@@SA?AVQString@@PBD0H@Z @ 217 NONAME ; class QString QScriptEngine::tr(char const *, char const *, int)
	?d_func@QScriptable@@AAEPAVQScriptablePrivate@@XZ @ 218 NONAME ; class QScriptablePrivate * QScriptable::d_func(void)
	?exceptionCatch@QScriptEngineAgent@@UAEX_JABVQScriptValue@@@Z @ 219 NONAME ; void QScriptEngineAgent::exceptionCatch(long long, class QScriptValue const &)
	?toBoolean@QScriptValue@@QBE_NXZ @ 220 NONAME ; bool QScriptValue::toBoolean(void) const
	??0QScriptValue@@QAE@H@Z @ 221 NONAME ; QScriptValue::QScriptValue(int)
	?extension@QScriptEngineAgent@@UAE?AVQVariant@@W4Extension@1@ABV2@@Z @ 222 NONAME ; class QVariant QScriptEngineAgent::extension(enum QScriptEngineAgent::Extension, class QVariant const &)
	?thisObject@QScriptable@@QBE?AVQScriptValue@@XZ @ 223 NONAME ; class QScriptValue QScriptable::thisObject(void) const
	?setProcessEventsInterval@QScriptEngine@@QAEXH@Z @ 224 NONAME ; void QScriptEngine::setProcessEventsInterval(int)
	?newFunction@QScriptEngine@@QAE?AVQScriptValue@@P6A?AV2@PAVQScriptContext@@PAV1@@ZH@Z @ 225 NONAME ; class QScriptValue QScriptEngine::newFunction(class QScriptValue (*)(class QScriptContext *, class QScriptEngine *), int)
	?d_func@QScriptClassPropertyIterator@@ABEPBVQScriptClassPropertyIteratorPrivate@@XZ @ 226 NONAME ; class QScriptClassPropertyIteratorPrivate const * QScriptClassPropertyIterator::d_func(void) const
	?trUtf8@QScriptExtensionPlugin@@SA?AVQString@@PBD0@Z @ 227 NONAME ; class QString QScriptExtensionPlugin::trUtf8(char const *, char const *)
	??0QScriptSyntaxCheckResult@@QAE@ABV0@@Z @ 228 NONAME ; QScriptSyntaxCheckResult::QScriptSyntaxCheckResult(class QScriptSyntaxCheckResult const &)
	?newQObject@QScriptEngine@@QAE?AVQScriptValue@@PAVQObject@@W4ValueOwnership@1@ABV?$QFlags@W4QObjectWrapOption@QScriptEngine@@@@@Z @ 229 NONAME ; class QScriptValue QScriptEngine::newQObject(class QObject *, enum QScriptEngine::ValueOwnership, class QFlags<enum QScriptEngine::QObjectWrapOption> const &)
	?d_func@QScriptContextInfo@@AAEPAVQScriptContextInfoPrivate@@XZ @ 230 NONAME ; class QScriptContextInfoPrivate * QScriptContextInfo::d_func(void)
	?isCalledAsConstructor@QScriptContext@@QBE_NXZ @ 231 NONAME ; bool QScriptContext::isCalledAsConstructor(void) const
	?isQMetaObject@QScriptValue@@QBE_NXZ @ 232 NONAME ; bool QScriptValue::isQMetaObject(void) const
	?toVariant@QScriptValue@@QBE?AVQVariant@@XZ @ 233 NONAME ; class QVariant QScriptValue::toVariant(void) const
	?supportsExtension@QScriptEngineAgent@@UBE_NW4Extension@1@@Z @ 234 NONAME ; bool QScriptEngineAgent::supportsExtension(enum QScriptEngineAgent::Extension) const
	?state@QScriptSyntaxCheckResult@@QBE?AW4State@1@XZ @ 235 NONAME ; enum QScriptSyntaxCheckResult::State QScriptSyntaxCheckResult::state(void) const
	?isEvaluating@QScriptEngine@@QBE_NXZ @ 236 NONAME ; bool QScriptEngine::isEvaluating(void) const
	?setScriptClass@QScriptValue@@QAEXPAVQScriptClass@@@Z @ 237 NONAME ; void QScriptValue::setScriptClass(class QScriptClass *)
	?convertV2@QScriptEngine@@CA_NABVQScriptValue@@HPAX@Z @ 238 NONAME ; bool QScriptEngine::convertV2(class QScriptValue const &, int, void *)
	?d_func@QScriptString@@ABEPBVQScriptStringPrivate@@XZ @ 239 NONAME ; class QScriptStringPrivate const * QScriptString::d_func(void) const
	??1QScriptEngineAgent@@UAE@XZ @ 240 NONAME ; QScriptEngineAgent::~QScriptEngineAgent(void)
	??1QScriptEngine@@UAE@XZ @ 241 NONAME ; QScriptEngine::~QScriptEngine(void)
	?newObject@QScriptEngine@@QAE?AVQScriptValue@@XZ @ 242 NONAME ; class QScriptValue QScriptEngine::newObject(void)
	?availableExtensions@QScriptEngine@@QBE?AVQStringList@@XZ @ 243 NONAME ; class QStringList QScriptEngine::availableExtensions(void) const
	?canEvaluate@QScriptEngine@@QBE_NABVQString@@@Z @ 244 NONAME ; bool QScriptEngine::canEvaluate(class QString const &) const
	?tr@QScriptExtensionPlugin@@SA?AVQString@@PBD0@Z @ 245 NONAME ; class QString QScriptExtensionPlugin::tr(char const *, char const *)
	?call@QScriptValue@@QAE?AV1@ABV1@ABV?$QList@VQScriptValue@@@@@Z @ 246 NONAME ; class QScriptValue QScriptValue::call(class QScriptValue const &, class QList<class QScriptValue> const &)
	??_EQScriptValue@@QAE@I@Z @ 247 NONAME ; QScriptValue::~QScriptValue(unsigned int)
	??0QScriptEngine@@IAE@AAVQScriptEnginePrivate@@PAVQObject@@@Z @ 248 NONAME ; QScriptEngine::QScriptEngine(class QScriptEnginePrivate &, class QObject *)
	??0QScriptClass@@QAE@PAVQScriptEngine@@@Z @ 249 NONAME ; QScriptClass::QScriptClass(class QScriptEngine *)
	??4QScriptString@@QAEAAV0@ABV0@@Z @ 250 NONAME ; class QScriptString & QScriptString::operator=(class QScriptString const &)
	??0QScriptEngine@@QAE@PAVQObject@@@Z @ 251 NONAME ; QScriptEngine::QScriptEngine(class QObject *)
	??_EQScriptClassPropertyIterator@@UAE@I@Z @ 252 NONAME ; QScriptClassPropertyIterator::~QScriptClassPropertyIterator(unsigned int)
	?willExecuteProgram@QScriptEngineAgentPrivate@@UAEXABVDebuggerCallFrame@QTJSC@@HH@Z @ 253 NONAME ; void QScriptEngineAgentPrivate::willExecuteProgram(class QTJSC::DebuggerCallFrame const &, int, int)
	?supportsExtension@QScriptClass@@UBE_NW4Extension@1@@Z @ 254 NONAME ; bool QScriptClass::supportsExtension(enum QScriptClass::Extension) const
	?didExecuteProgram@QScriptEngineAgentPrivate@@UAEXABVDebuggerCallFrame@QTJSC@@HH@Z @ 255 NONAME ; void QScriptEngineAgentPrivate::didExecuteProgram(class QTJSC::DebuggerCallFrame const &, int, int)
	?q_func@QScriptEngineAgentPrivate@@AAEPAVQScriptEngineAgent@@XZ @ 256 NONAME ; class QScriptEngineAgent * QScriptEngineAgentPrivate::q_func(void)
	?isError@QScriptValue@@QBE_NXZ @ 257 NONAME ; bool QScriptValue::isError(void) const
	?newFunction@QScriptEngine@@QAE?AVQScriptValue@@P6A?AV2@PAVQScriptContext@@PAV1@@ZABV2@H@Z @ 258 NONAME ; class QScriptValue QScriptEngine::newFunction(class QScriptValue (*)(class QScriptContext *, class QScriptEngine *), class QScriptValue const &, int)
	?nullValue@QScriptEngine@@QAE?AVQScriptValue@@XZ @ 259 NONAME ; class QScriptValue QScriptEngine::nullValue(void)
	?data@QScriptValue@@QBE?AV1@XZ @ 260 NONAME ; class QScriptValue QScriptValue::data(void) const
	?hasPrevious@QScriptValueIterator@@QBE_NXZ @ 261 NONAME ; bool QScriptValueIterator::hasPrevious(void) const
	?throwValue@QScriptContext@@QAE?AVQScriptValue@@ABV2@@Z @ 262 NONAME ; class QScriptValue QScriptContext::throwValue(class QScriptValue const &)
	?globalObject@QScriptEngine@@QBE?AVQScriptValue@@XZ @ 263 NONAME ; class QScriptValue QScriptEngine::globalObject(void) const
	?setScope@QScriptValue@@QAEXABV1@@Z @ 264 NONAME ; void QScriptValue::setScope(class QScriptValue const &)
	??6@YAAAVQDataStream@@AAV0@ABVQScriptContextInfo@@@Z @ 265 NONAME ; class QDataStream & operator<<(class QDataStream &, class QScriptContextInfo const &)
	?returnValue@QScriptContext@@QBE?AVQScriptValue@@XZ @ 266 NONAME ; class QScriptValue QScriptContext::returnValue(void) const
	?currentContext@QScriptEngine@@QBEPAVQScriptContext@@XZ @ 267 NONAME ; class QScriptContext * QScriptEngine::currentContext(void) const
	?newQMetaObject@QScriptEngine@@QAE?AVQScriptValue@@PBUQMetaObject@@ABV2@@Z @ 268 NONAME ; class QScriptValue QScriptEngine::newQMetaObject(struct QMetaObject const *, class QScriptValue const &)
	?staticMetaObject@QScriptEngine@@2UQMetaObject@@B @ 269 NONAME ; struct QMetaObject const QScriptEngine::staticMetaObject
	?toRegExp@QScriptValue@@QBE?AVQRegExp@@XZ @ 270 NONAME ; class QRegExp QScriptValue::toRegExp(void) const
	?clearExceptions@QScriptEngine@@QAEXXZ @ 271 NONAME ; void QScriptEngine::clearExceptions(void)
	??0QScriptValue@@AAE@PAVQScriptValuePrivate@@@Z @ 272 NONAME ; QScriptValue::QScriptValue(class QScriptValuePrivate *)
	??BQScriptString@@QBE?AVQString@@XZ @ 273 NONAME ; QScriptString::operator class QString(void) const
	?newVariant@QScriptEngine@@QAE?AVQScriptValue@@ABVQVariant@@@Z @ 274 NONAME ; class QScriptValue QScriptEngine::newVariant(class QVariant const &)
	?d_func@QScriptValue@@ABEPBVQScriptValuePrivate@@XZ @ 275 NONAME ; class QScriptValuePrivate const * QScriptValue::d_func(void) const
	?hasUncaughtException@QScriptEngine@@QBE_NXZ @ 276 NONAME ; bool QScriptEngine::hasUncaughtException(void) const
	?uncaughtExceptionBacktrace@QScriptEngine@@QBE?AVQStringList@@XZ @ 277 NONAME ; class QStringList QScriptEngine::uncaughtExceptionBacktrace(void) const
	??5@YAAAVQDataStream@@AAV0@AAVQScriptContextInfo@@@Z @ 278 NONAME ; class QDataStream & operator>>(class QDataStream &, class QScriptContextInfo &)
	?importedExtensions@QScriptEngine@@QBE?AVQStringList@@XZ @ 279 NONAME ; class QStringList QScriptEngine::importedExtensions(void) const
	??_EQScriptEngineAgent@@UAE@I@Z @ 280 NONAME ; QScriptEngineAgent::~QScriptEngineAgent(unsigned int)
	?functionStartLineNumber@QScriptContextInfo@@QBEHXZ @ 281 NONAME ; int QScriptContextInfo::functionStartLineNumber(void) const
	?propertyFlags@QScriptValue@@QBE?AV?$QFlags@W4PropertyFlag@QScriptValue@@@@ABVQScriptString@@ABV?$QFlags@W4ResolveFlag@QScriptValue@@@@@Z @ 282 NONAME ; class QFlags<enum QScriptValue::PropertyFlag> QScriptValue::propertyFlags(class QScriptString const &, class QFlags<enum QScriptValue::ResolveFlag> const &) const
	?queryProperty@QScriptClass@@UAE?AV?$QFlags@W4QueryFlag@QScriptClass@@@@ABVQScriptValue@@ABVQScriptString@@V2@PAI@Z @ 283 NONAME ; class QFlags<enum QScriptClass::QueryFlag> QScriptClass::queryProperty(class QScriptValue const &, class QScriptString const &, class QFlags<enum QScriptClass::QueryFlag>, unsigned int *)
	?remove@QScriptValueIterator@@QAEXXZ @ 284 NONAME ; void QScriptValueIterator::remove(void)
	?property@QScriptValue@@QBE?AV1@ABVQString@@ABV?$QFlags@W4ResolveFlag@QScriptValue@@@@@Z @ 285 NONAME ; class QScriptValue QScriptValue::property(class QString const &, class QFlags<enum QScriptValue::ResolveFlag> const &) const
	?thisObject@QScriptContext@@QBE?AVQScriptValue@@XZ @ 286 NONAME ; class QScriptValue QScriptContext::thisObject(void) const
	?callee@QScriptContext@@QBE?AVQScriptValue@@XZ @ 287 NONAME ; class QScriptValue QScriptContext::callee(void) const
	?isValid@QScriptValue@@QBE_NXZ @ 288 NONAME ; bool QScriptValue::isValid(void) const
	?d_func@QScriptClass@@AAEPAVQScriptClassPrivate@@XZ @ 289 NONAME ; class QScriptClassPrivate * QScriptClass::d_func(void)
	??0QScriptString@@QAE@ABV0@@Z @ 290 NONAME ; QScriptString::QScriptString(class QScriptString const &)
	??0QScriptValue@@QAE@N@Z @ 291 NONAME ; QScriptValue::QScriptValue(double)
	?positionChange@QScriptEngineAgent@@UAEX_JHH@Z @ 292 NONAME ; void QScriptEngineAgent::positionChange(long long, int, int)
	?getStaticMetaObject@QScriptExtensionPlugin@@SAABUQMetaObject@@XZ @ 293 NONAME ; struct QMetaObject const & QScriptExtensionPlugin::getStaticMetaObject(void)
	?newFunction@QScriptEngine@@QAE?AVQScriptValue@@P6A?AV2@PAVQScriptContext@@PAV1@PAX@Z2@Z @ 294 NONAME ; class QScriptValue QScriptEngine::newFunction(class QScriptValue (*)(class QScriptContext *, class QScriptEngine *, void *), void *)
	??_EQScriptExtensionInterface@@UAE@I@Z @ 295 NONAME ; QScriptExtensionInterface::~QScriptExtensionInterface(unsigned int)
	?isFunction@QScriptValue@@QBE_NXZ @ 296 NONAME ; bool QScriptValue::isFunction(void) const
	?popScope@QScriptContext@@QAE?AVQScriptValue@@XZ @ 297 NONAME ; class QScriptValue QScriptContext::popScope(void)
	??0QScriptValue@@QAE@ABVQString@@@Z @ 298 NONAME ; QScriptValue::QScriptValue(class QString const &)
	?d_func@QScriptEngine@@ABEPBVQScriptEnginePrivate@@XZ @ 299 NONAME ; class QScriptEnginePrivate const * QScriptEngine::d_func(void) const
	??0QScriptValue@@QAE@I@Z @ 300 NONAME ; QScriptValue::QScriptValue(unsigned int)
	?evaluateStart@QScriptEngineAgentPrivate@@UAEXH@Z @ 301 NONAME ; void QScriptEngineAgentPrivate::evaluateStart(int)
	?argumentCount@QScriptable@@QBEHXZ @ 302 NONAME ; int QScriptable::argumentCount(void) const
	?metaObject@QScriptEngine@@UBEPBUQMetaObject@@XZ @ 303 NONAME ; struct QMetaObject const * QScriptEngine::metaObject(void) const
	?functionEndLineNumber@QScriptContextInfo@@QBEHXZ @ 304 NONAME ; int QScriptContextInfo::functionEndLineNumber(void) const
	?installTranslatorFunctions@QScriptEngine@@QAEXABVQScriptValue@@@Z @ 305 NONAME ; void QScriptEngine::installTranslatorFunctions(class QScriptValue const &)
	?scope@QScriptValue@@QBE?AV1@XZ @ 306 NONAME ; class QScriptValue QScriptValue::scope(void) const
	?isBool@QScriptValue@@QBE_NXZ @ 307 NONAME ; bool QScriptValue::isBool(void) const
	?checkSyntax@QScriptEngine@@SA?AVQScriptSyntaxCheckResult@@ABVQString@@@Z @ 308 NONAME ; class QScriptSyntaxCheckResult QScriptEngine::checkSyntax(class QString const &)
	?object@QScriptClassPropertyIterator@@QBE?AVQScriptValue@@XZ @ 309 NONAME ; class QScriptValue QScriptClassPropertyIterator::object(void) const
	??4QScriptSyntaxCheckResult@@QAEAAV0@ABV0@@Z @ 310 NONAME ; class QScriptSyntaxCheckResult & QScriptSyntaxCheckResult::operator=(class QScriptSyntaxCheckResult const &)
	?d_func@QScriptString@@AAEPAVQScriptStringPrivate@@XZ @ 311 NONAME ; class QScriptStringPrivate * QScriptString::d_func(void)
	?isDate@QScriptValue@@QBE_NXZ @ 312 NONAME ; bool QScriptValue::isDate(void) const
	??4QScriptValueIterator@@QAEAAV0@AAVQScriptValue@@@Z @ 313 NONAME ; class QScriptValueIterator & QScriptValueIterator::operator=(class QScriptValue &)
	?contextPush@QScriptEngineAgent@@UAEXXZ @ 314 NONAME ; void QScriptEngineAgent::contextPush(void)
	??0QScriptValue@@QAE@PAVQScriptEngine@@H@Z @ 315 NONAME ; QScriptValue::QScriptValue(class QScriptEngine *, int)
	?importExtension@QScriptEngine@@QAE?AVQScriptValue@@ABVQString@@@Z @ 316 NONAME ; class QScriptValue QScriptEngine::importExtension(class QString const &)
	??0QScriptValue@@QAE@PAVQScriptEngine@@ABVQString@@@Z @ 317 NONAME ; QScriptValue::QScriptValue(class QScriptEngine *, class QString const &)
	?newActivationObject@QScriptEngine@@QAE?AVQScriptValue@@XZ @ 318 NONAME ; class QScriptValue QScriptEngine::newActivationObject(void)
	?d_func@QScriptValueIterator@@ABEPBVQScriptValueIteratorPrivate@@XZ @ 319 NONAME ; class QScriptValueIteratorPrivate const * QScriptValueIterator::d_func(void) const
	?d_func@QScriptContextInfo@@ABEPBVQScriptContextInfoPrivate@@XZ @ 320 NONAME ; class QScriptContextInfoPrivate const * QScriptContextInfo::d_func(void) const
	?functionEntry@QScriptEngineAgent@@UAEX_J@Z @ 321 NONAME ; void QScriptEngineAgent::functionEntry(long long)
	?strictlyEquals@QScriptValue@@QBE_NABV1@@Z @ 322 NONAME ; bool QScriptValue::strictlyEquals(class QScriptValue const &) const
	?d_func@QScriptable@@ABEPBVQScriptablePrivate@@XZ @ 323 NONAME ; class QScriptablePrivate const * QScriptable::d_func(void) const
	?objectId@QScriptValue@@QBE_JXZ @ 324 NONAME ; long long QScriptValue::objectId(void) const
	??0QScriptExtensionPlugin@@QAE@PAVQObject@@@Z @ 325 NONAME ; QScriptExtensionPlugin::QScriptExtensionPlugin(class QObject *)
	?d_func@QScriptSyntaxCheckResult@@ABEPBVQScriptSyntaxCheckResultPrivate@@XZ @ 326 NONAME ; class QScriptSyntaxCheckResultPrivate const * QScriptSyntaxCheckResult::d_func(void) const
	?functionMetaIndex@QScriptContextInfo@@QBEHXZ @ 327 NONAME ; int QScriptContextInfo::functionMetaIndex(void) const
	?columnNumber@QScriptContextInfo@@QBEHXZ @ 328 NONAME ; int QScriptContextInfo::columnNumber(void) const
	??0QScriptValue@@QAE@_N@Z @ 329 NONAME ; QScriptValue::QScriptValue(bool)

