EXPORTS
	?testObject@QTest@@YAPAVQObject@@XZ @ 1 NONAME ; class QObject * QTest::testObject(void)
	?trUtf8@QTestEventLoop@@SA?AVQString@@PBD0@Z @ 2 NONAME ; class QString QTestEventLoop::trUtf8(char const *, char const *)
	?toString@QTest@@YAPADPBD@Z @ 3 NONAME ; char * QTest::toString(char const *)
	?append@QTestData@@QAEXHPBX@Z @ 4 NONAME ; void QTestData::append(int, void const *)
	?getStaticMetaObject@QTestEventLoop@@SAABUQMetaObject@@XZ @ 5 NONAME ; struct QMetaObject const & QTestEventLoop::getStaticMetaObject(void)
	?qGlobalData@QTest@@YAPAXPBDH@Z @ 6 NONAME ; void * QTest::qGlobalData(char const *, int)
	??1QTestData@@QAE@XZ @ 7 NONAME ; QTestData::~QTestData(void)
	??1QTestEventLoop@@UAE@XZ @ 8 NONAME ; QTestEventLoop::~QTestEventLoop(void)
	?qExec@QTest@@YAHPAVQObject@@ABVQStringList@@@Z @ 9 NONAME ; int QTest::qExec(class QObject *, class QStringList const &)
	?currentDataTag@QTest@@YAPBDXZ @ 10 NONAME ; char const * QTest::currentDataTag(void)
	??0QBenchmarkIterationController@QTest@@QAE@XZ @ 11 NONAME ; QTest::QBenchmarkIterationController::QBenchmarkIterationController(void)
	??0QBenchmarkIterationController@QTest@@QAE@W4RunMode@01@@Z @ 12 NONAME ; QTest::QBenchmarkIterationController::QBenchmarkIterationController(enum QTest::QBenchmarkIterationController::RunMode)
	?newRow@QTest@@YAAAVQTestData@@PBD@Z @ 13 NONAME ; class QTestData & QTest::newRow(char const *)
	?compare_helper@QTest@@YA_N_NPBD1H@Z @ 14 NONAME ; bool QTest::compare_helper(bool, char const *, char const *, int)
	?isDone@QBenchmarkIterationController@QTest@@QAE_NXZ @ 15 NONAME ; bool QTest::QBenchmarkIterationController::isDone(void)
	?qCompare@?$@N@QTest@@YA_NABN0PBD11H@Z @ 16 NONAME ; bool QTest::qCompare<double>(double const &, double const &, char const *, char const *, char const *, int)
	?changeInterval@QTestEventLoop@@QAEXH@Z @ 17 NONAME ; void QTestEventLoop::changeInterval(int)
	??_EQTestEventLoop@@UAE@I@Z @ 18 NONAME ; QTestEventLoop::~QTestEventLoop(unsigned int)
	?keyToAscii@QTest@@YADW4Key@Qt@@@Z @ 19 NONAME ; char QTest::keyToAscii(enum Qt::Key)
	?toString@?$@_J@QTest@@YAPADAB_J@Z @ 20 NONAME ; char * QTest::toString<long long>(long long const &)
	?beginBenchmarkMeasurement@QTest@@YAXXZ @ 21 NONAME ; void QTest::beginBenchmarkMeasurement(void)
	?toString@?$@H@QTest@@YAPADABH@Z @ 22 NONAME ; char * QTest::toString<int>(int const &)
	?toString@?$@K@QTest@@YAPADABK@Z @ 23 NONAME ; char * QTest::toString<unsigned long>(unsigned long const &)
	?toString@?$@N@QTest@@YAPADABN@Z @ 24 NONAME ; char * QTest::toString<double>(double const &)
	?qExec@QTest@@YAHPAVQObject@@HPAPAD@Z @ 25 NONAME ; int QTest::qExec(class QObject *, int, char * *)
	?exitLoop@QTestEventLoop@@QAEXXZ @ 26 NONAME ; void QTestEventLoop::exitLoop(void)
	?currentTestFunction@QTest@@YAPBDXZ @ 27 NONAME ; char const * QTest::currentTestFunction(void)
	??0QTestData@@AAE@PBDPAVQTestTable@@@Z @ 28 NONAME ; QTestData::QTestData(char const *, class QTestTable *)
	?addColumnInternal@QTest@@YAXHPBD@Z @ 29 NONAME ; void QTest::addColumnInternal(int, char const *)
	?trUtf8@QTestEventLoop@@SA?AVQString@@PBD0H@Z @ 30 NONAME ; class QString QTestEventLoop::trUtf8(char const *, char const *, int)
	?parent@QTestData@@QBEPAVQTestTable@@XZ @ 31 NONAME ; class QTestTable * QTestData::parent(void) const
	?dataCount@QTestData@@QBEHXZ @ 32 NONAME ; int QTestData::dataCount(void) const
	?qVerify@QTest@@YA_N_NPBD11H@Z @ 33 NONAME ; bool QTest::qVerify(bool, char const *, char const *, char const *, int)
	?next@QBenchmarkIterationController@QTest@@QAEXXZ @ 34 NONAME ; void QTest::QBenchmarkIterationController::next(void)
	?tr@QTestEventLoop@@SA?AVQString@@PBD0H@Z @ 35 NONAME ; class QString QTestEventLoop::tr(char const *, char const *, int)
	?qWarn@QTest@@YAXPBD@Z @ 36 NONAME ; void QTest::qWarn(char const *)
	?defaultMouseDelay@QTest@@YAHXZ @ 37 NONAME ; int QTest::defaultMouseDelay(void)
	?timeout@QTestEventLoop@@QBE_NXZ @ 38 NONAME ; bool QTestEventLoop::timeout(void) const
	?data@QTestData@@QBEPAXH@Z @ 39 NONAME ; void * QTestData::data(int) const
	?enterLoop@QTestEventLoop@@QAEXH@Z @ 40 NONAME ; void QTestEventLoop::enterLoop(int)
	?asciiToKey@QTest@@YA?AW4Key@Qt@@D@Z @ 41 NONAME ; enum Qt::Key QTest::asciiToKey(char)
	?toString@QTest@@YAPADPBX@Z @ 42 NONAME ; char * QTest::toString(void const *)
	?compare_string_helper@QTest@@YA_NPBD0000H@Z @ 43 NONAME ; bool QTest::compare_string_helper(char const *, char const *, char const *, char const *, char const *, int)
	?qt_metacall@QTestEventLoop@@UAEHW4Call@QMetaObject@@HPAPAX@Z @ 44 NONAME ; int QTestEventLoop::qt_metacall(enum QMetaObject::Call, int, void * *)
	?qElementData@QTest@@YAPAXPBDH@Z @ 45 NONAME ; void * QTest::qElementData(char const *, int)
	?compare_helper@QTest@@YA_N_NPBDPAD2111H@Z @ 46 NONAME ; bool QTest::compare_helper(bool, char const *, char *, char *, char const *, char const *, char const *, int)
	?qt_metacast@QTestEventLoop@@UAEPAXPBD@Z @ 47 NONAME ; void * QTestEventLoop::qt_metacast(char const *)
	?defaultKeyVerbose@QTest@@YA_NXZ @ 48 NONAME ; bool QTest::defaultKeyVerbose(void)
	?qSkip@QTest@@YAXPBDW4SkipMode@1@0H@Z @ 49 NONAME ; void QTest::qSkip(char const *, enum QTest::SkipMode, char const *, int)
	?toString@?$@D@QTest@@YAPADABD@Z @ 50 NONAME ; char * QTest::toString<char>(char const &)
	?toString@?$@G@QTest@@YAPADABG@Z @ 51 NONAME ; char * QTest::toString<unsigned short>(unsigned short const &)
	?toString@?$@J@QTest@@YAPADABJ@Z @ 52 NONAME ; char * QTest::toString<long>(long const &)
	?tr@QTestEventLoop@@SA?AVQString@@PBD0@Z @ 53 NONAME ; class QString QTestEventLoop::tr(char const *, char const *)
	?timerEvent@QTestEventLoop@@MAEXPAVQTimerEvent@@@Z @ 54 NONAME ; void QTestEventLoop::timerEvent(class QTimerEvent *)
	?toString@?$@M@QTest@@YAPADABM@Z @ 55 NONAME ; char * QTest::toString<float>(float const &)
	?metaObject@QTestEventLoop@@UBEPBUQMetaObject@@XZ @ 56 NONAME ; struct QMetaObject const * QTestEventLoop::metaObject(void) const
	?instance@QTestEventLoop@@SAAAV1@XZ @ 57 NONAME ; class QTestEventLoop & QTestEventLoop::instance(void)
	?toString@?$@_K@QTest@@YAPADAB_K@Z @ 58 NONAME ; char * QTest::toString<unsigned long long>(unsigned long long const &)
	??_EQTestData@@QAE@I@Z @ 59 NONAME ; QTestData::~QTestData(unsigned int)
	?qCompare@?$@M@QTest@@YA_NABM0PBD11H@Z @ 60 NONAME ; bool QTest::qCompare<float>(float const &, float const &, char const *, char const *, char const *, int)
	?toHexRepresentation@QTest@@YAPADPBDH@Z @ 61 NONAME ; char * QTest::toHexRepresentation(char const *, int)
	?qt_snprintf@QTest@@YAHPADHPBDZZ @ 62 NONAME ; int QTest::qt_snprintf(char *, int, char const *, ...)
	?qData@QTest@@YAPAXPBDH@Z @ 63 NONAME ; void * QTest::qData(char const *, int)
	?defaultKeyDelay@QTest@@YAHXZ @ 64 NONAME ; int QTest::defaultKeyDelay(void)
	??0QTestEventLoop@@QAE@PAVQObject@@@Z @ 65 NONAME ; QTestEventLoop::QTestEventLoop(class QObject *)
	?ignoreMessage@QTest@@YAXW4QtMsgType@@PBD@Z @ 66 NONAME ; void QTest::ignoreMessage(enum QtMsgType, char const *)
	?endBenchmarkMeasurement@QTest@@YA_JXZ @ 67 NONAME ; long long QTest::endBenchmarkMeasurement(void)
	?qSleep@QTest@@YAXH@Z @ 68 NONAME ; void QTest::qSleep(int)
	?staticMetaObject@QTestEventLoop@@2UQMetaObject@@B @ 69 NONAME ; struct QMetaObject const QTestEventLoop::staticMetaObject
	?toString@?$@F@QTest@@YAPADABF@Z @ 70 NONAME ; char * QTest::toString<short>(short const &)
	?toString@?$@I@QTest@@YAPADABI@Z @ 71 NONAME ; char * QTest::toString<unsigned int>(unsigned int const &)
	?dataTag@QTestData@@QBEPBDXZ @ 72 NONAME ; char const * QTestData::dataTag(void) const
	?qExpectFail@QTest@@YA_NPBD0W4TestFailMode@1@0H@Z @ 73 NONAME ; bool QTest::qExpectFail(char const *, char const *, enum QTest::TestFailMode, char const *, int)
	?toString@?$@_N@QTest@@YAPADAB_N@Z @ 74 NONAME ; char * QTest::toString<bool>(bool const &)
	?currentTestFailed@QTest@@YA_NXZ @ 75 NONAME ; bool QTest::currentTestFailed(void)
	??1QBenchmarkIterationController@QTest@@QAE@XZ @ 76 NONAME ; QTest::QBenchmarkIterationController::~QBenchmarkIterationController(void)
	?qFail@QTest@@YAXPBD0H@Z @ 77 NONAME ; void QTest::qFail(char const *, char const *, int)

