EXPORTS
	_ZN6Phonon10SeekSlider11qt_metacallEN11QMetaObject4CallEiPPv @ 1 NONAME
	_ZN6Phonon10SeekSlider11qt_metacastEPKc @ 2 NONAME
	_ZN6Phonon10SeekSlider11setIconSizeERK5QSize @ 3 NONAME
	_ZN6Phonon10SeekSlider11setPageStepEi @ 4 NONAME
	_ZN6Phonon10SeekSlider11setTrackingEb @ 5 NONAME
	_ZN6Phonon10SeekSlider13setSingleStepEi @ 6 NONAME
	_ZN6Phonon10SeekSlider14setIconVisibleEb @ 7 NONAME
	_ZN6Phonon10SeekSlider14setMediaObjectEPNS_11MediaObjectE @ 8 NONAME
	_ZN6Phonon10SeekSlider14setOrientationEN2Qt11OrientationE @ 9 NONAME
	_ZN6Phonon10SeekSlider16staticMetaObjectE @ 10 NONAME DATA 16
	_ZN6Phonon10SeekSliderC1EP7QWidget @ 11 NONAME
	_ZN6Phonon10SeekSliderC1EPNS_11MediaObjectEP7QWidget @ 12 NONAME
	_ZN6Phonon10SeekSliderC2EP7QWidget @ 13 NONAME
	_ZN6Phonon10SeekSliderC2EPNS_11MediaObjectEP7QWidget @ 14 NONAME
	_ZN6Phonon10SeekSliderD0Ev @ 15 NONAME
	_ZN6Phonon10SeekSliderD1Ev @ 16 NONAME
	_ZN6Phonon10SeekSliderD2Ev @ 17 NONAME
	_ZN6Phonon10createPathEPNS_9MediaNodeES1_ @ 18 NONAME
	_ZN6Phonon11AudioOutput11qt_metacallEN11QMetaObject4CallEiPPv @ 19 NONAME
	_ZN6Phonon11AudioOutput11qt_metacastEPKc @ 20 NONAME
	_ZN6Phonon11AudioOutput12mutedChangedEb @ 21 NONAME
	_ZN6Phonon11AudioOutput13volumeChangedEf @ 22 NONAME
	_ZN6Phonon11AudioOutput15setOutputDeviceERKNS_17ObjectDescriptionILNS_21ObjectDescriptionTypeE0EEE @ 23 NONAME
	_ZN6Phonon11AudioOutput16setVolumeDecibelEf @ 24 NONAME
	_ZN6Phonon11AudioOutput16staticMetaObjectE @ 25 NONAME DATA 16
	_ZN6Phonon11AudioOutput19outputDeviceChangedERKNS_17ObjectDescriptionILNS_21ObjectDescriptionTypeE0EEE @ 26 NONAME
	_ZN6Phonon11AudioOutput7setNameERK7QString @ 27 NONAME
	_ZN6Phonon11AudioOutput8setMutedEb @ 28 NONAME
	_ZN6Phonon11AudioOutput9setVolumeEf @ 29 NONAME
	_ZN6Phonon11AudioOutputC1ENS_8CategoryEP7QObject @ 30 NONAME
	_ZN6Phonon11AudioOutputC1EP7QObject @ 31 NONAME
	_ZN6Phonon11AudioOutputC2ENS_8CategoryEP7QObject @ 32 NONAME
	_ZN6Phonon11AudioOutputC2EP7QObject @ 33 NONAME
	_ZN6Phonon11MediaObject10clearQueueEv @ 34 NONAME
	_ZN6Phonon11MediaObject11qt_metacallEN11QMetaObject4CallEiPPv @ 35 NONAME
	_ZN6Phonon11MediaObject11qt_metacastEPKc @ 36 NONAME
	_ZN6Phonon11MediaObject12bufferStatusEi @ 37 NONAME
	_ZN6Phonon11MediaObject12stateChangedENS_5StateES1_ @ 38 NONAME
	_ZN6Phonon11MediaObject13aboutToFinishEv @ 39 NONAME
	_ZN6Phonon11MediaObject15hasVideoChangedEb @ 40 NONAME
	_ZN6Phonon11MediaObject15metaDataChangedEv @ 41 NONAME
	_ZN6Phonon11MediaObject15seekableChangedEb @ 42 NONAME
	_ZN6Phonon11MediaObject15setTickIntervalEi @ 43 NONAME
	_ZN6Phonon11MediaObject16setCurrentSourceERKNS_11MediaSourceE @ 44 NONAME
	_ZN6Phonon11MediaObject16setPrefinishMarkEi @ 45 NONAME
	_ZN6Phonon11MediaObject16staticMetaObjectE @ 46 NONAME DATA 16
	_ZN6Phonon11MediaObject16totalTimeChangedEx @ 47 NONAME
	_ZN6Phonon11MediaObject17setTransitionTimeEi @ 48 NONAME
	_ZN6Phonon11MediaObject20currentSourceChangedERKNS_11MediaSourceE @ 49 NONAME
	_ZN6Phonon11MediaObject20prefinishMarkReachedEi @ 50 NONAME
	_ZN6Phonon11MediaObject4playEv @ 51 NONAME
	_ZN6Phonon11MediaObject4seekEx @ 52 NONAME
	_ZN6Phonon11MediaObject4stopEv @ 53 NONAME
	_ZN6Phonon11MediaObject4tickEx @ 54 NONAME
	_ZN6Phonon11MediaObject5clearEv @ 55 NONAME
	_ZN6Phonon11MediaObject5pauseEv @ 56 NONAME
	_ZN6Phonon11MediaObject7enqueueERK5QListI4QUrlE @ 57 NONAME
	_ZN6Phonon11MediaObject7enqueueERK5QListINS_11MediaSourceEE @ 58 NONAME
	_ZN6Phonon11MediaObject7enqueueERKNS_11MediaSourceE @ 59 NONAME
	_ZN6Phonon11MediaObject8finishedEv @ 60 NONAME
	_ZN6Phonon11MediaObject8setQueueERK5QListI4QUrlE @ 61 NONAME
	_ZN6Phonon11MediaObject8setQueueERK5QListINS_11MediaSourceEE @ 62 NONAME
	_ZN6Phonon11MediaObjectC1EP7QObject @ 63 NONAME
	_ZN6Phonon11MediaObjectC2EP7QObject @ 64 NONAME
	_ZN6Phonon11MediaObjectD0Ev @ 65 NONAME
	_ZN6Phonon11MediaObjectD1Ev @ 66 NONAME
	_ZN6Phonon11MediaObjectD2Ev @ 67 NONAME
	_ZN6Phonon11MediaSource13setAutoDeleteEb @ 68 NONAME
	_ZN6Phonon11MediaSourceC1ENS_8DiscTypeERK7QString @ 69 NONAME
	_ZN6Phonon11MediaSourceC1EP9QIODevice @ 70 NONAME
	_ZN6Phonon11MediaSourceC1EPNS_19AbstractMediaStreamE @ 71 NONAME
	_ZN6Phonon11MediaSourceC1ERK4QUrl @ 72 NONAME
	_ZN6Phonon11MediaSourceC1ERK7QString @ 73 NONAME
	_ZN6Phonon11MediaSourceC1ERKS0_ @ 74 NONAME
	_ZN6Phonon11MediaSourceC1ERNS_18MediaSourcePrivateE @ 75 NONAME
	_ZN6Phonon11MediaSourceC1Ev @ 76 NONAME
	_ZN6Phonon11MediaSourceC2ENS_8DiscTypeERK7QString @ 77 NONAME
	_ZN6Phonon11MediaSourceC2EP9QIODevice @ 78 NONAME
	_ZN6Phonon11MediaSourceC2EPNS_19AbstractMediaStreamE @ 79 NONAME
	_ZN6Phonon11MediaSourceC2ERK4QUrl @ 80 NONAME
	_ZN6Phonon11MediaSourceC2ERK7QString @ 81 NONAME
	_ZN6Phonon11MediaSourceC2ERKS0_ @ 82 NONAME
	_ZN6Phonon11MediaSourceC2ERNS_18MediaSourcePrivateE @ 83 NONAME
	_ZN6Phonon11MediaSourceC2Ev @ 84 NONAME
	_ZN6Phonon11MediaSourceD1Ev @ 85 NONAME
	_ZN6Phonon11MediaSourceD2Ev @ 86 NONAME
	_ZN6Phonon11MediaSourceaSERKS0_ @ 87 NONAME
	_ZN6Phonon11VideoPlayer11qt_metacallEN11QMetaObject4CallEiPPv @ 88 NONAME
	_ZN6Phonon11VideoPlayer11qt_metacastEPKc @ 89 NONAME
	_ZN6Phonon11VideoPlayer16staticMetaObjectE @ 90 NONAME DATA 16
	_ZN6Phonon11VideoPlayer4loadERKNS_11MediaSourceE @ 91 NONAME
	_ZN6Phonon11VideoPlayer4playERKNS_11MediaSourceE @ 92 NONAME
	_ZN6Phonon11VideoPlayer4playEv @ 93 NONAME
	_ZN6Phonon11VideoPlayer4seekEx @ 94 NONAME
	_ZN6Phonon11VideoPlayer4stopEv @ 95 NONAME
	_ZN6Phonon11VideoPlayer5pauseEv @ 96 NONAME
	_ZN6Phonon11VideoPlayer8finishedEv @ 97 NONAME
	_ZN6Phonon11VideoPlayer9setVolumeEf @ 98 NONAME
	_ZN6Phonon11VideoPlayerC1ENS_8CategoryEP7QWidget @ 99 NONAME
	_ZN6Phonon11VideoPlayerC1EP7QWidget @ 100 NONAME
	_ZN6Phonon11VideoPlayerC2ENS_8CategoryEP7QWidget @ 101 NONAME
	_ZN6Phonon11VideoPlayerC2EP7QWidget @ 102 NONAME
	_ZN6Phonon11VideoPlayerD0Ev @ 103 NONAME
	_ZN6Phonon11VideoPlayerD1Ev @ 104 NONAME
	_ZN6Phonon11VideoPlayerD2Ev @ 105 NONAME
	_ZN6Phonon11VideoWidget11qt_metacallEN11QMetaObject4CallEiPPv @ 106 NONAME
	_ZN6Phonon11VideoWidget11qt_metacastEPKc @ 107 NONAME
	_ZN6Phonon11VideoWidget11setContrastEf @ 108 NONAME
	_ZN6Phonon11VideoWidget12setScaleModeENS0_9ScaleModeE @ 109 NONAME
	_ZN6Phonon11VideoWidget13setBrightnessEf @ 110 NONAME
	_ZN6Phonon11VideoWidget13setFullScreenEb @ 111 NONAME
	_ZN6Phonon11VideoWidget13setSaturationEf @ 112 NONAME
	_ZN6Phonon11VideoWidget14exitFullScreenEv @ 113 NONAME
	_ZN6Phonon11VideoWidget14mouseMoveEventEP11QMouseEvent @ 114 NONAME
	_ZN6Phonon11VideoWidget14setAspectRatioENS0_11AspectRatioE @ 115 NONAME
	_ZN6Phonon11VideoWidget15enterFullScreenEv @ 116 NONAME
	_ZN6Phonon11VideoWidget16staticMetaObjectE @ 117 NONAME DATA 16
	_ZN6Phonon11VideoWidget5eventEP6QEvent @ 118 NONAME
	_ZN6Phonon11VideoWidget6setHueEf @ 119 NONAME
	_ZN6Phonon11VideoWidgetC1EP7QWidget @ 120 NONAME
	_ZN6Phonon11VideoWidgetC1ERNS_18VideoWidgetPrivateEP7QWidget @ 121 NONAME
	_ZN6Phonon11VideoWidgetC2EP7QWidget @ 122 NONAME
	_ZN6Phonon11VideoWidgetC2ERNS_18VideoWidgetPrivateEP7QWidget @ 123 NONAME
	_ZN6Phonon12EffectWidget11qt_metacallEN11QMetaObject4CallEiPPv @ 124 NONAME
	_ZN6Phonon12EffectWidget11qt_metacastEPKc @ 125 NONAME
	_ZN6Phonon12EffectWidget16staticMetaObjectE @ 126 NONAME DATA 16
	_ZN6Phonon12EffectWidgetC1EPNS_6EffectEP7QWidget @ 127 NONAME
	_ZN6Phonon12EffectWidgetC2EPNS_6EffectEP7QWidget @ 128 NONAME
	_ZN6Phonon12EffectWidgetD0Ev @ 129 NONAME
	_ZN6Phonon12EffectWidgetD1Ev @ 130 NONAME
	_ZN6Phonon12EffectWidgetD2Ev @ 131 NONAME
	_ZN6Phonon12GlobalConfigC1Ev @ 132 NONAME
	_ZN6Phonon12GlobalConfigC2Ev @ 133 NONAME
	_ZN6Phonon12GlobalConfigD0Ev @ 134 NONAME
	_ZN6Phonon12GlobalConfigD1Ev @ 135 NONAME
	_ZN6Phonon12GlobalConfigD2Ev @ 136 NONAME
	_ZN6Phonon12VolumeSlider11qt_metacallEN11QMetaObject4CallEiPPv @ 137 NONAME
	_ZN6Phonon12VolumeSlider11qt_metacastEPKc @ 138 NONAME
	_ZN6Phonon12VolumeSlider11setIconSizeERK5QSize @ 139 NONAME
	_ZN6Phonon12VolumeSlider11setPageStepEi @ 140 NONAME
	_ZN6Phonon12VolumeSlider11setTrackingEb @ 141 NONAME
	_ZN6Phonon12VolumeSlider13setSingleStepEi @ 142 NONAME
	_ZN6Phonon12VolumeSlider14setAudioOutputEPNS_11AudioOutputE @ 143 NONAME
	_ZN6Phonon12VolumeSlider14setMuteVisibleEb @ 144 NONAME
	_ZN6Phonon12VolumeSlider14setOrientationEN2Qt11OrientationE @ 145 NONAME
	_ZN6Phonon12VolumeSlider16setMaximumVolumeEf @ 146 NONAME
	_ZN6Phonon12VolumeSlider16staticMetaObjectE @ 147 NONAME DATA 16
	_ZN6Phonon12VolumeSliderC1EP7QWidget @ 148 NONAME
	_ZN6Phonon12VolumeSliderC1EPNS_11AudioOutputEP7QWidget @ 149 NONAME
	_ZN6Phonon12VolumeSliderC2EP7QWidget @ 150 NONAME
	_ZN6Phonon12VolumeSliderC2EPNS_11AudioOutputEP7QWidget @ 151 NONAME
	_ZN6Phonon12VolumeSliderD0Ev @ 152 NONAME
	_ZN6Phonon12VolumeSliderD1Ev @ 153 NONAME
	_ZN6Phonon12VolumeSliderD2Ev @ 154 NONAME
	_ZN6Phonon12createPlayerENS_8CategoryERKNS_11MediaSourceE @ 155 NONAME
	_ZN6Phonon13phononVersionEv @ 156 NONAME
	_ZN6Phonon15EffectParameterC1ERKS0_ @ 157 NONAME
	_ZN6Phonon15EffectParameterC1EiRK7QString6QFlagsINS0_4HintEERK8QVariantS9_S9_RK5QListIS7_ES3_ @ 158 NONAME
	_ZN6Phonon15EffectParameterC1Ev @ 159 NONAME
	_ZN6Phonon15EffectParameterC2ERKS0_ @ 160 NONAME
	_ZN6Phonon15EffectParameterC2EiRK7QString6QFlagsINS0_4HintEERK8QVariantS9_S9_RK5QListIS7_ES3_ @ 161 NONAME
	_ZN6Phonon15EffectParameterC2Ev @ 162 NONAME
	_ZN6Phonon15EffectParameterD1Ev @ 163 NONAME
	_ZN6Phonon15EffectParameterD2Ev @ 164 NONAME
	_ZN6Phonon15EffectParameteraSERKS0_ @ 165 NONAME
	_ZN6Phonon15MediaController11qt_metacallEN11QMetaObject4CallEiPPv @ 166 NONAME
	_ZN6Phonon15MediaController11qt_metacastEPKc @ 167 NONAME
	_ZN6Phonon15MediaController12angleChangedEi @ 168 NONAME
	_ZN6Phonon15MediaController12titleChangedEi @ 169 NONAME
	_ZN6Phonon15MediaController13previousTitleEv @ 170 NONAME
	_ZN6Phonon15MediaController14chapterChangedEi @ 171 NONAME
	_ZN6Phonon15MediaController15setCurrentAngleEi @ 172 NONAME
	_ZN6Phonon15MediaController15setCurrentTitleEi @ 173 NONAME
	_ZN6Phonon15MediaController16staticMetaObjectE @ 174 NONAME DATA 16
	_ZN6Phonon15MediaController17setAutoplayTitlesEb @ 175 NONAME
	_ZN6Phonon15MediaController17setCurrentChapterEi @ 176 NONAME
	_ZN6Phonon15MediaController18setCurrentSubtitleERKNS_17ObjectDescriptionILNS_21ObjectDescriptionTypeE3EEE @ 177 NONAME
	_ZN6Phonon15MediaController22availableAnglesChangedEi @ 178 NONAME
	_ZN6Phonon15MediaController22availableTitlesChangedEi @ 179 NONAME
	_ZN6Phonon15MediaController22setCurrentAudioChannelERKNS_17ObjectDescriptionILNS_21ObjectDescriptionTypeE2EEE @ 180 NONAME
	_ZN6Phonon15MediaController24availableChaptersChangedEi @ 181 NONAME
	_ZN6Phonon15MediaController25availableSubtitlesChangedEv @ 182 NONAME
	_ZN6Phonon15MediaController29availableAudioChannelsChangedEv @ 183 NONAME
	_ZN6Phonon15MediaController9nextTitleEv @ 184 NONAME
	_ZN6Phonon15MediaControllerC1EPNS_11MediaObjectE @ 185 NONAME
	_ZN6Phonon15MediaControllerC2EPNS_11MediaObjectE @ 186 NONAME
	_ZN6Phonon15MediaControllerD0Ev @ 187 NONAME
	_ZN6Phonon15MediaControllerD1Ev @ 188 NONAME
	_ZN6Phonon15MediaControllerD2Ev @ 189 NONAME
	_ZN6Phonon15StreamInterface10enoughDataEv @ 190 NONAME
	_ZN6Phonon15StreamInterface10seekStreamEx @ 191 NONAME
	_ZN6Phonon15StreamInterface15connectToSourceERKNS_11MediaSourceE @ 192 NONAME
	_ZN6Phonon15StreamInterface5resetEv @ 193 NONAME
	_ZN6Phonon15StreamInterface8needDataEv @ 194 NONAME
	_ZN6Phonon15StreamInterfaceC2Ev @ 195 NONAME
	_ZN6Phonon15StreamInterfaceD0Ev @ 196 NONAME
	_ZN6Phonon15StreamInterfaceD1Ev @ 197 NONAME
	_ZN6Phonon15StreamInterfaceD2Ev @ 198 NONAME
	_ZN6Phonon16MediaNodePrivate12addInputPathERKNS_4PathE @ 199 NONAME
	_ZN6Phonon16MediaNodePrivate13addOutputPathERKNS_4PathE @ 200 NONAME
	_ZN6Phonon16MediaNodePrivate13backendObjectEv @ 201 NONAME
	_ZN6Phonon16MediaNodePrivate15removeInputPathERKNS_4PathE @ 202 NONAME
	_ZN6Phonon16MediaNodePrivate16removeOutputPathERKNS_4PathE @ 203 NONAME
	_ZN6Phonon16MediaNodePrivate19deleteBackendObjectEv @ 204 NONAME
	_ZN6Phonon16MediaNodePrivate21addDestructionHandlerEPNS_27MediaNodeDestructionHandlerE @ 205 NONAME
	_ZN6Phonon16MediaNodePrivate24removeDestructionHandlerEPNS_27MediaNodeDestructionHandlerE @ 206 NONAME
	_ZN6Phonon16MediaNodePrivateC2ENS0_6CastIdE @ 207 NONAME
	_ZN6Phonon16MediaNodePrivateD0Ev @ 208 NONAME
	_ZN6Phonon16MediaNodePrivateD1Ev @ 209 NONAME
	_ZN6Phonon16MediaNodePrivateD2Ev @ 210 NONAME
	_ZN6Phonon16categoryToStringENS_8CategoryE @ 211 NONAME
	_ZN6Phonon17VolumeFaderEffect11qt_metacallEN11QMetaObject4CallEiPPv @ 212 NONAME
	_ZN6Phonon17VolumeFaderEffect11qt_metacastEPKc @ 213 NONAME
	_ZN6Phonon17VolumeFaderEffect12setFadeCurveENS0_9FadeCurveE @ 214 NONAME
	_ZN6Phonon17VolumeFaderEffect16setVolumeDecibelEd @ 215 NONAME
	_ZN6Phonon17VolumeFaderEffect16staticMetaObjectE @ 216 NONAME DATA 16
	_ZN6Phonon17VolumeFaderEffect6fadeInEi @ 217 NONAME
	_ZN6Phonon17VolumeFaderEffect6fadeToEfi @ 218 NONAME
	_ZN6Phonon17VolumeFaderEffect7fadeOutEi @ 219 NONAME
	_ZN6Phonon17VolumeFaderEffect9setVolumeEf @ 220 NONAME
	_ZN6Phonon17VolumeFaderEffectC1EP7QObject @ 221 NONAME
	_ZN6Phonon17VolumeFaderEffectC2EP7QObject @ 222 NONAME
	_ZN6Phonon18MediaObjectPrivate15_k_stateChangedENS_5StateES1_ @ 223 NONAME
	_ZN6Phonon18MediaObjectPrivate18setupBackendObjectEv @ 224 NONAME
	_ZN6Phonon18MediaSourcePrivate9setStreamEPNS_19AbstractMediaStreamE @ 225 NONAME
	_ZN6Phonon18MediaSourcePrivateD0Ev @ 226 NONAME
	_ZN6Phonon18MediaSourcePrivateD1Ev @ 227 NONAME
	_ZN6Phonon18MediaSourcePrivateD2Ev @ 228 NONAME
	_ZN6Phonon19AbstractAudioOutput11qt_metacallEN11QMetaObject4CallEiPPv @ 229 NONAME
	_ZN6Phonon19AbstractAudioOutput11qt_metacastEPKc @ 230 NONAME
	_ZN6Phonon19AbstractAudioOutput16staticMetaObjectE @ 231 NONAME DATA 16
	_ZN6Phonon19AbstractAudioOutputC1ERNS_26AbstractAudioOutputPrivateEP7QObject @ 232 NONAME
	_ZN6Phonon19AbstractAudioOutputC2ERNS_26AbstractAudioOutputPrivateEP7QObject @ 233 NONAME
	_ZN6Phonon19AbstractAudioOutputD0Ev @ 234 NONAME
	_ZN6Phonon19AbstractAudioOutputD1Ev @ 235 NONAME
	_ZN6Phonon19AbstractAudioOutputD2Ev @ 236 NONAME
	_ZN6Phonon19AbstractMediaStream10enoughDataEv @ 237 NONAME
	_ZN6Phonon19AbstractMediaStream10seekStreamEx @ 238 NONAME
	_ZN6Phonon19AbstractMediaStream11qt_metacallEN11QMetaObject4CallEiPPv @ 239 NONAME
	_ZN6Phonon19AbstractMediaStream11qt_metacastEPKc @ 240 NONAME
	_ZN6Phonon19AbstractMediaStream13setStreamSizeEx @ 241 NONAME
	_ZN6Phonon19AbstractMediaStream16staticMetaObjectE @ 242 NONAME DATA 16
	_ZN6Phonon19AbstractMediaStream17setStreamSeekableEb @ 243 NONAME
	_ZN6Phonon19AbstractMediaStream5errorENS_9ErrorTypeERK7QString @ 244 NONAME
	_ZN6Phonon19AbstractMediaStream9endOfDataEv @ 245 NONAME
	_ZN6Phonon19AbstractMediaStream9writeDataERK10QByteArray @ 246 NONAME
	_ZN6Phonon19AbstractMediaStreamC2EP7QObject @ 247 NONAME
	_ZN6Phonon19AbstractMediaStreamC2ERNS_26AbstractMediaStreamPrivateEP7QObject @ 248 NONAME
	_ZN6Phonon19AbstractMediaStreamD0Ev @ 249 NONAME
	_ZN6Phonon19AbstractMediaStreamD1Ev @ 250 NONAME
	_ZN6Phonon19AbstractMediaStreamD2Ev @ 251 NONAME
	_ZN6Phonon19AbstractVideoOutputC1ERNS_26AbstractVideoOutputPrivateE @ 252 NONAME
	_ZN6Phonon19AbstractVideoOutputC2ERNS_26AbstractVideoOutputPrivateE @ 253 NONAME
	_ZN6Phonon19BackendCapabilities18availableMimeTypesEv @ 254 NONAME
	_ZN6Phonon19BackendCapabilities19isMimeTypeAvailableERK7QString @ 255 NONAME
	_ZN6Phonon19BackendCapabilities21availableAudioEffectsEv @ 256 NONAME
	_ZN6Phonon19BackendCapabilities27availableAudioOutputDevicesEv @ 257 NONAME
	_ZN6Phonon19BackendCapabilities28availableAudioCaptureDevicesEv @ 258 NONAME
	_ZN6Phonon19BackendCapabilities8notifierEv @ 259 NONAME
	_ZN6Phonon21ObjectDescriptionData9fromIndexENS_21ObjectDescriptionTypeEi @ 260 NONAME
	_ZN6Phonon21ObjectDescriptionDataC1EPNS_24ObjectDescriptionPrivateE @ 261 NONAME
	_ZN6Phonon21ObjectDescriptionDataC1EiRK5QHashI10QByteArray8QVariantE @ 262 NONAME
	_ZN6Phonon21ObjectDescriptionDataC2EPNS_24ObjectDescriptionPrivateE @ 263 NONAME
	_ZN6Phonon21ObjectDescriptionDataC2EiRK5QHashI10QByteArray8QVariantE @ 264 NONAME
	_ZN6Phonon21ObjectDescriptionDataD1Ev @ 265 NONAME
	_ZN6Phonon21ObjectDescriptionDataD2Ev @ 266 NONAME
	_ZN6Phonon22ObjectDescriptionModelILNS_21ObjectDescriptionTypeE0EE11qt_metacastEPKc @ 267 NONAME
	_ZN6Phonon22ObjectDescriptionModelILNS_21ObjectDescriptionTypeE0EE16staticMetaObjectE @ 268 NONAME DATA 16
	_ZN6Phonon22ObjectDescriptionModelILNS_21ObjectDescriptionTypeE1EE11qt_metacastEPKc @ 269 NONAME
	_ZN6Phonon22ObjectDescriptionModelILNS_21ObjectDescriptionTypeE1EE16staticMetaObjectE @ 270 NONAME DATA 16
	_ZN6Phonon22ObjectDescriptionModelILNS_21ObjectDescriptionTypeE2EE11qt_metacastEPKc @ 271 NONAME
	_ZN6Phonon22ObjectDescriptionModelILNS_21ObjectDescriptionTypeE2EE16staticMetaObjectE @ 272 NONAME DATA 16
	_ZN6Phonon22ObjectDescriptionModelILNS_21ObjectDescriptionTypeE3EE11qt_metacastEPKc @ 273 NONAME
	_ZN6Phonon22ObjectDescriptionModelILNS_21ObjectDescriptionTypeE3EE16staticMetaObjectE @ 274 NONAME DATA 16
	_ZN6Phonon22ObjectDescriptionModelILNS_21ObjectDescriptionTypeE4EE11qt_metacastEPKc @ 275 NONAME
	_ZN6Phonon22ObjectDescriptionModelILNS_21ObjectDescriptionTypeE4EE16staticMetaObjectE @ 276 NONAME DATA 16
	_ZN6Phonon26AbstractMediaStreamPrivate13setStreamSizeEx @ 277 NONAME
	_ZN6Phonon26AbstractMediaStreamPrivate17setStreamSeekableEb @ 278 NONAME
	_ZN6Phonon26AbstractMediaStreamPrivate18setStreamInterfaceEPNS_15StreamInterfaceE @ 279 NONAME
	_ZN6Phonon26AbstractMediaStreamPrivate21phononObjectDestroyedEPNS_16MediaNodePrivateE @ 280 NONAME
	_ZN6Phonon26AbstractMediaStreamPrivate21setMediaObjectPrivateEPNS_18MediaObjectPrivateE @ 281 NONAME
	_ZN6Phonon26AbstractMediaStreamPrivate9endOfDataEv @ 282 NONAME
	_ZN6Phonon26AbstractMediaStreamPrivate9writeDataERK10QByteArray @ 283 NONAME
	_ZN6Phonon26AbstractMediaStreamPrivateD0Ev @ 284 NONAME
	_ZN6Phonon26AbstractMediaStreamPrivateD1Ev @ 285 NONAME
	_ZN6Phonon26AbstractMediaStreamPrivateD2Ev @ 286 NONAME
	_ZN6Phonon26ObjectDescriptionModelData10removeRowsEiiRK11QModelIndex @ 287 NONAME
	_ZN6Phonon26ObjectDescriptionModelData12dropMimeDataENS_21ObjectDescriptionTypeEPK9QMimeDataN2Qt10DropActionEiiRK11QModelIndex @ 288 NONAME
	_ZN6Phonon26ObjectDescriptionModelData12setModelDataERK5QListI28QExplicitlySharedDataPointerINS_21ObjectDescriptionDataEEE @ 289 NONAME
	_ZN6Phonon26ObjectDescriptionModelData6moveUpERK11QModelIndex @ 290 NONAME
	_ZN6Phonon26ObjectDescriptionModelData8moveDownERK11QModelIndex @ 291 NONAME
	_ZN6Phonon26ObjectDescriptionModelDataC1EP18QAbstractListModel @ 292 NONAME
	_ZN6Phonon26ObjectDescriptionModelDataC2EP18QAbstractListModel @ 293 NONAME
	_ZN6Phonon26ObjectDescriptionModelDataD1Ev @ 294 NONAME
	_ZN6Phonon26ObjectDescriptionModelDataD2Ev @ 295 NONAME
	_ZN6Phonon4Path10disconnectEv @ 296 NONAME
	_ZN6Phonon4Path12insertEffectEPNS_6EffectES2_ @ 297 NONAME
	_ZN6Phonon4Path12insertEffectERKNS_17ObjectDescriptionILNS_21ObjectDescriptionTypeE1EEEPNS_6EffectE @ 298 NONAME
	_ZN6Phonon4Path12removeEffectEPNS_6EffectE @ 299 NONAME
	_ZN6Phonon4Path9reconnectEPNS_9MediaNodeES2_ @ 300 NONAME
	_ZN6Phonon4PathC1ERKS0_ @ 301 NONAME
	_ZN6Phonon4PathC1Ev @ 302 NONAME
	_ZN6Phonon4PathC2ERKS0_ @ 303 NONAME
	_ZN6Phonon4PathC2Ev @ 304 NONAME
	_ZN6Phonon4PathD1Ev @ 305 NONAME
	_ZN6Phonon4PathD2Ev @ 306 NONAME
	_ZN6Phonon4PathaSERKS0_ @ 307 NONAME
	_ZN6Phonon5qHashERKNS_15EffectParameterE @ 308 NONAME
	_ZN6Phonon6Effect11qt_metacallEN11QMetaObject4CallEiPPv @ 309 NONAME
	_ZN6Phonon6Effect11qt_metacastEPKc @ 310 NONAME
	_ZN6Phonon6Effect16staticMetaObjectE @ 311 NONAME DATA 16
	_ZN6Phonon6Effect17setParameterValueERKNS_15EffectParameterERK8QVariant @ 312 NONAME
	_ZN6Phonon6EffectC1ERKNS_17ObjectDescriptionILNS_21ObjectDescriptionTypeE1EEEP7QObject @ 313 NONAME
	_ZN6Phonon6EffectC1ERNS_13EffectPrivateEP7QObject @ 314 NONAME
	_ZN6Phonon6EffectC2ERKNS_17ObjectDescriptionILNS_21ObjectDescriptionTypeE1EEEP7QObject @ 315 NONAME
	_ZN6Phonon6EffectC2ERNS_13EffectPrivateEP7QObject @ 316 NONAME
	_ZN6Phonon6EffectD0Ev @ 317 NONAME
	_ZN6Phonon6EffectD1Ev @ 318 NONAME
	_ZN6Phonon6EffectD2Ev @ 319 NONAME
	_ZN6Phonon7Factory10setBackendEP7QObject @ 320 NONAME
	_ZN6Phonon7Factory11backendNameEv @ 321 NONAME
	_ZN6Phonon7Factory14platformPluginEv @ 322 NONAME
	_ZN6Phonon7Factory15registerQObjectEP7QObject @ 323 NONAME
	_ZN6Phonon7Factory22registerFrontendObjectEPNS_16MediaNodePrivateE @ 324 NONAME
	_ZN6Phonon7Factory24deregisterFrontendObjectEPNS_16MediaNodePrivateE @ 325 NONAME
	_ZN6Phonon7Factory6senderEv @ 326 NONAME
	_ZN6Phonon7Factory7backendEb @ 327 NONAME
	_ZN6Phonon9MediaNodeC1ERNS_16MediaNodePrivateE @ 328 NONAME
	_ZN6Phonon9MediaNodeC2ERNS_16MediaNodePrivateE @ 329 NONAME
	_ZN6Phonon9MediaNodeD0Ev @ 330 NONAME
	_ZN6Phonon9MediaNodeD1Ev @ 331 NONAME
	_ZN6Phonon9MediaNodeD2Ev @ 332 NONAME
	_ZNK6Phonon10SeekSlider10metaObjectEv @ 333 NONAME
	_ZNK6Phonon10SeekSlider10singleStepEv @ 334 NONAME
	_ZNK6Phonon10SeekSlider11hasTrackingEv @ 335 NONAME
	_ZNK6Phonon10SeekSlider11mediaObjectEv @ 336 NONAME
	_ZNK6Phonon10SeekSlider11orientationEv @ 337 NONAME
	_ZNK6Phonon10SeekSlider13isIconVisibleEv @ 338 NONAME
	_ZNK6Phonon10SeekSlider8iconSizeEv @ 339 NONAME
	_ZNK6Phonon10SeekSlider8pageStepEv @ 340 NONAME
	_ZNK6Phonon11AudioOutput10metaObjectEv @ 341 NONAME
	_ZNK6Phonon11AudioOutput12outputDeviceEv @ 342 NONAME
	_ZNK6Phonon11AudioOutput13volumeDecibelEv @ 343 NONAME
	_ZNK6Phonon11AudioOutput4nameEv @ 344 NONAME
	_ZNK6Phonon11AudioOutput6volumeEv @ 345 NONAME
	_ZNK6Phonon11AudioOutput7isMutedEv @ 346 NONAME
	_ZNK6Phonon11AudioOutput8categoryEv @ 347 NONAME
	_ZNK6Phonon11MediaObject10isSeekableEv @ 348 NONAME
	_ZNK6Phonon11MediaObject10metaObjectEv @ 349 NONAME
	_ZNK6Phonon11MediaObject11currentTimeEv @ 350 NONAME
	_ZNK6Phonon11MediaObject11errorStringEv @ 351 NONAME
	_ZNK6Phonon11MediaObject12tickIntervalEv @ 352 NONAME
	_ZNK6Phonon11MediaObject13currentSourceEv @ 353 NONAME
	_ZNK6Phonon11MediaObject13prefinishMarkEv @ 354 NONAME
	_ZNK6Phonon11MediaObject13remainingTimeEv @ 355 NONAME
	_ZNK6Phonon11MediaObject14transitionTimeEv @ 356 NONAME
	_ZNK6Phonon11MediaObject5queueEv @ 357 NONAME
	_ZNK6Phonon11MediaObject5stateEv @ 358 NONAME
	_ZNK6Phonon11MediaObject8hasVideoEv @ 359 NONAME
	_ZNK6Phonon11MediaObject8metaDataENS_8MetaDataE @ 360 NONAME
	_ZNK6Phonon11MediaObject8metaDataERK7QString @ 361 NONAME
	_ZNK6Phonon11MediaObject8metaDataEv @ 362 NONAME
	_ZNK6Phonon11MediaObject9errorTypeEv @ 363 NONAME
	_ZNK6Phonon11MediaObject9totalTimeEv @ 364 NONAME
	_ZNK6Phonon11MediaSource10autoDeleteEv @ 365 NONAME
	_ZNK6Phonon11MediaSource10deviceNameEv @ 366 NONAME
	_ZNK6Phonon11MediaSource3urlEv @ 367 NONAME
	_ZNK6Phonon11MediaSource4typeEv @ 368 NONAME
	_ZNK6Phonon11MediaSource6streamEv @ 369 NONAME
	_ZNK6Phonon11MediaSource8discTypeEv @ 370 NONAME
	_ZNK6Phonon11MediaSource8fileNameEv @ 371 NONAME
	_ZNK6Phonon11MediaSourceeqERKS0_ @ 372 NONAME
	_ZNK6Phonon11VideoPlayer10metaObjectEv @ 373 NONAME
	_ZNK6Phonon11VideoPlayer11audioOutputEv @ 374 NONAME
	_ZNK6Phonon11VideoPlayer11currentTimeEv @ 375 NONAME
	_ZNK6Phonon11VideoPlayer11mediaObjectEv @ 376 NONAME
	_ZNK6Phonon11VideoPlayer11videoWidgetEv @ 377 NONAME
	_ZNK6Phonon11VideoPlayer6volumeEv @ 378 NONAME
	_ZNK6Phonon11VideoPlayer8isPausedEv @ 379 NONAME
	_ZNK6Phonon11VideoPlayer9isPlayingEv @ 380 NONAME
	_ZNK6Phonon11VideoPlayer9totalTimeEv @ 381 NONAME
	_ZNK6Phonon11VideoWidget10brightnessEv @ 382 NONAME
	_ZNK6Phonon11VideoWidget10metaObjectEv @ 383 NONAME
	_ZNK6Phonon11VideoWidget10saturationEv @ 384 NONAME
	_ZNK6Phonon11VideoWidget11aspectRatioEv @ 385 NONAME
	_ZNK6Phonon11VideoWidget3hueEv @ 386 NONAME
	_ZNK6Phonon11VideoWidget8contrastEv @ 387 NONAME
	_ZNK6Phonon11VideoWidget9scaleModeEv @ 388 NONAME
	_ZNK6Phonon12EffectWidget10metaObjectEv @ 389 NONAME
	_ZNK6Phonon12GlobalConfig20audioOutputDeviceForENS_8CategoryEi @ 390 NONAME
	_ZNK6Phonon12GlobalConfig21audioCaptureDeviceForENS_8CategoryEi @ 391 NONAME
	_ZNK6Phonon12GlobalConfig24audioOutputDeviceListForENS_8CategoryEi @ 392 NONAME
	_ZNK6Phonon12GlobalConfig25audioCaptureDeviceListForENS_8CategoryEi @ 393 NONAME
	_ZNK6Phonon12VolumeSlider10metaObjectEv @ 394 NONAME
	_ZNK6Phonon12VolumeSlider10singleStepEv @ 395 NONAME
	_ZNK6Phonon12VolumeSlider11audioOutputEv @ 396 NONAME
	_ZNK6Phonon12VolumeSlider11hasTrackingEv @ 397 NONAME
	_ZNK6Phonon12VolumeSlider11orientationEv @ 398 NONAME
	_ZNK6Phonon12VolumeSlider13isMuteVisibleEv @ 399 NONAME
	_ZNK6Phonon12VolumeSlider13maximumVolumeEv @ 400 NONAME
	_ZNK6Phonon12VolumeSlider8iconSizeEv @ 401 NONAME
	_ZNK6Phonon12VolumeSlider8pageStepEv @ 402 NONAME
	_ZNK6Phonon15EffectParameter11descriptionEv @ 403 NONAME
	_ZNK6Phonon15EffectParameter12defaultValueEv @ 404 NONAME
	_ZNK6Phonon15EffectParameter12maximumValueEv @ 405 NONAME
	_ZNK6Phonon15EffectParameter12minimumValueEv @ 406 NONAME
	_ZNK6Phonon15EffectParameter14possibleValuesEv @ 407 NONAME
	_ZNK6Phonon15EffectParameter20isLogarithmicControlEv @ 408 NONAME
	_ZNK6Phonon15EffectParameter2idEv @ 409 NONAME
	_ZNK6Phonon15EffectParameter4nameEv @ 410 NONAME
	_ZNK6Phonon15EffectParameter4typeEv @ 411 NONAME
	_ZNK6Phonon15EffectParametereqERKS0_ @ 412 NONAME
	_ZNK6Phonon15EffectParametergtERKS0_ @ 413 NONAME
	_ZNK6Phonon15EffectParameterltERKS0_ @ 414 NONAME
	_ZNK6Phonon15MediaController10metaObjectEv @ 415 NONAME
	_ZNK6Phonon15MediaController12currentAngleEv @ 416 NONAME
	_ZNK6Phonon15MediaController12currentTitleEv @ 417 NONAME
	_ZNK6Phonon15MediaController14autoplayTitlesEv @ 418 NONAME
	_ZNK6Phonon15MediaController14currentChapterEv @ 419 NONAME
	_ZNK6Phonon15MediaController15availableAnglesEv @ 420 NONAME
	_ZNK6Phonon15MediaController15availableTitlesEv @ 421 NONAME
	_ZNK6Phonon15MediaController15currentSubtitleEv @ 422 NONAME
	_ZNK6Phonon15MediaController17availableChaptersEv @ 423 NONAME
	_ZNK6Phonon15MediaController17supportedFeaturesEv @ 424 NONAME
	_ZNK6Phonon15MediaController18availableSubtitlesEv @ 425 NONAME
	_ZNK6Phonon15MediaController19currentAudioChannelEv @ 426 NONAME
	_ZNK6Phonon15MediaController22availableAudioChannelsEv @ 427 NONAME
	_ZNK6Phonon17VolumeFaderEffect10metaObjectEv @ 428 NONAME
	_ZNK6Phonon17VolumeFaderEffect13volumeDecibelEv @ 429 NONAME
	_ZNK6Phonon17VolumeFaderEffect6volumeEv @ 430 NONAME
	_ZNK6Phonon17VolumeFaderEffect9fadeCurveEv @ 431 NONAME
	_ZNK6Phonon19AbstractAudioOutput10metaObjectEv @ 432 NONAME
	_ZNK6Phonon19AbstractMediaStream10metaObjectEv @ 433 NONAME
	_ZNK6Phonon19AbstractMediaStream10streamSizeEv @ 434 NONAME
	_ZNK6Phonon19AbstractMediaStream14streamSeekableEv @ 435 NONAME
	_ZNK6Phonon21ObjectDescriptionData11descriptionEv @ 436 NONAME
	_ZNK6Phonon21ObjectDescriptionData13propertyNamesEv @ 437 NONAME
	_ZNK6Phonon21ObjectDescriptionData4nameEv @ 438 NONAME
	_ZNK6Phonon21ObjectDescriptionData5indexEv @ 439 NONAME
	_ZNK6Phonon21ObjectDescriptionData7isValidEv @ 440 NONAME
	_ZNK6Phonon21ObjectDescriptionData8propertyEPKc @ 441 NONAME
	_ZNK6Phonon21ObjectDescriptionDataeqERKS0_ @ 442 NONAME
	_ZNK6Phonon22AudioOutputInterface4219deviceAccessListForERKNS_17ObjectDescriptionILNS_21ObjectDescriptionTypeE0EEE @ 443 NONAME
	_ZNK6Phonon22ObjectDescriptionModelILNS_21ObjectDescriptionTypeE0EE10metaObjectEv @ 444 NONAME
	_ZNK6Phonon22ObjectDescriptionModelILNS_21ObjectDescriptionTypeE1EE10metaObjectEv @ 445 NONAME
	_ZNK6Phonon22ObjectDescriptionModelILNS_21ObjectDescriptionTypeE2EE10metaObjectEv @ 446 NONAME
	_ZNK6Phonon22ObjectDescriptionModelILNS_21ObjectDescriptionTypeE3EE10metaObjectEv @ 447 NONAME
	_ZNK6Phonon22ObjectDescriptionModelILNS_21ObjectDescriptionTypeE4EE10metaObjectEv @ 448 NONAME
	_ZNK6Phonon26ObjectDescriptionModelData15tupleIndexOrderEv @ 449 NONAME
	_ZNK6Phonon26ObjectDescriptionModelData20supportedDropActionsEv @ 450 NONAME
	_ZNK6Phonon26ObjectDescriptionModelData25tupleIndexAtPositionIndexEi @ 451 NONAME
	_ZNK6Phonon26ObjectDescriptionModelData4dataERK11QModelIndexi @ 452 NONAME
	_ZNK6Phonon26ObjectDescriptionModelData5flagsERK11QModelIndex @ 453 NONAME
	_ZNK6Phonon26ObjectDescriptionModelData8mimeDataENS_21ObjectDescriptionTypeERK5QListI11QModelIndexE @ 454 NONAME
	_ZNK6Phonon26ObjectDescriptionModelData8rowCountERK11QModelIndex @ 455 NONAME
	_ZNK6Phonon26ObjectDescriptionModelData9mimeTypesENS_21ObjectDescriptionTypeE @ 456 NONAME
	_ZNK6Phonon26ObjectDescriptionModelData9modelDataERK11QModelIndex @ 457 NONAME
	_ZNK6Phonon26ObjectDescriptionModelData9modelDataEv @ 458 NONAME
	_ZNK6Phonon4Path4sinkEv @ 459 NONAME
	_ZNK6Phonon4Path6sourceEv @ 460 NONAME
	_ZNK6Phonon4Path7effectsEv @ 461 NONAME
	_ZNK6Phonon4Path7isValidEv @ 462 NONAME
	_ZNK6Phonon4PatheqERKS0_ @ 463 NONAME
	_ZNK6Phonon4PathneERKS0_ @ 464 NONAME
	_ZNK6Phonon6Effect10metaObjectEv @ 465 NONAME
	_ZNK6Phonon6Effect10parametersEv @ 466 NONAME
	_ZNK6Phonon6Effect11descriptionEv @ 467 NONAME
	_ZNK6Phonon6Effect14parameterValueERKNS_15EffectParameterE @ 468 NONAME
	_ZNK6Phonon9MediaNode10inputPathsEv @ 469 NONAME
	_ZNK6Phonon9MediaNode11outputPathsEv @ 470 NONAME
	_ZNK6Phonon9MediaNode7isValidEv @ 471 NONAME
	_ZTIN6Phonon10SeekSliderE @ 472 NONAME
	_ZTIN6Phonon11AudioOutputE @ 473 NONAME
	_ZTIN6Phonon11MediaObjectE @ 474 NONAME
	_ZTIN6Phonon11PathPrivateE @ 475 NONAME ABSENT
	_ZTIN6Phonon11VideoPlayerE @ 476 NONAME
	_ZTIN6Phonon11VideoWidgetE @ 477 NONAME
	_ZTIN6Phonon12EffectWidgetE @ 478 NONAME
	_ZTIN6Phonon12GlobalConfigE @ 479 NONAME
	_ZTIN6Phonon12VolumeSliderE @ 480 NONAME
	_ZTIN6Phonon13EffectPrivateE @ 481 NONAME ABSENT
	_ZTIN6Phonon14FactoryPrivateE @ 482 NONAME ABSENT
	_ZTIN6Phonon14IODeviceStreamE @ 483 NONAME ABSENT
	_ZTIN6Phonon15MediaControllerE @ 484 NONAME
	_ZTIN6Phonon15StreamInterfaceE @ 485 NONAME
	_ZTIN6Phonon16MediaNodePrivateE @ 486 NONAME
	_ZTIN6Phonon17VolumeFaderEffectE @ 487 NONAME
	_ZTIN6Phonon18AudioOutputPrivateE @ 488 NONAME ABSENT
	_ZTIN6Phonon18MediaObjectPrivateE @ 489 NONAME ABSENT
	_ZTIN6Phonon18MediaSourcePrivateE @ 490 NONAME
	_ZTIN6Phonon18VideoWidgetPrivateE @ 491 NONAME ABSENT
	_ZTIN6Phonon19AbstractAudioOutputE @ 492 NONAME
	_ZTIN6Phonon19AbstractMediaStreamE @ 493 NONAME
	_ZTIN6Phonon19AbstractVideoOutputE @ 494 NONAME
	_ZTIN6Phonon19BackendCapabilities8NotifierE @ 495 NONAME ABSENT
	_ZTIN6Phonon22MediaControllerPrivateE @ 496 NONAME ABSENT
	_ZTIN6Phonon22ObjectDescriptionModelILNS_21ObjectDescriptionTypeE0EEE @ 497 NONAME ABSENT
	_ZTIN6Phonon22ObjectDescriptionModelILNS_21ObjectDescriptionTypeE1EEE @ 498 NONAME ABSENT
	_ZTIN6Phonon22ObjectDescriptionModelILNS_21ObjectDescriptionTypeE2EEE @ 499 NONAME ABSENT
	_ZTIN6Phonon22ObjectDescriptionModelILNS_21ObjectDescriptionTypeE3EEE @ 500 NONAME ABSENT
	_ZTIN6Phonon22ObjectDescriptionModelILNS_21ObjectDescriptionTypeE4EEE @ 501 NONAME ABSENT
	_ZTIN6Phonon24VolumeFaderEffectPrivateE @ 502 NONAME ABSENT
	_ZTIN6Phonon26AbstractAudioOutputPrivateE @ 503 NONAME ABSENT
	_ZTIN6Phonon26AbstractMediaStreamPrivateE @ 504 NONAME
	_ZTIN6Phonon26AbstractVideoOutputPrivateE @ 505 NONAME ABSENT
	_ZTIN6Phonon6EffectE @ 506 NONAME
	_ZTIN6Phonon7Factory6SenderE @ 507 NONAME ABSENT
	_ZTIN6Phonon9MediaNodeE @ 508 NONAME
	_ZTVN6Phonon10SeekSliderE @ 509 NONAME
	_ZTVN6Phonon11AudioOutputE @ 510 NONAME
	_ZTVN6Phonon11MediaObjectE @ 511 NONAME
	_ZTVN6Phonon11PathPrivateE @ 512 NONAME ABSENT
	_ZTVN6Phonon11VideoPlayerE @ 513 NONAME
	_ZTVN6Phonon11VideoWidgetE @ 514 NONAME
	_ZTVN6Phonon12EffectWidgetE @ 515 NONAME
	_ZTVN6Phonon12GlobalConfigE @ 516 NONAME
	_ZTVN6Phonon12VolumeSliderE @ 517 NONAME
	_ZTVN6Phonon13EffectPrivateE @ 518 NONAME ABSENT
	_ZTVN6Phonon14FactoryPrivateE @ 519 NONAME ABSENT
	_ZTVN6Phonon14IODeviceStreamE @ 520 NONAME ABSENT
	_ZTVN6Phonon15MediaControllerE @ 521 NONAME
	_ZTVN6Phonon15StreamInterfaceE @ 522 NONAME
	_ZTVN6Phonon16MediaNodePrivateE @ 523 NONAME
	_ZTVN6Phonon17VolumeFaderEffectE @ 524 NONAME
	_ZTVN6Phonon18AudioOutputPrivateE @ 525 NONAME ABSENT
	_ZTVN6Phonon18MediaObjectPrivateE @ 526 NONAME ABSENT
	_ZTVN6Phonon18MediaSourcePrivateE @ 527 NONAME
	_ZTVN6Phonon18VideoWidgetPrivateE @ 528 NONAME ABSENT
	_ZTVN6Phonon19AbstractAudioOutputE @ 529 NONAME
	_ZTVN6Phonon19AbstractMediaStreamE @ 530 NONAME
	_ZTVN6Phonon19AbstractVideoOutputE @ 531 NONAME
	_ZTVN6Phonon19BackendCapabilities8NotifierE @ 532 NONAME ABSENT
	_ZTVN6Phonon22MediaControllerPrivateE @ 533 NONAME ABSENT
	_ZTVN6Phonon22ObjectDescriptionModelILNS_21ObjectDescriptionTypeE0EEE @ 534 NONAME ABSENT
	_ZTVN6Phonon22ObjectDescriptionModelILNS_21ObjectDescriptionTypeE1EEE @ 535 NONAME ABSENT
	_ZTVN6Phonon22ObjectDescriptionModelILNS_21ObjectDescriptionTypeE2EEE @ 536 NONAME ABSENT
	_ZTVN6Phonon22ObjectDescriptionModelILNS_21ObjectDescriptionTypeE3EEE @ 537 NONAME ABSENT
	_ZTVN6Phonon22ObjectDescriptionModelILNS_21ObjectDescriptionTypeE4EEE @ 538 NONAME ABSENT
	_ZTVN6Phonon24VolumeFaderEffectPrivateE @ 539 NONAME ABSENT
	_ZTVN6Phonon26AbstractAudioOutputPrivateE @ 540 NONAME ABSENT
	_ZTVN6Phonon26AbstractMediaStreamPrivateE @ 541 NONAME
	_ZTVN6Phonon26AbstractVideoOutputPrivateE @ 542 NONAME ABSENT
	_ZTVN6Phonon6EffectE @ 543 NONAME
	_ZTVN6Phonon7Factory6SenderE @ 544 NONAME ABSENT
	_ZTVN6Phonon9MediaNodeE @ 545 NONAME
	_ZThn8_N6Phonon10SeekSliderD0Ev @ 546 NONAME
	_ZThn8_N6Phonon10SeekSliderD1Ev @ 547 NONAME
	_ZThn8_N6Phonon11MediaObjectD0Ev @ 548 NONAME
	_ZThn8_N6Phonon11MediaObjectD1Ev @ 549 NONAME
	_ZThn8_N6Phonon11VideoPlayerD0Ev @ 550 NONAME
	_ZThn8_N6Phonon11VideoPlayerD1Ev @ 551 NONAME
	_ZThn8_N6Phonon12EffectWidgetD0Ev @ 552 NONAME
	_ZThn8_N6Phonon12EffectWidgetD1Ev @ 553 NONAME
	_ZThn8_N6Phonon12VolumeSliderD0Ev @ 554 NONAME
	_ZThn8_N6Phonon12VolumeSliderD1Ev @ 555 NONAME
	_ZThn8_N6Phonon19AbstractAudioOutputD0Ev @ 556 NONAME
	_ZThn8_N6Phonon19AbstractAudioOutputD1Ev @ 557 NONAME
	_ZThn8_N6Phonon6EffectD0Ev @ 558 NONAME
	_ZThn8_N6Phonon6EffectD1Ev @ 559 NONAME

