EXPORTS
	_Z10qmlContextPK7QObject @ 1 NONAME
	_Z18qmlExecuteDeferredP7QObject @ 2 NONAME
	_Z27qmlAttachedPropertiesObjectPiPK7QObjectPK11QMetaObjectb @ 3 NONAME
	_Z31qmlAttachedPropertiesObjectByIdiPK7QObjectb @ 4 NONAME
	_Z7qmlInfoPK7QObject @ 5 NONAME
	_Z9qmlEnginePK7QObject @ 6 NONAME
	_ZN15QDeclarativePen10penChangedEv @ 7 NONAME
	_ZN15QDeclarativePen11qt_metacallEN11QMetaObject4CallEiPPv @ 8 NONAME
	_ZN15QDeclarativePen11qt_metacastEPKc @ 9 NONAME
	_ZN15QDeclarativePen16staticMetaObjectE @ 10 NONAME DATA 16
	_ZN15QDeclarativePen19getStaticMetaObjectEv @ 11 NONAME
	_ZN15QDeclarativePen8setColorERK6QColor @ 12 NONAME
	_ZN15QDeclarativePen8setWidthEi @ 13 NONAME
	_ZN15QDeclarativeRow11qt_metacallEN11QMetaObject4CallEiPPv @ 14 NONAME
	_ZN15QDeclarativeRow11qt_metacastEPKc @ 15 NONAME
	_ZN15QDeclarativeRow13doPositioningEv @ 16 NONAME ABSENT
	_ZN15QDeclarativeRow16staticMetaObjectE @ 17 NONAME DATA 16
	_ZN15QDeclarativeRow19getStaticMetaObjectEv @ 18 NONAME
	_ZN15QDeclarativeRowC1EP16QDeclarativeItem @ 19 NONAME
	_ZN15QDeclarativeRowC2EP16QDeclarativeItem @ 20 NONAME
	_ZN15QPacketAutoSendC1EP15QPacketProtocol @ 21 NONAME
	_ZN15QPacketAutoSendC2EP15QPacketProtocol @ 22 NONAME
	_ZN15QPacketAutoSendD0Ev @ 23 NONAME
	_ZN15QPacketAutoSendD1Ev @ 24 NONAME
	_ZN15QPacketAutoSendD2Ev @ 25 NONAME
	_ZN15QPacketProtocol11qt_metacallEN11QMetaObject4CallEiPPv @ 26 NONAME
	_ZN15QPacketProtocol11qt_metacastEPKc @ 27 NONAME
	_ZN15QPacketProtocol13invalidPacketEv @ 28 NONAME
	_ZN15QPacketProtocol13packetWrittenEv @ 29 NONAME
	_ZN15QPacketProtocol16staticMetaObjectE @ 30 NONAME DATA 16
	_ZN15QPacketProtocol19getStaticMetaObjectEv @ 31 NONAME
	_ZN15QPacketProtocol20setMaximumPacketSizeEi @ 32 NONAME
	_ZN15QPacketProtocol4readEv @ 33 NONAME
	_ZN15QPacketProtocol4sendERK7QPacket @ 34 NONAME
	_ZN15QPacketProtocol4sendEv @ 35 NONAME
	_ZN15QPacketProtocol5clearEv @ 36 NONAME
	_ZN15QPacketProtocol6deviceEv @ 37 NONAME
	_ZN15QPacketProtocol9readyReadEv @ 38 NONAME
	_ZN15QPacketProtocolC1EP9QIODeviceP7QObject @ 39 NONAME
	_ZN15QPacketProtocolC2EP9QIODeviceP7QObject @ 40 NONAME
	_ZN15QPacketProtocolD0Ev @ 41 NONAME
	_ZN15QPacketProtocolD1Ev @ 42 NONAME
	_ZN15QPacketProtocolD2Ev @ 43 NONAME
	_ZN16QDeclarativeBind11qt_metacallEN11QMetaObject4CallEiPPv @ 44 NONAME
	_ZN16QDeclarativeBind11qt_metacastEPKc @ 45 NONAME
	_ZN16QDeclarativeBind11setPropertyERK7QString @ 46 NONAME
	_ZN16QDeclarativeBind16staticMetaObjectE @ 47 NONAME DATA 16
	_ZN16QDeclarativeBind17componentCompleteEv @ 48 NONAME
	_ZN16QDeclarativeBind19getStaticMetaObjectEv @ 49 NONAME
	_ZN16QDeclarativeBind4evalEv @ 50 NONAME
	_ZN16QDeclarativeBind6objectEv @ 51 NONAME
	_ZN16QDeclarativeBind7setWhenEb @ 52 NONAME
	_ZN16QDeclarativeBind8setValueERK8QVariant @ 53 NONAME
	_ZN16QDeclarativeBind9setObjectEP7QObject @ 54 NONAME
	_ZN16QDeclarativeBindC1EP7QObject @ 55 NONAME
	_ZN16QDeclarativeBindC2EP7QObject @ 56 NONAME
	_ZN16QDeclarativeBindD0Ev @ 57 NONAME
	_ZN16QDeclarativeBindD1Ev @ 58 NONAME
	_ZN16QDeclarativeBindD2Ev @ 59 NONAME
	_ZN16QDeclarativeDrag11axisChangedEv @ 60 NONAME
	_ZN16QDeclarativeDrag11qt_metacallEN11QMetaObject4CallEiPPv @ 61 NONAME
	_ZN16QDeclarativeDrag11qt_metacastEPKc @ 62 NONAME
	_ZN16QDeclarativeDrag13targetChangedEv @ 63 NONAME
	_ZN16QDeclarativeDrag15maximumXChangedEv @ 64 NONAME
	_ZN16QDeclarativeDrag15maximumYChangedEv @ 65 NONAME
	_ZN16QDeclarativeDrag15minimumXChangedEv @ 66 NONAME
	_ZN16QDeclarativeDrag15minimumYChangedEv @ 67 NONAME
	_ZN16QDeclarativeDrag16staticMetaObjectE @ 68 NONAME DATA 16
	_ZN16QDeclarativeDrag19getStaticMetaObjectEv @ 69 NONAME
	_ZN16QDeclarativeDrag7setAxisENS_4AxisE @ 70 NONAME
	_ZN16QDeclarativeDrag7setXmaxEf @ 71 NONAME
	_ZN16QDeclarativeDrag7setXminEf @ 72 NONAME
	_ZN16QDeclarativeDrag7setYmaxEf @ 73 NONAME
	_ZN16QDeclarativeDrag7setYminEf @ 74 NONAME
	_ZN16QDeclarativeDrag9setTargetEP15QGraphicsObject @ 75 NONAME
	_ZN16QDeclarativeDragC1EP7QObject @ 76 NONAME
	_ZN16QDeclarativeDragC2EP7QObject @ 77 NONAME
	_ZN16QDeclarativeDragD0Ev @ 78 NONAME
	_ZN16QDeclarativeDragD1Ev @ 79 NONAME
	_ZN16QDeclarativeDragD2Ev @ 80 NONAME
	_ZN16QDeclarativeFlow11flowChangedEv @ 81 NONAME
	_ZN16QDeclarativeFlow11qt_metacallEN11QMetaObject4CallEiPPv @ 82 NONAME
	_ZN16QDeclarativeFlow11qt_metacastEPKc @ 83 NONAME
	_ZN16QDeclarativeFlow13doPositioningEv @ 84 NONAME ABSENT
	_ZN16QDeclarativeFlow16staticMetaObjectE @ 85 NONAME DATA 16
	_ZN16QDeclarativeFlow19getStaticMetaObjectEv @ 86 NONAME
	_ZN16QDeclarativeFlow7setFlowENS_4FlowE @ 87 NONAME
	_ZN16QDeclarativeFlowC1EP16QDeclarativeItem @ 88 NONAME
	_ZN16QDeclarativeFlowC2EP16QDeclarativeItem @ 89 NONAME
	_ZN16QDeclarativeGrid10setColumnsEi @ 90 NONAME
	_ZN16QDeclarativeGrid11qt_metacallEN11QMetaObject4CallEiPPv @ 91 NONAME
	_ZN16QDeclarativeGrid11qt_metacastEPKc @ 92 NONAME
	_ZN16QDeclarativeGrid11rowsChangedEv @ 93 NONAME
	_ZN16QDeclarativeGrid13doPositioningEv @ 94 NONAME ABSENT
	_ZN16QDeclarativeGrid14columnsChangedEv @ 95 NONAME
	_ZN16QDeclarativeGrid16staticMetaObjectE @ 96 NONAME DATA 16
	_ZN16QDeclarativeGrid19getStaticMetaObjectEv @ 97 NONAME
	_ZN16QDeclarativeGrid7setRowsEi @ 98 NONAME
	_ZN16QDeclarativeGridC1EP16QDeclarativeItem @ 99 NONAME
	_ZN16QDeclarativeGridC2EP16QDeclarativeItem @ 100 NONAME
	_ZN16QDeclarativeInfoC1EPK7QObject @ 101 NONAME ABSENT
	_ZN16QDeclarativeInfoC2EPK7QObject @ 102 NONAME ABSENT
	_ZN16QDeclarativeInfoD1Ev @ 103 NONAME
	_ZN16QDeclarativeInfoD2Ev @ 104 NONAME
	_ZN16QDeclarativeItem10classBeginEv @ 105 NONAME
	_ZN16QDeclarativeItem10itemChangeEN13QGraphicsItem18GraphicsItemChangeERK8QVariant @ 106 NONAME
	_ZN16QDeclarativeItem10resetWidthEv @ 107 NONAME
	_ZN16QDeclarativeItem10sceneEventEP6QEvent @ 108 NONAME
	_ZN16QDeclarativeItem11clipChangedEb @ 109 NONAME
	_ZN16QDeclarativeItem11qt_metacallEN11QMetaObject4CallEiPPv @ 110 NONAME
	_ZN16QDeclarativeItem11qt_metacastEPKc @ 111 NONAME
	_ZN16QDeclarativeItem11resetHeightEv @ 112 NONAME
	_ZN16QDeclarativeItem11transitionsEv @ 113 NONAME ABSENT
	_ZN16QDeclarativeItem12childrenRectEv @ 114 NONAME
	_ZN16QDeclarativeItem12focusChangedEb @ 115 NONAME
	_ZN16QDeclarativeItem12stateChangedERK7QString @ 116 NONAME
	_ZN16QDeclarativeItem13keyPressEventEP9QKeyEvent @ 117 NONAME
	_ZN16QDeclarativeItem13parentChangedEPS_ @ 118 NONAME
	_ZN16QDeclarativeItem13setParentItemEPS_ @ 119 NONAME
	_ZN16QDeclarativeItem13smoothChangedEb @ 120 NONAME
	_ZN16QDeclarativeItem15childrenChangedEv @ 121 NONAME
	_ZN16QDeclarativeItem15geometryChangedERK6QRectFS2_ @ 122 NONAME
	_ZN16QDeclarativeItem15keyReleaseEventEP9QKeyEvent @ 123 NONAME
	_ZN16QDeclarativeItem16inputMethodEventEP17QInputMethodEvent @ 124 NONAME
	_ZN16QDeclarativeItem16setImplicitWidthEf @ 125 NONAME
	_ZN16QDeclarativeItem16setKeepMouseGrabEb @ 126 NONAME
	_ZN16QDeclarativeItem16staticMetaObjectE @ 127 NONAME DATA 16
	_ZN16QDeclarativeItem17componentCompleteEv @ 128 NONAME
	_ZN16QDeclarativeItem17setBaselineOffsetEf @ 129 NONAME
	_ZN16QDeclarativeItem17setImplicitHeightEf @ 130 NONAME
	_ZN16QDeclarativeItem17wantsFocusChangedEb @ 131 NONAME
	_ZN16QDeclarativeItem18setTransformOriginENS_15TransformOriginE @ 132 NONAME
	_ZN16QDeclarativeItem19childrenRectChangedERK6QRectF @ 133 NONAME
	_ZN16QDeclarativeItem19getStaticMetaObjectEv @ 134 NONAME
	_ZN16QDeclarativeItem21baselineOffsetChangedEf @ 135 NONAME
	_ZN16QDeclarativeItem22transformOriginChangedENS_15TransformOriginE @ 136 NONAME
	_ZN16QDeclarativeItem4dataEv @ 137 NONAME ABSENT
	_ZN16QDeclarativeItem5eventEP6QEvent @ 138 NONAME
	_ZN16QDeclarativeItem5paintEP8QPainterPK24QStyleOptionGraphicsItemP7QWidget @ 139 NONAME
	_ZN16QDeclarativeItem6statesEv @ 140 NONAME ABSENT
	_ZN16QDeclarativeItem7anchorsEv @ 141 NONAME ABSENT
	_ZN16QDeclarativeItem7setClipEb @ 142 NONAME
	_ZN16QDeclarativeItem7setSizeERK6QSizeF @ 143 NONAME
	_ZN16QDeclarativeItem8setFocusEb @ 144 NONAME
	_ZN16QDeclarativeItem8setStateERK7QString @ 145 NONAME ABSENT
	_ZN16QDeclarativeItem8setWidthEf @ 146 NONAME
	_ZN16QDeclarativeItem9resourcesEv @ 147 NONAME ABSENT
	_ZN16QDeclarativeItem9setHeightEf @ 148 NONAME
	_ZN16QDeclarativeItem9setSmoothEb @ 149 NONAME
	_ZN16QDeclarativeItem9transformEv @ 150 NONAME
	_ZN16QDeclarativeItemC1EPS_ @ 151 NONAME
	_ZN16QDeclarativeItemC1ER23QDeclarativeItemPrivatePS_ @ 152 NONAME
	_ZN16QDeclarativeItemC2EPS_ @ 153 NONAME
	_ZN16QDeclarativeItemC2ER23QDeclarativeItemPrivatePS_ @ 154 NONAME
	_ZN16QDeclarativeItemD0Ev @ 155 NONAME
	_ZN16QDeclarativeItemD1Ev @ 156 NONAME
	_ZN16QDeclarativeItemD2Ev @ 157 NONAME
	_ZN16QDeclarativePath11interpolateEiRK7QStringf @ 158 NONAME
	_ZN16QDeclarativePath11processPathEv @ 159 NONAME
	_ZN16QDeclarativePath11qt_metacallEN11QMetaObject4CallEiPPv @ 160 NONAME
	_ZN16QDeclarativePath11qt_metacastEPKc @ 161 NONAME
	_ZN16QDeclarativePath12pathElementsEv @ 162 NONAME
	_ZN16QDeclarativePath13startXChangedEv @ 163 NONAME
	_ZN16QDeclarativePath13startYChangedEv @ 164 NONAME
	_ZN16QDeclarativePath16staticMetaObjectE @ 165 NONAME DATA 16
	_ZN16QDeclarativePath17componentCompleteEv @ 166 NONAME
	_ZN16QDeclarativePath19getStaticMetaObjectEv @ 167 NONAME
	_ZN16QDeclarativePath7changedEv @ 168 NONAME
	_ZN16QDeclarativePath8endpointERK7QString @ 169 NONAME
	_ZN16QDeclarativePath9setStartXEf @ 170 NONAME
	_ZN16QDeclarativePath9setStartYEf @ 171 NONAME
	_ZN16QDeclarativePathC1EP7QObject @ 172 NONAME
	_ZN16QDeclarativePathC2EP7QObject @ 173 NONAME
	_ZN16QDeclarativePathD0Ev @ 174 NONAME
	_ZN16QDeclarativePathD1Ev @ 175 NONAME
	_ZN16QDeclarativePathD2Ev @ 176 NONAME
	_ZN16QDeclarativeText11fontChangedERK5QFont @ 177 NONAME
	_ZN16QDeclarativeText11qt_metacallEN11QMetaObject4CallEiPPv @ 178 NONAME
	_ZN16QDeclarativeText11qt_metacastEPKc @ 179 NONAME
	_ZN16QDeclarativeText11textChangedERK7QString @ 180 NONAME
	_ZN16QDeclarativeText11wrapChangedEb @ 181 NONAME ABSENT
	_ZN16QDeclarativeText12colorChangedERK6QColor @ 182 NONAME
	_ZN16QDeclarativeText12setElideModeENS_13TextElideModeE @ 183 NONAME
	_ZN16QDeclarativeText12styleChangedENS_9TextStyleE @ 184 NONAME
	_ZN16QDeclarativeText13linkActivatedERK7QString @ 185 NONAME
	_ZN16QDeclarativeText13setStyleColorERK6QColor @ 186 NONAME
	_ZN16QDeclarativeText13setTextFormatENS_10TextFormatE @ 187 NONAME
	_ZN16QDeclarativeText15geometryChangedERK6QRectFS2_ @ 188 NONAME
	_ZN16QDeclarativeText15mousePressEventEP24QGraphicsSceneMouseEvent @ 189 NONAME
	_ZN16QDeclarativeText16elideModeChangedENS_13TextElideModeE @ 190 NONAME
	_ZN16QDeclarativeText16staticMetaObjectE @ 191 NONAME DATA 16
	_ZN16QDeclarativeText17componentCompleteEv @ 192 NONAME
	_ZN16QDeclarativeText17mouseReleaseEventEP24QGraphicsSceneMouseEvent @ 193 NONAME
	_ZN16QDeclarativeText17styleColorChangedERK6QColor @ 194 NONAME
	_ZN16QDeclarativeText17textFormatChangedENS_10TextFormatE @ 195 NONAME
	_ZN16QDeclarativeText19getStaticMetaObjectEv @ 196 NONAME
	_ZN16QDeclarativeText24verticalAlignmentChangedENS_10VAlignmentE @ 197 NONAME
	_ZN16QDeclarativeText26horizontalAlignmentChangedENS_10HAlignmentE @ 198 NONAME
	_ZN16QDeclarativeText5paintEP8QPainterPK24QStyleOptionGraphicsItemP7QWidget @ 199 NONAME
	_ZN16QDeclarativeText7setFontERK5QFont @ 200 NONAME
	_ZN16QDeclarativeText7setTextERK7QString @ 201 NONAME
	_ZN16QDeclarativeText7setWrapEb @ 202 NONAME ABSENT
	_ZN16QDeclarativeText8setColorERK6QColor @ 203 NONAME
	_ZN16QDeclarativeText8setStyleENS_9TextStyleE @ 204 NONAME
	_ZN16QDeclarativeText9setHAlignENS_10HAlignmentE @ 205 NONAME
	_ZN16QDeclarativeText9setVAlignENS_10VAlignmentE @ 206 NONAME
	_ZN16QDeclarativeTextC1EP16QDeclarativeItem @ 207 NONAME
	_ZN16QDeclarativeTextC2EP16QDeclarativeItem @ 208 NONAME
	_ZN16QDeclarativeTextD0Ev @ 209 NONAME
	_ZN16QDeclarativeTextD1Ev @ 210 NONAME
	_ZN16QDeclarativeTextD2Ev @ 211 NONAME
	_ZN16QDeclarativeTypeC1EiRKN19QDeclarativePrivate12RegisterTypeE @ 212 NONAME
	_ZN16QDeclarativeTypeC1EiRKN19QDeclarativePrivate17RegisterInterfaceE @ 213 NONAME
	_ZN16QDeclarativeTypeC2EiRKN19QDeclarativePrivate12RegisterTypeE @ 214 NONAME
	_ZN16QDeclarativeTypeC2EiRKN19QDeclarativePrivate17RegisterInterfaceE @ 215 NONAME
	_ZN16QDeclarativeTypeD1Ev @ 216 NONAME
	_ZN16QDeclarativeTypeD2Ev @ 217 NONAME
	_ZN16QDeclarativeView10paintEventEP11QPaintEvent @ 218 NONAME
	_ZN16QDeclarativeView10timerEventEP11QTimerEvent @ 219 NONAME
	_ZN16QDeclarativeView11qt_metacallEN11QMetaObject4CallEiPPv @ 220 NONAME
	_ZN16QDeclarativeView11qt_metacastEPKc @ 221 NONAME
	_ZN16QDeclarativeView11resizeEventEP12QResizeEvent @ 222 NONAME
	_ZN16QDeclarativeView11rootContextEv @ 223 NONAME
	_ZN16QDeclarativeView11sizeChangedEv @ 224 NONAME ABSENT
	_ZN16QDeclarativeView12sceneResizedE5QSize @ 225 NONAME
	_ZN16QDeclarativeView13setResizeModeENS_10ResizeModeE @ 226 NONAME
	_ZN16QDeclarativeView13setRootObjectEP7QObject @ 227 NONAME
	_ZN16QDeclarativeView13statusChangedENS_6StatusE @ 228 NONAME
	_ZN16QDeclarativeView15continueExecuteEv @ 229 NONAME
	_ZN16QDeclarativeView16staticMetaObjectE @ 230 NONAME DATA 16
	_ZN16QDeclarativeView19getStaticMetaObjectEv @ 231 NONAME
	_ZN16QDeclarativeView6engineEv @ 232 NONAME
	_ZN16QDeclarativeView9setSourceERK4QUrl @ 233 NONAME
	_ZN16QDeclarativeViewC1EP7QWidget @ 234 NONAME
	_ZN16QDeclarativeViewC1ERK4QUrlP7QWidget @ 235 NONAME
	_ZN16QDeclarativeViewC2EP7QWidget @ 236 NONAME
	_ZN16QDeclarativeViewC2ERK4QUrlP7QWidget @ 237 NONAME
	_ZN16QDeclarativeViewD0Ev @ 238 NONAME
	_ZN16QDeclarativeViewD1Ev @ 239 NONAME
	_ZN16QDeclarativeViewD2Ev @ 240 NONAME
	_ZN16QMetaEnumBuilder6addKeyERK10QByteArrayi @ 241 NONAME
	_ZN16QMetaEnumBuilder9removeKeyEi @ 242 NONAME
	_ZN16QMetaEnumBuilder9setIsFlagEb @ 243 NONAME
	_ZN17QDeclarativeCurve11qt_metacallEN11QMetaObject4CallEiPPv @ 244 NONAME
	_ZN17QDeclarativeCurve11qt_metacastEPKc @ 245 NONAME
	_ZN17QDeclarativeCurve16staticMetaObjectE @ 246 NONAME DATA 16
	_ZN17QDeclarativeCurve19getStaticMetaObjectEv @ 247 NONAME
	_ZN17QDeclarativeCurve4setXEf @ 248 NONAME
	_ZN17QDeclarativeCurve4setYEf @ 249 NONAME
	_ZN17QDeclarativeError14setDescriptionERK7QString @ 250 NONAME
	_ZN17QDeclarativeError6setUrlERK4QUrl @ 251 NONAME
	_ZN17QDeclarativeError7setLineEi @ 252 NONAME
	_ZN17QDeclarativeError9setColumnEi @ 253 NONAME
	_ZN17QDeclarativeErrorC1ERKS_ @ 254 NONAME
	_ZN17QDeclarativeErrorC1Ev @ 255 NONAME
	_ZN17QDeclarativeErrorC2ERKS_ @ 256 NONAME
	_ZN17QDeclarativeErrorC2Ev @ 257 NONAME
	_ZN17QDeclarativeErrorD1Ev @ 258 NONAME
	_ZN17QDeclarativeErrorD2Ev @ 259 NONAME
	_ZN17QDeclarativeErroraSERKS_ @ 260 NONAME
	_ZN17QDeclarativeImage11qt_metacallEN11QMetaObject4CallEiPPv @ 261 NONAME
	_ZN17QDeclarativeImage11qt_metacastEPKc @ 262 NONAME
	_ZN17QDeclarativeImage11setFillModeENS_8FillModeE @ 263 NONAME
	_ZN17QDeclarativeImage12pixmapChangeEv @ 264 NONAME
	_ZN17QDeclarativeImage13pixmapChangedEv @ 265 NONAME
	_ZN17QDeclarativeImage15fillModeChangedEv @ 266 NONAME
	_ZN17QDeclarativeImage15geometryChangedERK6QRectFS2_ @ 267 NONAME
	_ZN17QDeclarativeImage16staticMetaObjectE @ 268 NONAME DATA 16
	_ZN17QDeclarativeImage19getStaticMetaObjectEv @ 269 NONAME
	_ZN17QDeclarativeImage21updatePaintedGeometryEv @ 270 NONAME
	_ZN17QDeclarativeImage22paintedGeometryChangedEv @ 271 NONAME
	_ZN17QDeclarativeImage5paintEP8QPainterPK24QStyleOptionGraphicsItemP7QWidget @ 272 NONAME
	_ZN17QDeclarativeImage9setPixmapERK7QPixmap @ 273 NONAME
	_ZN17QDeclarativeImageC1EP16QDeclarativeItem @ 274 NONAME
	_ZN17QDeclarativeImageC1ER24QDeclarativeImagePrivateP16QDeclarativeItem @ 275 NONAME
	_ZN17QDeclarativeImageC2EP16QDeclarativeItem @ 276 NONAME
	_ZN17QDeclarativeImageC2ER24QDeclarativeImagePrivateP16QDeclarativeItem @ 277 NONAME
	_ZN17QDeclarativeImageD0Ev @ 278 NONAME
	_ZN17QDeclarativeImageD1Ev @ 279 NONAME
	_ZN17QDeclarativeImageD2Ev @ 280 NONAME
	_ZN17QDeclarativeState10setExtendsERK7QString @ 281 NONAME
	_ZN17QDeclarativeState11qt_metacallEN11QMetaObject4CallEiPPv @ 282 NONAME
	_ZN17QDeclarativeState11qt_metacastEPKc @ 283 NONAME
	_ZN17QDeclarativeState13setStateGroupEP22QDeclarativeStateGroup @ 284 NONAME
	_ZN17QDeclarativeState16staticMetaObjectE @ 285 NONAME DATA 16
	_ZN17QDeclarativeState19getStaticMetaObjectEv @ 286 NONAME
	_ZN17QDeclarativeState5applyEP22QDeclarativeStateGroupP22QDeclarativeTransitionPS_ @ 287 NONAME
	_ZN17QDeclarativeState6cancelEv @ 288 NONAME
	_ZN17QDeclarativeState7changesEv @ 289 NONAME
	_ZN17QDeclarativeState7setNameERK7QString @ 290 NONAME
	_ZN17QDeclarativeState7setWhenEP19QDeclarativeBinding @ 291 NONAME
	_ZN17QDeclarativeState9completedEv @ 292 NONAME
	_ZN17QDeclarativeStateC1EP7QObject @ 293 NONAME
	_ZN17QDeclarativeStateC2EP7QObject @ 294 NONAME
	_ZN17QDeclarativeStateD0Ev @ 295 NONAME
	_ZN17QDeclarativeStateD1Ev @ 296 NONAME
	_ZN17QDeclarativeStateD2Ev @ 297 NONAME
	_ZN17QDeclarativeStatelsEP26QDeclarativeStateOperation @ 298 NONAME
	_ZN17QDeclarativeTimer10classBeginEv @ 299 NONAME
	_ZN17QDeclarativeTimer10setRunningEb @ 300 NONAME
	_ZN17QDeclarativeTimer11qt_metacallEN11QMetaObject4CallEiPPv @ 301 NONAME
	_ZN17QDeclarativeTimer11qt_metacastEPKc @ 302 NONAME
	_ZN17QDeclarativeTimer11setIntervalEi @ 303 NONAME
	_ZN17QDeclarativeTimer12setRepeatingEb @ 304 NONAME
	_ZN17QDeclarativeTimer13repeatChangedEv @ 305 NONAME
	_ZN17QDeclarativeTimer14runningChangedEv @ 306 NONAME
	_ZN17QDeclarativeTimer15intervalChangedEv @ 307 NONAME
	_ZN17QDeclarativeTimer16staticMetaObjectE @ 308 NONAME DATA 16
	_ZN17QDeclarativeTimer17componentCompleteEv @ 309 NONAME
	_ZN17QDeclarativeTimer19getStaticMetaObjectEv @ 310 NONAME
	_ZN17QDeclarativeTimer19setTriggeredOnStartEb @ 311 NONAME
	_ZN17QDeclarativeTimer23triggeredOnStartChangedEv @ 312 NONAME
	_ZN17QDeclarativeTimer4stopEv @ 313 NONAME
	_ZN17QDeclarativeTimer5startEv @ 314 NONAME
	_ZN17QDeclarativeTimer6tickedEv @ 315 NONAME
	_ZN17QDeclarativeTimer6updateEv @ 316 NONAME
	_ZN17QDeclarativeTimer7restartEv @ 317 NONAME
	_ZN17QDeclarativeTimer8finishedEv @ 318 NONAME
	_ZN17QDeclarativeTimer9triggeredEv @ 319 NONAME
	_ZN17QDeclarativeTimerC1EP7QObject @ 320 NONAME
	_ZN17QDeclarativeTimerC2EP7QObject @ 321 NONAME
	_ZN18QDeclarativeAction17deleteFromBindingEv @ 322 NONAME
	_ZN18QDeclarativeActionC1EP7QObjectRK7QStringRK8QVariant @ 323 NONAME
	_ZN18QDeclarativeActionC1Ev @ 324 NONAME
	_ZN18QDeclarativeActionC2EP7QObjectRK7QStringRK8QVariant @ 325 NONAME
	_ZN18QDeclarativeActionC2Ev @ 326 NONAME
	_ZN18QDeclarativeColumn11qt_metacallEN11QMetaObject4CallEiPPv @ 327 NONAME
	_ZN18QDeclarativeColumn11qt_metacastEPKc @ 328 NONAME
	_ZN18QDeclarativeColumn13doPositioningEv @ 329 NONAME ABSENT
	_ZN18QDeclarativeColumn16staticMetaObjectE @ 330 NONAME DATA 16
	_ZN18QDeclarativeColumn19getStaticMetaObjectEv @ 331 NONAME
	_ZN18QDeclarativeColumnC1EP16QDeclarativeItem @ 332 NONAME
	_ZN18QDeclarativeColumnC2EP16QDeclarativeItem @ 333 NONAME
	_ZN18QDeclarativeEngine10setBaseUrlERK4QUrl @ 334 NONAME
	_ZN18QDeclarativeEngine11qt_metacallEN11QMetaObject4CallEiPPv @ 335 NONAME
	_ZN18QDeclarativeEngine11qt_metacastEPKc @ 336 NONAME
	_ZN18QDeclarativeEngine11rootContextEv @ 337 NONAME
	_ZN18QDeclarativeEngine13addImportPathERK7QString @ 338 NONAME
	_ZN18QDeclarativeEngine15importExtensionERK7QStringS2_ @ 339 NONAME ABSENT
	_ZN18QDeclarativeEngine15objectOwnershipEP7QObject @ 340 NONAME
	_ZN18QDeclarativeEngine16addImageProviderERK7QStringP25QDeclarativeImageProvider @ 341 NONAME
	_ZN18QDeclarativeEngine16contextForObjectEPK7QObject @ 342 NONAME
	_ZN18QDeclarativeEngine16staticMetaObjectE @ 343 NONAME DATA 16
	_ZN18QDeclarativeEngine17setImportPathListERK11QStringList @ 344 NONAME
	_ZN18QDeclarativeEngine18setObjectOwnershipEP7QObjectNS_15ObjectOwnershipE @ 345 NONAME
	_ZN18QDeclarativeEngine19clearComponentCacheEv @ 346 NONAME
	_ZN18QDeclarativeEngine19getStaticMetaObjectEv @ 347 NONAME
	_ZN18QDeclarativeEngine19removeImageProviderERK7QString @ 348 NONAME
	_ZN18QDeclarativeEngine19setContextForObjectEP7QObjectP19QDeclarativeContext @ 349 NONAME
	_ZN18QDeclarativeEngine21setOfflineStoragePathERK7QString @ 350 NONAME
	_ZN18QDeclarativeEngine30setNetworkAccessManagerFactoryEP39QDeclarativeNetworkAccessManagerFactory @ 351 NONAME
	_ZN18QDeclarativeEngine4quitEv @ 352 NONAME
	_ZN18QDeclarativeEngineC1EP7QObject @ 353 NONAME
	_ZN18QDeclarativeEngineC2EP7QObject @ 354 NONAME
	_ZN18QDeclarativeEngineD0Ev @ 355 NONAME
	_ZN18QDeclarativeEngineD1Ev @ 356 NONAME
	_ZN18QDeclarativeEngineD2Ev @ 357 NONAME
	_ZN18QDeclarativeLoader10itemChangeEN13QGraphicsItem18GraphicsItemChangeERK8QVariant @ 358 NONAME
	_ZN18QDeclarativeLoader11eventFilterEP7QObjectP6QEvent @ 359 NONAME
	_ZN18QDeclarativeLoader11itemChangedEv @ 360 NONAME
	_ZN18QDeclarativeLoader11qt_metacallEN11QMetaObject4CallEiPPv @ 361 NONAME
	_ZN18QDeclarativeLoader11qt_metacastEPKc @ 362 NONAME
	_ZN18QDeclarativeLoader13setResizeModeENS_10ResizeModeE @ 363 NONAME ABSENT
	_ZN18QDeclarativeLoader13sourceChangedEv @ 364 NONAME
	_ZN18QDeclarativeLoader13statusChangedEv @ 365 NONAME
	_ZN18QDeclarativeLoader15geometryChangedERK6QRectFS2_ @ 366 NONAME
	_ZN18QDeclarativeLoader15progressChangedEv @ 367 NONAME
	_ZN18QDeclarativeLoader16staticMetaObjectE @ 368 NONAME DATA 16
	_ZN18QDeclarativeLoader17resizeModeChangedEv @ 369 NONAME ABSENT
	_ZN18QDeclarativeLoader18setSourceComponentEP21QDeclarativeComponent @ 370 NONAME
	_ZN18QDeclarativeLoader19getStaticMetaObjectEv @ 371 NONAME
	_ZN18QDeclarativeLoader9setSourceERK4QUrl @ 372 NONAME
	_ZN18QDeclarativeLoaderC1EP16QDeclarativeItem @ 373 NONAME
	_ZN18QDeclarativeLoaderC2EP16QDeclarativeItem @ 374 NONAME
	_ZN18QDeclarativeLoaderD0Ev @ 375 NONAME
	_ZN18QDeclarativeLoaderD1Ev @ 376 NONAME
	_ZN18QDeclarativeLoaderD2Ev @ 377 NONAME
	_ZN18QMetaMethodBuilder13setAttributesEi @ 378 NONAME
	_ZN18QMetaMethodBuilder13setReturnTypeERK10QByteArray @ 379 NONAME
	_ZN18QMetaMethodBuilder17setParameterNamesERK5QListI10QByteArrayE @ 380 NONAME
	_ZN18QMetaMethodBuilder6setTagERK10QByteArray @ 381 NONAME
	_ZN18QMetaMethodBuilder9setAccessEN11QMetaMethod6AccessE @ 382 NONAME
	_ZN18QMetaObjectBuilder11addPropertyERK10QByteArrayS2_i @ 383 NONAME
	_ZN18QMetaObjectBuilder11addPropertyERK13QMetaProperty @ 384 NONAME
	_ZN18QMetaObjectBuilder11deserializeER11QDataStreamRK4QMapI10QByteArrayPK11QMetaObjectE @ 385 NONAME
	_ZN18QMetaObjectBuilder11indexOfSlotERK10QByteArray @ 386 NONAME
	_ZN18QMetaObjectBuilder12addClassInfoERK10QByteArrayS2_ @ 387 NONAME
	_ZN18QMetaObjectBuilder12removeMethodEi @ 388 NONAME
	_ZN18QMetaObjectBuilder12setClassNameERK10QByteArray @ 389 NONAME
	_ZN18QMetaObjectBuilder13addEnumeratorERK10QByteArray @ 390 NONAME
	_ZN18QMetaObjectBuilder13addEnumeratorERK9QMetaEnum @ 391 NONAME
	_ZN18QMetaObjectBuilder13addMetaObjectEPK11QMetaObject6QFlagsINS_9AddMemberEE @ 392 NONAME
	_ZN18QMetaObjectBuilder13indexOfMethodERK10QByteArray @ 393 NONAME
	_ZN18QMetaObjectBuilder13indexOfSignalERK10QByteArray @ 394 NONAME
	_ZN18QMetaObjectBuilder13setSuperClassEPK11QMetaObject @ 395 NONAME
	_ZN18QMetaObjectBuilder14addConstructorERK10QByteArray @ 396 NONAME
	_ZN18QMetaObjectBuilder14addConstructorERK11QMetaMethod @ 397 NONAME
	_ZN18QMetaObjectBuilder14removePropertyEi @ 398 NONAME
	_ZN18QMetaObjectBuilder15indexOfPropertyERK10QByteArray @ 399 NONAME
	_ZN18QMetaObjectBuilder15removeClassInfoEi @ 400 NONAME
	_ZN18QMetaObjectBuilder16indexOfClassInfoERK10QByteArray @ 401 NONAME
	_ZN18QMetaObjectBuilder16removeEnumeratorEi @ 402 NONAME
	_ZN18QMetaObjectBuilder17indexOfEnumeratorERK10QByteArray @ 403 NONAME
	_ZN18QMetaObjectBuilder17removeConstructorEi @ 404 NONAME
	_ZN18QMetaObjectBuilder18indexOfConstructorERK10QByteArray @ 405 NONAME
	_ZN18QMetaObjectBuilder19fromRelocatableDataEP11QMetaObjectPKS0_RK10QByteArray @ 406 NONAME
	_ZN18QMetaObjectBuilder20addRelatedMetaObjectERKPFRK11QMetaObjectvE @ 407 NONAME
	_ZN18QMetaObjectBuilder23removeRelatedMetaObjectEi @ 408 NONAME
	_ZN18QMetaObjectBuilder25setStaticMetacallFunctionEPFiN11QMetaObject4CallEiPPvE @ 409 NONAME
	_ZN18QMetaObjectBuilder7addSlotERK10QByteArray @ 410 NONAME
	_ZN18QMetaObjectBuilder8setFlagsE6QFlagsINS_14MetaObjectFlagEE @ 411 NONAME
	_ZN18QMetaObjectBuilder9addMethodERK10QByteArray @ 412 NONAME
	_ZN18QMetaObjectBuilder9addMethodERK10QByteArrayS2_ @ 413 NONAME
	_ZN18QMetaObjectBuilder9addMethodERK11QMetaMethod @ 414 NONAME
	_ZN18QMetaObjectBuilder9addSignalERK10QByteArray @ 415 NONAME
	_ZN18QMetaObjectBuilderC1EPK11QMetaObject6QFlagsINS_9AddMemberEE @ 416 NONAME
	_ZN18QMetaObjectBuilderC1Ev @ 417 NONAME
	_ZN18QMetaObjectBuilderC2EPK11QMetaObject6QFlagsINS_9AddMemberEE @ 418 NONAME
	_ZN18QMetaObjectBuilderC2Ev @ 419 NONAME
	_ZN18QMetaObjectBuilderD0Ev @ 420 NONAME
	_ZN18QMetaObjectBuilderD1Ev @ 421 NONAME
	_ZN18QMetaObjectBuilderD2Ev @ 422 NONAME
	_ZN19QDeclarativeAnchors10classBeginEv @ 423 NONAME
	_ZN19QDeclarativeAnchors10resetRightEv @ 424 NONAME
	_ZN19QDeclarativeAnchors10setMarginsEf @ 425 NONAME
	_ZN19QDeclarativeAnchors10topChangedEv @ 426 NONAME
	_ZN19QDeclarativeAnchors11fillChangedEv @ 427 NONAME
	_ZN19QDeclarativeAnchors11leftChangedEv @ 428 NONAME
	_ZN19QDeclarativeAnchors11qt_metacallEN11QMetaObject4CallEiPPv @ 429 NONAME
	_ZN19QDeclarativeAnchors11qt_metacastEPKc @ 430 NONAME
	_ZN19QDeclarativeAnchors11resetBottomEv @ 431 NONAME
	_ZN19QDeclarativeAnchors11setBaselineERK22QDeclarativeAnchorLine @ 432 NONAME
	_ZN19QDeclarativeAnchors11setCenterInEP16QDeclarativeItem @ 433 NONAME ABSENT
	_ZN19QDeclarativeAnchors12rightChangedEv @ 434 NONAME
	_ZN19QDeclarativeAnchors12setTopMarginEf @ 435 NONAME
	_ZN19QDeclarativeAnchors13bottomChangedEv @ 436 NONAME
	_ZN19QDeclarativeAnchors13resetBaselineEv @ 437 NONAME
	_ZN19QDeclarativeAnchors13resetCenterInEv @ 438 NONAME
	_ZN19QDeclarativeAnchors13setLeftMarginEf @ 439 NONAME
	_ZN19QDeclarativeAnchors14marginsChangedEv @ 440 NONAME
	_ZN19QDeclarativeAnchors14setRightMarginEf @ 441 NONAME
	_ZN19QDeclarativeAnchors15baselineChangedEv @ 442 NONAME
	_ZN19QDeclarativeAnchors15centerInChangedEv @ 443 NONAME
	_ZN19QDeclarativeAnchors15setBottomMarginEf @ 444 NONAME
	_ZN19QDeclarativeAnchors16staticMetaObjectE @ 445 NONAME DATA 16
	_ZN19QDeclarativeAnchors16topMarginChangedEv @ 446 NONAME
	_ZN19QDeclarativeAnchors17componentCompleteEv @ 447 NONAME
	_ZN19QDeclarativeAnchors17leftMarginChangedEv @ 448 NONAME
	_ZN19QDeclarativeAnchors17setBaselineOffsetEf @ 449 NONAME
	_ZN19QDeclarativeAnchors17setVerticalCenterERK22QDeclarativeAnchorLine @ 450 NONAME
	_ZN19QDeclarativeAnchors18rightMarginChangedEv @ 451 NONAME
	_ZN19QDeclarativeAnchors19bottomMarginChangedEv @ 452 NONAME
	_ZN19QDeclarativeAnchors19getStaticMetaObjectEv @ 453 NONAME
	_ZN19QDeclarativeAnchors19resetVerticalCenterEv @ 454 NONAME
	_ZN19QDeclarativeAnchors19setHorizontalCenterERK22QDeclarativeAnchorLine @ 455 NONAME
	_ZN19QDeclarativeAnchors21baselineOffsetChangedEv @ 456 NONAME
	_ZN19QDeclarativeAnchors21resetHorizontalCenterEv @ 457 NONAME
	_ZN19QDeclarativeAnchors21verticalCenterChangedEv @ 458 NONAME
	_ZN19QDeclarativeAnchors23horizontalCenterChangedEv @ 459 NONAME
	_ZN19QDeclarativeAnchors23setVerticalCenterOffsetEf @ 460 NONAME
	_ZN19QDeclarativeAnchors25setHorizontalCenterOffsetEf @ 461 NONAME
	_ZN19QDeclarativeAnchors27verticalCenterOffsetChangedEv @ 462 NONAME
	_ZN19QDeclarativeAnchors29horizontalCenterOffsetChangedEv @ 463 NONAME
	_ZN19QDeclarativeAnchors6setTopERK22QDeclarativeAnchorLine @ 464 NONAME
	_ZN19QDeclarativeAnchors7setFillEP16QDeclarativeItem @ 465 NONAME ABSENT
	_ZN19QDeclarativeAnchors7setLeftERK22QDeclarativeAnchorLine @ 466 NONAME
	_ZN19QDeclarativeAnchors8resetTopEv @ 467 NONAME
	_ZN19QDeclarativeAnchors8setRightERK22QDeclarativeAnchorLine @ 468 NONAME
	_ZN19QDeclarativeAnchors9resetFillEv @ 469 NONAME
	_ZN19QDeclarativeAnchors9resetLeftEv @ 470 NONAME
	_ZN19QDeclarativeAnchors9setBottomERK22QDeclarativeAnchorLine @ 471 NONAME
	_ZN19QDeclarativeAnchorsC1EP16QDeclarativeItemP7QObject @ 472 NONAME ABSENT
	_ZN19QDeclarativeAnchorsC1EP7QObject @ 473 NONAME
	_ZN19QDeclarativeAnchorsC2EP16QDeclarativeItemP7QObject @ 474 NONAME ABSENT
	_ZN19QDeclarativeAnchorsC2EP7QObject @ 475 NONAME
	_ZN19QDeclarativeAnchorsD0Ev @ 476 NONAME
	_ZN19QDeclarativeAnchorsD1Ev @ 477 NONAME
	_ZN19QDeclarativeAnchorsD2Ev @ 478 NONAME
	_ZN19QDeclarativeBinding10setEnabledEb6QFlagsIN27QDeclarativePropertyPrivate9WriteFlagEE @ 479 NONAME
	_ZN19QDeclarativeBinding11qt_metacallEN11QMetaObject4CallEiPPv @ 480 NONAME
	_ZN19QDeclarativeBinding11qt_metacastEPKc @ 481 NONAME
	_ZN19QDeclarativeBinding13propertyIndexEv @ 482 NONAME
	_ZN19QDeclarativeBinding16staticMetaObjectE @ 483 NONAME DATA 16
	_ZN19QDeclarativeBinding19getStaticMetaObjectEv @ 484 NONAME
	_ZN19QDeclarativeBinding6updateE6QFlagsIN27QDeclarativePropertyPrivate9WriteFlagEE @ 485 NONAME
	_ZN19QDeclarativeBinding9setTargetERK20QDeclarativeProperty @ 486 NONAME
	_ZN19QDeclarativeBindingC1EPvP20QDeclarativeRefCountP7QObjectP23QDeclarativeContextDataRK7QStringiS4_ @ 487 NONAME
	_ZN19QDeclarativeBindingC1ERK7QStringP7QObjectP19QDeclarativeContextS4_ @ 488 NONAME
	_ZN19QDeclarativeBindingC1ERK7QStringP7QObjectP23QDeclarativeContextDataS4_ @ 489 NONAME
	_ZN19QDeclarativeBindingC2EPvP20QDeclarativeRefCountP7QObjectP23QDeclarativeContextDataRK7QStringiS4_ @ 490 NONAME
	_ZN19QDeclarativeBindingC2ERK7QStringP7QObjectP19QDeclarativeContextS4_ @ 491 NONAME
	_ZN19QDeclarativeBindingC2ERK7QStringP7QObjectP23QDeclarativeContextDataS4_ @ 492 NONAME
	_ZN19QDeclarativeBindingD0Ev @ 493 NONAME
	_ZN19QDeclarativeBindingD1Ev @ 494 NONAME
	_ZN19QDeclarativeBindingD2Ev @ 495 NONAME
	_ZN19QDeclarativeContext10setBaseUrlERK4QUrl @ 496 NONAME
	_ZN19QDeclarativeContext11qt_metacallEN11QMetaObject4CallEiPPv @ 497 NONAME
	_ZN19QDeclarativeContext11qt_metacastEPKc @ 498 NONAME
	_ZN19QDeclarativeContext11resolvedUrlERK4QUrl @ 499 NONAME
	_ZN19QDeclarativeContext16setContextObjectEP7QObject @ 500 NONAME
	_ZN19QDeclarativeContext16staticMetaObjectE @ 501 NONAME DATA 16
	_ZN19QDeclarativeContext18setContextPropertyERK7QStringP7QObject @ 502 NONAME
	_ZN19QDeclarativeContext18setContextPropertyERK7QStringRK8QVariant @ 503 NONAME
	_ZN19QDeclarativeContext19getStaticMetaObjectEv @ 504 NONAME
	_ZN19QDeclarativeContextC1EP18QDeclarativeEngineP7QObject @ 505 NONAME
	_ZN19QDeclarativeContextC1EP18QDeclarativeEngineb @ 506 NONAME
	_ZN19QDeclarativeContextC1EP23QDeclarativeContextData @ 507 NONAME
	_ZN19QDeclarativeContextC1EPS_P7QObject @ 508 NONAME
	_ZN19QDeclarativeContextC2EP18QDeclarativeEngineP7QObject @ 509 NONAME
	_ZN19QDeclarativeContextC2EP18QDeclarativeEngineb @ 510 NONAME
	_ZN19QDeclarativeContextC2EP23QDeclarativeContextData @ 511 NONAME
	_ZN19QDeclarativeContextC2EPS_P7QObject @ 512 NONAME
	_ZN19QDeclarativeContextD0Ev @ 513 NONAME
	_ZN19QDeclarativeContextD1Ev @ 514 NONAME
	_ZN19QDeclarativeContextD2Ev @ 515 NONAME
	_ZN19QDeclarativeDomListC1ERKS_ @ 516 NONAME
	_ZN19QDeclarativeDomListC1Ev @ 517 NONAME
	_ZN19QDeclarativeDomListC2ERKS_ @ 518 NONAME
	_ZN19QDeclarativeDomListC2Ev @ 519 NONAME
	_ZN19QDeclarativeDomListD1Ev @ 520 NONAME
	_ZN19QDeclarativeDomListD2Ev @ 521 NONAME
	_ZN19QDeclarativeDomListaSERKS_ @ 522 NONAME
	_ZN19QDeclarativePrivate12registerTypeERKNS_12RegisterTypeE @ 523 NONAME
	_ZN19QDeclarativePrivate12registerTypeERKNS_17RegisterInterfaceE @ 524 NONAME
	_ZN19QListModelInterface10itemsMovedEiii @ 525 NONAME
	_ZN19QListModelInterface11qt_metacallEN11QMetaObject4CallEiPPv @ 526 NONAME
	_ZN19QListModelInterface11qt_metacastEPKc @ 527 NONAME
	_ZN19QListModelInterface12itemsChangedEiiRK5QListIiE @ 528 NONAME
	_ZN19QListModelInterface12itemsRemovedEii @ 529 NONAME
	_ZN19QListModelInterface13itemsInsertedEii @ 530 NONAME
	_ZN19QListModelInterface16staticMetaObjectE @ 531 NONAME DATA 16
	_ZN19QListModelInterface19getStaticMetaObjectEv @ 532 NONAME
	_ZN20QDeclarativeBehavior10setEnabledEb @ 533 NONAME
	_ZN20QDeclarativeBehavior11qt_metacallEN11QMetaObject4CallEiPPv @ 534 NONAME
	_ZN20QDeclarativeBehavior11qt_metacastEPKc @ 535 NONAME
	_ZN20QDeclarativeBehavior12setAnimationEP29QDeclarativeAbstractAnimation @ 536 NONAME
	_ZN20QDeclarativeBehavior14enabledChangedEv @ 537 NONAME
	_ZN20QDeclarativeBehavior16staticMetaObjectE @ 538 NONAME DATA 16
	_ZN20QDeclarativeBehavior19getStaticMetaObjectEv @ 539 NONAME
	_ZN20QDeclarativeBehavior5writeERK8QVariant @ 540 NONAME
	_ZN20QDeclarativeBehavior9animationEv @ 541 NONAME
	_ZN20QDeclarativeBehavior9setTargetERK20QDeclarativeProperty @ 542 NONAME
	_ZN20QDeclarativeBehaviorC1EP7QObject @ 543 NONAME
	_ZN20QDeclarativeBehaviorC2EP7QObject @ 544 NONAME
	_ZN20QDeclarativeBehaviorD0Ev @ 545 NONAME
	_ZN20QDeclarativeBehaviorD1Ev @ 546 NONAME
	_ZN20QDeclarativeBehaviorD2Ev @ 547 NONAME
	_ZN20QDeclarativeCompiler11buildObjectEPN18QDeclarativeParser6ObjectERKNS_14BindingContextE @ 548 NONAME
	_ZN20QDeclarativeCompiler11buildScriptEPN18QDeclarativeParser6ObjectES2_ @ 549 NONAME ABSENT
	_ZN20QDeclarativeCompiler11buildSignalEPN18QDeclarativeParser8PropertyEPNS0_6ObjectERKNS_14BindingContextE @ 550 NONAME
	_ZN20QDeclarativeCompiler11compileTreeEPN18QDeclarativeParser6ObjectE @ 551 NONAME
	_ZN20QDeclarativeCompiler12buildBindingEPN18QDeclarativeParser5ValueEPNS0_8PropertyERKNS_14BindingContextE @ 552 NONAME
	_ZN20QDeclarativeCompiler12checkValidIdEPN18QDeclarativeParser5ValueERK7QString @ 553 NONAME
	_ZN20QDeclarativeCompiler12compileAliasER18QMetaObjectBuilderR10QByteArrayPN18QDeclarativeParser6ObjectERKNS5_15DynamicPropertyE @ 554 NONAME
	_ZN20QDeclarativeCompiler12genComponentEPN18QDeclarativeParser6ObjectE @ 555 NONAME
	_ZN20QDeclarativeCompiler13buildPropertyEPN18QDeclarativeParser8PropertyEPNS0_6ObjectERKNS_14BindingContextE @ 556 NONAME
	_ZN20QDeclarativeCompiler13genObjectBodyEPN18QDeclarativeParser6ObjectE @ 557 NONAME
	_ZN20QDeclarativeCompiler14buildComponentEPN18QDeclarativeParser6ObjectERKNS_14BindingContextE @ 558 NONAME
	_ZN20QDeclarativeCompiler14buildSubObjectEPN18QDeclarativeParser6ObjectERKNS_14BindingContextE @ 559 NONAME
	_ZN20QDeclarativeCompiler14componentStateEPN18QDeclarativeParser6ObjectE @ 560 NONAME
	_ZN20QDeclarativeCompiler15buildIdPropertyEPN18QDeclarativeParser8PropertyEPNS0_6ObjectE @ 561 NONAME
	_ZN20QDeclarativeCompiler15genContextCacheEv @ 562 NONAME
	_ZN20QDeclarativeCompiler15genListPropertyEPN18QDeclarativeParser8PropertyEPNS0_6ObjectE @ 563 NONAME
	_ZN20QDeclarativeCompiler15genPropertyDataEPN18QDeclarativeParser8PropertyE @ 564 NONAME
	_ZN20QDeclarativeCompiler16buildDynamicMetaEPN18QDeclarativeParser6ObjectENS_15DynamicMetaModeE @ 565 NONAME
	_ZN20QDeclarativeCompiler16checkDynamicMetaEPN18QDeclarativeParser6ObjectE @ 566 NONAME
	_ZN20QDeclarativeCompiler16componentTypeRefEv @ 567 NONAME
	_ZN20QDeclarativeCompiler16findSignalByNameEPK11QMetaObjectRK10QByteArray @ 568 NONAME ABSENT
	_ZN20QDeclarativeCompiler16genValuePropertyEPN18QDeclarativeParser8PropertyEPNS0_6ObjectE @ 569 NONAME
	_ZN20QDeclarativeCompiler16genValueTypeDataEPN18QDeclarativeParser8PropertyES2_ @ 570 NONAME
	_ZN20QDeclarativeCompiler17buildListPropertyEPN18QDeclarativeParser8PropertyEPNS0_6ObjectERKNS_14BindingContextE @ 571 NONAME
	_ZN20QDeclarativeCompiler17doesPropertyExistEPN18QDeclarativeParser8PropertyEPNS0_6ObjectE @ 572 NONAME
	_ZN20QDeclarativeCompiler18deferredPropertiesEPN18QDeclarativeParser6ObjectE @ 573 NONAME
	_ZN20QDeclarativeCompiler18saveComponentStateEv @ 574 NONAME
	_ZN20QDeclarativeCompiler19addBindingReferenceERKNS_16BindingReferenceE @ 575 NONAME
	_ZN20QDeclarativeCompiler20buildGroupedPropertyEPN18QDeclarativeParser8PropertyEPNS0_6ObjectERKNS_14BindingContextE @ 576 NONAME
	_ZN20QDeclarativeCompiler20genBindingAssignmentEPN18QDeclarativeParser5ValueEPNS0_8PropertyEPNS0_6ObjectES4_ @ 577 NONAME
	_ZN20QDeclarativeCompiler20genLiteralAssignmentERK13QMetaPropertyPN18QDeclarativeParser5ValueE @ 578 NONAME
	_ZN20QDeclarativeCompiler20isSignalPropertyNameERK10QByteArray @ 579 NONAME
	_ZN20QDeclarativeCompiler21buildAttachedPropertyEPN18QDeclarativeParser8PropertyEPNS0_6ObjectERKNS_14BindingContextE @ 580 NONAME
	_ZN20QDeclarativeCompiler21genPropertyAssignmentEPN18QDeclarativeParser8PropertyEPNS0_6ObjectES2_ @ 581 NONAME
	_ZN20QDeclarativeCompiler21testLiteralAssignmentERK13QMetaPropertyPN18QDeclarativeParser5ValueE @ 582 NONAME
	_ZN20QDeclarativeCompiler22buildComponentFromRootEPN18QDeclarativeParser6ObjectERKNS_14BindingContextE @ 583 NONAME
	_ZN20QDeclarativeCompiler22buildValueTypePropertyEP7QObjectPN18QDeclarativeParser6ObjectES4_RKNS_14BindingContextE @ 584 NONAME
	_ZN20QDeclarativeCompiler22completeComponentBuildEv @ 585 NONAME
	_ZN20QDeclarativeCompiler22isAttachedPropertyNameERK10QByteArray @ 586 NONAME
	_ZN20QDeclarativeCompiler23buildPropertyAssignmentEPN18QDeclarativeParser8PropertyEPNS0_6ObjectERKNS_14BindingContextE @ 587 NONAME
	_ZN20QDeclarativeCompiler24buildPropertyInNamespaceEPN25QDeclarativeEnginePrivate17ImportedNamespaceEPN18QDeclarativeParser8PropertyEPNS3_6ObjectERKNS_14BindingContextE @ 588 NONAME ABSENT
	_ZN20QDeclarativeCompiler25buildPropertyOnAssignmentEPN18QDeclarativeParser8PropertyEPNS0_6ObjectES4_PNS0_5ValueERKNS_14BindingContextE @ 589 NONAME
	_ZN20QDeclarativeCompiler25buildScriptStringPropertyEPN18QDeclarativeParser8PropertyEPNS0_6ObjectERKNS_14BindingContextE @ 590 NONAME
	_ZN20QDeclarativeCompiler26mergeDynamicMetaPropertiesEPN18QDeclarativeParser6ObjectE @ 591 NONAME
	_ZN20QDeclarativeCompiler27testQualifiedEnumAssignmentERK13QMetaPropertyPN18QDeclarativeParser6ObjectEPNS3_5ValueEPb @ 592 NONAME
	_ZN20QDeclarativeCompiler29buildPropertyObjectAssignmentEPN18QDeclarativeParser8PropertyEPNS0_6ObjectEPNS0_5ValueERKNS_14BindingContextE @ 593 NONAME
	_ZN20QDeclarativeCompiler30buildPropertyLiteralAssignmentEPN18QDeclarativeParser8PropertyEPNS0_6ObjectEPNS0_5ValueERKNS_14BindingContextE @ 594 NONAME
	_ZN20QDeclarativeCompiler5addIdERK7QStringPN18QDeclarativeParser6ObjectE @ 595 NONAME
	_ZN20QDeclarativeCompiler5resetEP24QDeclarativeCompiledData @ 596 NONAME
	_ZN20QDeclarativeCompiler7compileEP18QDeclarativeEngineP29QDeclarativeCompositeTypeDataP24QDeclarativeCompiledData @ 597 NONAME
	_ZN20QDeclarativeCompiler9canCoerceEiPN18QDeclarativeParser6ObjectE @ 598 NONAME
	_ZN20QDeclarativeCompiler9canCoerceEii @ 599 NONAME ABSENT
	_ZN20QDeclarativeCompiler9dumpStatsEv @ 600 NONAME
	_ZN20QDeclarativeCompiler9genObjectEPN18QDeclarativeParser6ObjectE @ 601 NONAME
	_ZN20QDeclarativeCompiler9toQmlTypeEPN18QDeclarativeParser6ObjectE @ 602 NONAME
	_ZN20QDeclarativeCompilerC1Ev @ 603 NONAME
	_ZN20QDeclarativeCompilerC2Ev @ 604 NONAME
	_ZN20QDeclarativeDomValueC1ERKS_ @ 605 NONAME
	_ZN20QDeclarativeDomValueC1Ev @ 606 NONAME
	_ZN20QDeclarativeDomValueC2ERKS_ @ 607 NONAME
	_ZN20QDeclarativeDomValueC2Ev @ 608 NONAME
	_ZN20QDeclarativeDomValueD1Ev @ 609 NONAME
	_ZN20QDeclarativeDomValueD2Ev @ 610 NONAME
	_ZN20QDeclarativeDomValueaSERKS_ @ 611 NONAME
	_ZN20QDeclarativeFlipable11qt_metacallEN11QMetaObject4CallEiPPv @ 612 NONAME
	_ZN20QDeclarativeFlipable11qt_metacastEPKc @ 613 NONAME
	_ZN20QDeclarativeFlipable11sideChangedEv @ 614 NONAME
	_ZN20QDeclarativeFlipable16staticMetaObjectE @ 615 NONAME DATA 16
	_ZN20QDeclarativeFlipable19getStaticMetaObjectEv @ 616 NONAME
	_ZN20QDeclarativeFlipable4backEv @ 617 NONAME
	_ZN20QDeclarativeFlipable5frontEv @ 618 NONAME
	_ZN20QDeclarativeFlipable7setBackEP15QGraphicsObject @ 619 NONAME
	_ZN20QDeclarativeFlipable8setFrontEP15QGraphicsObject @ 620 NONAME
	_ZN20QDeclarativeFlipableC1EP16QDeclarativeItem @ 621 NONAME
	_ZN20QDeclarativeFlipableC2EP16QDeclarativeItem @ 622 NONAME
	_ZN20QDeclarativeFlipableD0Ev @ 623 NONAME
	_ZN20QDeclarativeFlipableD1Ev @ 624 NONAME
	_ZN20QDeclarativeFlipableD2Ev @ 625 NONAME
	_ZN20QDeclarativeGradient11qt_metacallEN11QMetaObject4CallEiPPv @ 626 NONAME
	_ZN20QDeclarativeGradient11qt_metacastEPKc @ 627 NONAME
	_ZN20QDeclarativeGradient16staticMetaObjectE @ 628 NONAME DATA 16
	_ZN20QDeclarativeGradient19getStaticMetaObjectEv @ 629 NONAME
	_ZN20QDeclarativeGradient7updatedEv @ 630 NONAME
	_ZN20QDeclarativeGradient8doUpdateEv @ 631 NONAME
	_ZN20QDeclarativeGridView10itemsMovedEiii @ 632 NONAME
	_ZN20QDeclarativeGridView10modelResetEv @ 633 NONAME
	_ZN20QDeclarativeGridView11createdItemEiP16QDeclarativeItem @ 634 NONAME
	_ZN20QDeclarativeGridView11currentItemEv @ 635 NONAME
	_ZN20QDeclarativeGridView11flowChangedEv @ 636 NONAME
	_ZN20QDeclarativeGridView11qt_metacallEN11QMetaObject4CallEiPPv @ 637 NONAME
	_ZN20QDeclarativeGridView11qt_metacastEPKc @ 638 NONAME
	_ZN20QDeclarativeGridView11setDelegateEP21QDeclarativeComponent @ 639 NONAME
	_ZN20QDeclarativeGridView11setSnapModeENS_8SnapModeE @ 640 NONAME
	_ZN20QDeclarativeGridView12countChangedEv @ 641 NONAME
	_ZN20QDeclarativeGridView12itemsRemovedEii @ 642 NONAME
	_ZN20QDeclarativeGridView12modelChangedEv @ 643 NONAME
	_ZN20QDeclarativeGridView12setCellWidthEi @ 644 NONAME
	_ZN20QDeclarativeGridView12setHighlightEP21QDeclarativeComponent @ 645 NONAME
	_ZN20QDeclarativeGridView13highlightItemEv @ 646 NONAME
	_ZN20QDeclarativeGridView13itemsInsertedEii @ 647 NONAME
	_ZN20QDeclarativeGridView13keyPressEventEP9QKeyEvent @ 648 NONAME
	_ZN20QDeclarativeGridView13setCellHeightEi @ 649 NONAME
	_ZN20QDeclarativeGridView13viewportMovedEv @ 650 NONAME
	_ZN20QDeclarativeGridView14destroyRemovedEv @ 651 NONAME
	_ZN20QDeclarativeGridView14destroyingItemEP16QDeclarativeItem @ 652 NONAME
	_ZN20QDeclarativeGridView14setCacheBufferEi @ 653 NONAME
	_ZN20QDeclarativeGridView14setWrapEnabledEb @ 654 NONAME
	_ZN20QDeclarativeGridView15delegateChangedEv @ 655 NONAME
	_ZN20QDeclarativeGridView15setCurrentIndexEi @ 656 NONAME
	_ZN20QDeclarativeGridView15snapModeChangedEv @ 657 NONAME
	_ZN20QDeclarativeGridView16cellWidthChangedEv @ 658 NONAME
	_ZN20QDeclarativeGridView16highlightChangedEv @ 659 NONAME
	_ZN20QDeclarativeGridView16staticMetaObjectE @ 660 NONAME DATA 16
	_ZN20QDeclarativeGridView17cellHeightChangedEv @ 661 NONAME
	_ZN20QDeclarativeGridView17componentCompleteEv @ 662 NONAME
	_ZN20QDeclarativeGridView18cacheBufferChangedEv @ 663 NONAME
	_ZN20QDeclarativeGridView18moveCurrentIndexUpEv @ 664 NONAME
	_ZN20QDeclarativeGridView19currentIndexChangedEv @ 665 NONAME
	_ZN20QDeclarativeGridView19getStaticMetaObjectEv @ 666 NONAME
	_ZN20QDeclarativeGridView19positionViewAtIndexEii @ 667 NONAME
	_ZN20QDeclarativeGridView20highlightItemChangedEv @ 668 NONAME
	_ZN20QDeclarativeGridView20moveCurrentIndexDownEv @ 669 NONAME
	_ZN20QDeclarativeGridView20moveCurrentIndexLeftEv @ 670 NONAME
	_ZN20QDeclarativeGridView21moveCurrentIndexRightEv @ 671 NONAME
	_ZN20QDeclarativeGridView21qmlAttachedPropertiesEP7QObject @ 672 NONAME
	_ZN20QDeclarativeGridView21setHighlightRangeModeENS_18HighlightRangeModeE @ 673 NONAME
	_ZN20QDeclarativeGridView22trackedPositionChangedEv @ 674 NONAME
	_ZN20QDeclarativeGridView24setPreferredHighlightEndEf @ 675 NONAME
	_ZN20QDeclarativeGridView25highlightRangeModeChangedEv @ 676 NONAME
	_ZN20QDeclarativeGridView25keyNavigationWrapsChangedEv @ 677 NONAME
	_ZN20QDeclarativeGridView26setPreferredHighlightBeginEf @ 678 NONAME
	_ZN20QDeclarativeGridView28preferredHighlightEndChangedEv @ 679 NONAME
	_ZN20QDeclarativeGridView30preferredHighlightBeginChangedEv @ 680 NONAME
	_ZN20QDeclarativeGridView30setHighlightFollowsCurrentItemEb @ 681 NONAME
	_ZN20QDeclarativeGridView5eventEP6QEvent @ 682 NONAME
	_ZN20QDeclarativeGridView6refillEv @ 683 NONAME
	_ZN20QDeclarativeGridView7setFlowENS_4FlowE @ 684 NONAME
	_ZN20QDeclarativeGridView8setModelERK8QVariant @ 685 NONAME
	_ZN20QDeclarativeGridViewC1EP16QDeclarativeItem @ 686 NONAME
	_ZN20QDeclarativeGridViewC2EP16QDeclarativeItem @ 687 NONAME
	_ZN20QDeclarativeGridViewD0Ev @ 688 NONAME
	_ZN20QDeclarativeGridViewD1Ev @ 689 NONAME
	_ZN20QDeclarativeGridViewD2Ev @ 690 NONAME
	_ZN20QDeclarativeListView10itemsMovedEiii @ 691 NONAME
	_ZN20QDeclarativeListView10modelResetEv @ 692 NONAME
	_ZN20QDeclarativeListView10setSpacingEf @ 693 NONAME
	_ZN20QDeclarativeListView11animStoppedEv @ 694 NONAME
	_ZN20QDeclarativeListView11createdItemEiP16QDeclarativeItem @ 695 NONAME
	_ZN20QDeclarativeListView11currentItemEv @ 696 NONAME
	_ZN20QDeclarativeListView11qt_metacallEN11QMetaObject4CallEiPPv @ 697 NONAME
	_ZN20QDeclarativeListView11qt_metacastEPKc @ 698 NONAME
	_ZN20QDeclarativeListView11setDelegateEP21QDeclarativeComponent @ 699 NONAME
	_ZN20QDeclarativeListView11setSnapModeENS_8SnapModeE @ 700 NONAME
	_ZN20QDeclarativeListView12countChangedEv @ 701 NONAME
	_ZN20QDeclarativeListView12itemsRemovedEii @ 702 NONAME
	_ZN20QDeclarativeListView12modelChangedEv @ 703 NONAME
	_ZN20QDeclarativeListView12setHighlightEP21QDeclarativeComponent @ 704 NONAME
	_ZN20QDeclarativeListView13footerChangedEv @ 705 NONAME
	_ZN20QDeclarativeListView13headerChangedEv @ 706 NONAME
	_ZN20QDeclarativeListView13highlightItemEv @ 707 NONAME
	_ZN20QDeclarativeListView13itemsInsertedEii @ 708 NONAME
	_ZN20QDeclarativeListView13keyPressEventEP9QKeyEvent @ 709 NONAME
	_ZN20QDeclarativeListView13viewportMovedEv @ 710 NONAME
	_ZN20QDeclarativeListView14destroyRemovedEv @ 711 NONAME
	_ZN20QDeclarativeListView14destroyingItemEP16QDeclarativeItem @ 712 NONAME
	_ZN20QDeclarativeListView14setCacheBufferEi @ 713 NONAME
	_ZN20QDeclarativeListView14setOrientationENS_11OrientationE @ 714 NONAME
	_ZN20QDeclarativeListView14setWrapEnabledEb @ 715 NONAME
	_ZN20QDeclarativeListView14spacingChangedEv @ 716 NONAME
	_ZN20QDeclarativeListView15delegateChangedEv @ 717 NONAME
	_ZN20QDeclarativeListView15sectionCriteriaEv @ 718 NONAME
	_ZN20QDeclarativeListView15setCurrentIndexEi @ 719 NONAME
	_ZN20QDeclarativeListView15snapModeChangedEv @ 720 NONAME
	_ZN20QDeclarativeListView16highlightChangedEv @ 721 NONAME
	_ZN20QDeclarativeListView16staticMetaObjectE @ 722 NONAME DATA 16
	_ZN20QDeclarativeListView17componentCompleteEv @ 723 NONAME
	_ZN20QDeclarativeListView18cacheBufferChangedEv @ 724 NONAME
	_ZN20QDeclarativeListView18orientationChangedEv @ 725 NONAME
	_ZN20QDeclarativeListView19currentIndexChangedEv @ 726 NONAME
	_ZN20QDeclarativeListView19getStaticMetaObjectEv @ 727 NONAME
	_ZN20QDeclarativeListView19positionViewAtIndexEii @ 728 NONAME
	_ZN20QDeclarativeListView20highlightItemChangedEv @ 729 NONAME
	_ZN20QDeclarativeListView21currentSectionChangedEv @ 730 NONAME
	_ZN20QDeclarativeListView21decrementCurrentIndexEv @ 731 NONAME
	_ZN20QDeclarativeListView21incrementCurrentIndexEv @ 732 NONAME
	_ZN20QDeclarativeListView21qmlAttachedPropertiesEP7QObject @ 733 NONAME
	_ZN20QDeclarativeListView21setHighlightMoveSpeedEf @ 734 NONAME
	_ZN20QDeclarativeListView21setHighlightRangeModeENS_18HighlightRangeModeE @ 735 NONAME
	_ZN20QDeclarativeListView22trackedPositionChangedEv @ 736 NONAME
	_ZN20QDeclarativeListView23setHighlightResizeSpeedEf @ 737 NONAME
	_ZN20QDeclarativeListView24setPreferredHighlightEndEf @ 738 NONAME
	_ZN20QDeclarativeListView25highlightMoveSpeedChangedEv @ 739 NONAME
	_ZN20QDeclarativeListView25highlightRangeModeChangedEv @ 740 NONAME
	_ZN20QDeclarativeListView25keyNavigationWrapsChangedEv @ 741 NONAME
	_ZN20QDeclarativeListView26setPreferredHighlightBeginEf @ 742 NONAME
	_ZN20QDeclarativeListView27highlightResizeSpeedChangedEv @ 743 NONAME
	_ZN20QDeclarativeListView28preferredHighlightEndChangedEv @ 744 NONAME
	_ZN20QDeclarativeListView30preferredHighlightBeginChangedEv @ 745 NONAME
	_ZN20QDeclarativeListView30setHighlightFollowsCurrentItemEb @ 746 NONAME
	_ZN20QDeclarativeListView34highlightFollowsCurrentItemChangedEv @ 747 NONAME
	_ZN20QDeclarativeListView5eventEP6QEvent @ 748 NONAME
	_ZN20QDeclarativeListView6refillEv @ 749 NONAME
	_ZN20QDeclarativeListView8setModelERK8QVariant @ 750 NONAME
	_ZN20QDeclarativeListView9setFooterEP21QDeclarativeComponent @ 751 NONAME
	_ZN20QDeclarativeListView9setHeaderEP21QDeclarativeComponent @ 752 NONAME
	_ZN20QDeclarativeListViewC1EP16QDeclarativeItem @ 753 NONAME
	_ZN20QDeclarativeListViewC2EP16QDeclarativeItem @ 754 NONAME
	_ZN20QDeclarativeListViewD0Ev @ 755 NONAME
	_ZN20QDeclarativeListViewD1Ev @ 756 NONAME
	_ZN20QDeclarativeListViewD2Ev @ 757 NONAME
	_ZN20QDeclarativeMetaType11isInterfaceEi @ 758 NONAME
	_ZN20QDeclarativeMetaType12interfaceIIdEi @ 759 NONAME
	_ZN20QDeclarativeMetaType12qmlTypeNamesEv @ 760 NONAME
	_ZN20QDeclarativeMetaType12typeCategoryEi @ 761 NONAME
	_ZN20QDeclarativeMetaType13defaultMethodEP7QObject @ 762 NONAME
	_ZN20QDeclarativeMetaType13defaultMethodEPK11QMetaObject @ 763 NONAME
	_ZN20QDeclarativeMetaType15defaultPropertyEP7QObject @ 764 NONAME
	_ZN20QDeclarativeMetaType15defaultPropertyEPK11QMetaObject @ 765 NONAME
	_ZN20QDeclarativeMetaType21customStringConverterEi @ 766 NONAME
	_ZN20QDeclarativeMetaType24attachedPropertiesFuncIdEPK11QMetaObject @ 767 NONAME
	_ZN20QDeclarativeMetaType26attachedPropertiesFuncByIdEi @ 768 NONAME
	_ZN20QDeclarativeMetaType29registerCustomStringConverterEiPF8QVariantRK7QStringE @ 769 NONAME
	_ZN20QDeclarativeMetaType4copyEiPvPKv @ 770 NONAME
	_ZN20QDeclarativeMetaType6isListEi @ 771 NONAME
	_ZN20QDeclarativeMetaType7qmlTypeEPK11QMetaObject @ 772 NONAME
	_ZN20QDeclarativeMetaType7qmlTypeERK10QByteArrayii @ 773 NONAME
	_ZN20QDeclarativeMetaType7qmlTypeEi @ 774 NONAME
	_ZN20QDeclarativeMetaType8isModuleERK10QByteArrayii @ 775 NONAME
	_ZN20QDeclarativeMetaType8listTypeEi @ 776 NONAME
	_ZN20QDeclarativeMetaType8qmlTypesEv @ 777 NONAME
	_ZN20QDeclarativeMetaType9isQObjectEi @ 778 NONAME
	_ZN20QDeclarativeMetaType9toQObjectERK8QVariantPb @ 779 NONAME
	_ZN20QDeclarativePathLine11qt_metacallEN11QMetaObject4CallEiPPv @ 780 NONAME
	_ZN20QDeclarativePathLine11qt_metacastEPKc @ 781 NONAME
	_ZN20QDeclarativePathLine16staticMetaObjectE @ 782 NONAME DATA 16
	_ZN20QDeclarativePathLine19getStaticMetaObjectEv @ 783 NONAME
	_ZN20QDeclarativePathLine9addToPathER12QPainterPath @ 784 NONAME
	_ZN20QDeclarativePathQuad11qt_metacallEN11QMetaObject4CallEiPPv @ 785 NONAME
	_ZN20QDeclarativePathQuad11qt_metacastEPKc @ 786 NONAME
	_ZN20QDeclarativePathQuad11setControlXEf @ 787 NONAME
	_ZN20QDeclarativePathQuad11setControlYEf @ 788 NONAME
	_ZN20QDeclarativePathQuad16staticMetaObjectE @ 789 NONAME DATA 16
	_ZN20QDeclarativePathQuad19getStaticMetaObjectEv @ 790 NONAME
	_ZN20QDeclarativePathQuad9addToPathER12QPainterPath @ 791 NONAME
	_ZN20QDeclarativePathView10itemsMovedEiii @ 792 NONAME
	_ZN20QDeclarativePathView10modelResetEv @ 793 NONAME
	_ZN20QDeclarativePathView11createdItemEiP16QDeclarativeItem @ 794 NONAME
	_ZN20QDeclarativePathView11pathChangedEv @ 795 NONAME
	_ZN20QDeclarativePathView11qt_metacallEN11QMetaObject4CallEiPPv @ 796 NONAME
	_ZN20QDeclarativePathView11qt_metacastEPKc @ 797 NONAME
	_ZN20QDeclarativePathView11setDelegateEP21QDeclarativeComponent @ 798 NONAME
	_ZN20QDeclarativePathView12countChangedEv @ 799 NONAME
	_ZN20QDeclarativePathView12itemsRemovedEii @ 800 NONAME
	_ZN20QDeclarativePathView12modelChangedEv @ 801 NONAME
	_ZN20QDeclarativePathView12setHighlightEP21QDeclarativeComponent @ 802 NONAME
	_ZN20QDeclarativePathView13highlightItemEv @ 803 NONAME
	_ZN20QDeclarativePathView13itemsInsertedEii @ 804 NONAME
	_ZN20QDeclarativePathView13offsetChangedEv @ 805 NONAME
	_ZN20QDeclarativePathView13setDragMarginEf @ 806 NONAME
	_ZN20QDeclarativePathView14destroyingItemEP16QDeclarativeItem @ 807 NONAME
	_ZN20QDeclarativePathView14mouseMoveEventEP24QGraphicsSceneMouseEvent @ 808 NONAME
	_ZN20QDeclarativePathView14sendMouseEventEP24QGraphicsSceneMouseEvent @ 809 NONAME
	_ZN20QDeclarativePathView14setInteractiveEb @ 810 NONAME
	_ZN20QDeclarativePathView15delegateChangedEv @ 811 NONAME
	_ZN20QDeclarativePathView15mousePressEventEP24QGraphicsSceneMouseEvent @ 812 NONAME
	_ZN20QDeclarativePathView15setCurrentIndexEi @ 813 NONAME
	_ZN20QDeclarativePathView16highlightChangedEv @ 814 NONAME
	_ZN20QDeclarativePathView16sceneEventFilterEP13QGraphicsItemP6QEvent @ 815 NONAME
	_ZN20QDeclarativePathView16setPathItemCountEi @ 816 NONAME
	_ZN20QDeclarativePathView16staticMetaObjectE @ 817 NONAME DATA 16
	_ZN20QDeclarativePathView17componentCompleteEv @ 818 NONAME
	_ZN20QDeclarativePathView17dragMarginChangedEv @ 819 NONAME
	_ZN20QDeclarativePathView17mouseReleaseEventEP24QGraphicsSceneMouseEvent @ 820 NONAME
	_ZN20QDeclarativePathView18interactiveChangedEv @ 821 NONAME
	_ZN20QDeclarativePathView19currentIndexChangedEv @ 822 NONAME
	_ZN20QDeclarativePathView19getStaticMetaObjectEv @ 823 NONAME
	_ZN20QDeclarativePathView19snapPositionChangedEv @ 824 NONAME
	_ZN20QDeclarativePathView20highlightItemChangedEv @ 825 NONAME
	_ZN20QDeclarativePathView20pathItemCountChangedEv @ 826 NONAME
	_ZN20QDeclarativePathView20setFlickDecelerationEf @ 827 NONAME
	_ZN20QDeclarativePathView21qmlAttachedPropertiesEP7QObject @ 828 NONAME
	_ZN20QDeclarativePathView21setHighlightRangeModeENS_18HighlightRangeModeE @ 829 NONAME
	_ZN20QDeclarativePathView24flickDecelerationChangedEv @ 830 NONAME
	_ZN20QDeclarativePathView24setPreferredHighlightEndEf @ 831 NONAME
	_ZN20QDeclarativePathView25highlightRangeModeChangedEv @ 832 NONAME
	_ZN20QDeclarativePathView26setPreferredHighlightBeginEf @ 833 NONAME
	_ZN20QDeclarativePathView28preferredHighlightEndChangedEv @ 834 NONAME
	_ZN20QDeclarativePathView30preferredHighlightBeginChangedEv @ 835 NONAME
	_ZN20QDeclarativePathView6refillEv @ 836 NONAME
	_ZN20QDeclarativePathView6tickedEv @ 837 NONAME
	_ZN20QDeclarativePathView7setPathEP16QDeclarativePath @ 838 NONAME
	_ZN20QDeclarativePathView8setModelERK8QVariant @ 839 NONAME
	_ZN20QDeclarativePathView9setOffsetEf @ 840 NONAME
	_ZN20QDeclarativePathViewC1EP16QDeclarativeItem @ 841 NONAME
	_ZN20QDeclarativePathViewC2EP16QDeclarativeItem @ 842 NONAME
	_ZN20QDeclarativePathViewD0Ev @ 843 NONAME
	_ZN20QDeclarativePathViewD1Ev @ 844 NONAME
	_ZN20QDeclarativePathViewD2Ev @ 845 NONAME
	_ZN20QDeclarativeProperty4readEP7QObjectRK7QString @ 846 NONAME
	_ZN20QDeclarativeProperty4readEP7QObjectRK7QStringP18QDeclarativeEngine @ 847 NONAME
	_ZN20QDeclarativeProperty4readEP7QObjectRK7QStringP19QDeclarativeContext @ 848 NONAME
	_ZN20QDeclarativeProperty5writeEP7QObjectRK7QStringRK8QVariant @ 849 NONAME
	_ZN20QDeclarativeProperty5writeEP7QObjectRK7QStringRK8QVariantP18QDeclarativeEngine @ 850 NONAME
	_ZN20QDeclarativeProperty5writeEP7QObjectRK7QStringRK8QVariantP19QDeclarativeContext @ 851 NONAME
	_ZN20QDeclarativePropertyC1EP7QObject @ 852 NONAME
	_ZN20QDeclarativePropertyC1EP7QObjectP18QDeclarativeEngine @ 853 NONAME
	_ZN20QDeclarativePropertyC1EP7QObjectP19QDeclarativeContext @ 854 NONAME
	_ZN20QDeclarativePropertyC1EP7QObjectRK7QString @ 855 NONAME
	_ZN20QDeclarativePropertyC1EP7QObjectRK7QStringP18QDeclarativeEngine @ 856 NONAME
	_ZN20QDeclarativePropertyC1EP7QObjectRK7QStringP19QDeclarativeContext @ 857 NONAME
	_ZN20QDeclarativePropertyC1ERKS_ @ 858 NONAME
	_ZN20QDeclarativePropertyC1Ev @ 859 NONAME
	_ZN20QDeclarativePropertyC2EP7QObject @ 860 NONAME
	_ZN20QDeclarativePropertyC2EP7QObjectP18QDeclarativeEngine @ 861 NONAME
	_ZN20QDeclarativePropertyC2EP7QObjectP19QDeclarativeContext @ 862 NONAME
	_ZN20QDeclarativePropertyC2EP7QObjectRK7QString @ 863 NONAME
	_ZN20QDeclarativePropertyC2EP7QObjectRK7QStringP18QDeclarativeEngine @ 864 NONAME
	_ZN20QDeclarativePropertyC2EP7QObjectRK7QStringP19QDeclarativeContext @ 865 NONAME
	_ZN20QDeclarativePropertyC2ERKS_ @ 866 NONAME
	_ZN20QDeclarativePropertyC2Ev @ 867 NONAME
	_ZN20QDeclarativePropertyD1Ev @ 868 NONAME
	_ZN20QDeclarativePropertyD2Ev @ 869 NONAME
	_ZN20QDeclarativePropertyaSERKS_ @ 870 NONAME
	_ZN20QDeclarativeRepeater10itemChangeEN13QGraphicsItem18GraphicsItemChangeERK8QVariant @ 871 NONAME
	_ZN20QDeclarativeRepeater10itemsMovedEiii @ 872 NONAME
	_ZN20QDeclarativeRepeater10modelResetEv @ 873 NONAME
	_ZN20QDeclarativeRepeater10regenerateEv @ 874 NONAME
	_ZN20QDeclarativeRepeater11qt_metacallEN11QMetaObject4CallEiPPv @ 875 NONAME
	_ZN20QDeclarativeRepeater11qt_metacastEPKc @ 876 NONAME
	_ZN20QDeclarativeRepeater11setDelegateEP21QDeclarativeComponent @ 877 NONAME
	_ZN20QDeclarativeRepeater12countChangedEv @ 878 NONAME
	_ZN20QDeclarativeRepeater12itemsRemovedEii @ 879 NONAME
	_ZN20QDeclarativeRepeater12modelChangedEv @ 880 NONAME
	_ZN20QDeclarativeRepeater13itemsInsertedEii @ 881 NONAME
	_ZN20QDeclarativeRepeater15delegateChangedEv @ 882 NONAME
	_ZN20QDeclarativeRepeater16staticMetaObjectE @ 883 NONAME DATA 16
	_ZN20QDeclarativeRepeater17componentCompleteEv @ 884 NONAME
	_ZN20QDeclarativeRepeater19getStaticMetaObjectEv @ 885 NONAME
	_ZN20QDeclarativeRepeater5clearEv @ 886 NONAME
	_ZN20QDeclarativeRepeater8setModelERK8QVariant @ 887 NONAME
	_ZN20QDeclarativeRepeaterC1EP16QDeclarativeItem @ 888 NONAME
	_ZN20QDeclarativeRepeaterC2EP16QDeclarativeItem @ 889 NONAME
	_ZN20QDeclarativeRepeaterD0Ev @ 890 NONAME
	_ZN20QDeclarativeRepeaterD1Ev @ 891 NONAME
	_ZN20QDeclarativeRepeaterD2Ev @ 892 NONAME
	_ZN20QDeclarativeTextEdit10updateSizeEv @ 893 NONAME
	_ZN20QDeclarativeTextEdit11fontChangedERK5QFont @ 894 NONAME
	_ZN20QDeclarativeTextEdit11qt_metacallEN11QMetaObject4CallEiPPv @ 895 NONAME
	_ZN20QDeclarativeTextEdit11qt_metacastEPKc @ 896 NONAME
	_ZN20QDeclarativeTextEdit11setReadOnlyEb @ 897 NONAME
	_ZN20QDeclarativeTextEdit11textChangedERK7QString @ 898 NONAME
	_ZN20QDeclarativeTextEdit11wrapChangedEb @ 899 NONAME ABSENT
	_ZN20QDeclarativeTextEdit12colorChangedERK6QColor @ 900 NONAME
	_ZN20QDeclarativeTextEdit12drawContentsEP8QPainterRK5QRect @ 901 NONAME
	_ZN20QDeclarativeTextEdit13keyPressEventEP9QKeyEvent @ 902 NONAME
	_ZN20QDeclarativeTextEdit13q_textChangedEv @ 903 NONAME
	_ZN20QDeclarativeTextEdit13setTextFormatENS_10TextFormatE @ 904 NONAME
	_ZN20QDeclarativeTextEdit13setTextMarginEf @ 905 NONAME
	_ZN20QDeclarativeTextEdit14mouseMoveEventEP24QGraphicsSceneMouseEvent @ 906 NONAME
	_ZN20QDeclarativeTextEdit14updateImgCacheERK6QRectF @ 907 NONAME
	_ZN20QDeclarativeTextEdit15geometryChangedERK6QRectFS2_ @ 908 NONAME
	_ZN20QDeclarativeTextEdit15keyReleaseEventEP9QKeyEvent @ 909 NONAME
	_ZN20QDeclarativeTextEdit15mousePressEventEP24QGraphicsSceneMouseEvent @ 910 NONAME
	_ZN20QDeclarativeTextEdit15readOnlyChangedEb @ 911 NONAME
	_ZN20QDeclarativeTextEdit15setFocusOnPressEb @ 912 NONAME
	_ZN20QDeclarativeTextEdit15setSelectionEndEi @ 913 NONAME ABSENT
	_ZN20QDeclarativeTextEdit16inputMethodEventEP17QInputMethodEvent @ 914 NONAME
	_ZN20QDeclarativeTextEdit16selectionChangedEv @ 915 NONAME
	_ZN20QDeclarativeTextEdit16setCursorVisibleEb @ 916 NONAME
	_ZN20QDeclarativeTextEdit16staticMetaObjectE @ 917 NONAME DATA 16
	_ZN20QDeclarativeTextEdit17componentCompleteEv @ 918 NONAME
	_ZN20QDeclarativeTextEdit17mouseReleaseEventEP24QGraphicsSceneMouseEvent @ 919 NONAME
	_ZN20QDeclarativeTextEdit17setCursorDelegateEP21QDeclarativeComponent @ 920 NONAME
	_ZN20QDeclarativeTextEdit17setCursorPositionEi @ 921 NONAME
	_ZN20QDeclarativeTextEdit17setSelectionColorERK6QColor @ 922 NONAME
	_ZN20QDeclarativeTextEdit17setSelectionStartEi @ 923 NONAME ABSENT
	_ZN20QDeclarativeTextEdit17textFormatChangedENS_10TextFormatE @ 924 NONAME
	_ZN20QDeclarativeTextEdit17textMarginChangedEf @ 925 NONAME
	_ZN20QDeclarativeTextEdit18loadCursorDelegateEv @ 926 NONAME
	_ZN20QDeclarativeTextEdit18moveCursorDelegateEv @ 927 NONAME
	_ZN20QDeclarativeTextEdit19focusOnPressChangedEb @ 928 NONAME
	_ZN20QDeclarativeTextEdit19getStaticMetaObjectEv @ 929 NONAME
	_ZN20QDeclarativeTextEdit19selectionEndChangedEv @ 930 NONAME
	_ZN20QDeclarativeTextEdit20cursorVisibleChangedEb @ 931 NONAME
	_ZN20QDeclarativeTextEdit20setSelectedTextColorERK6QColor @ 932 NONAME
	_ZN20QDeclarativeTextEdit21cursorDelegateChangedEv @ 933 NONAME
	_ZN20QDeclarativeTextEdit21cursorPositionChangedEv @ 934 NONAME
	_ZN20QDeclarativeTextEdit21mouseDoubleClickEventEP24QGraphicsSceneMouseEvent @ 935 NONAME
	_ZN20QDeclarativeTextEdit21selectionColorChangedERK6QColor @ 936 NONAME
	_ZN20QDeclarativeTextEdit21selectionStartChangedEv @ 937 NONAME
	_ZN20QDeclarativeTextEdit22setPersistentSelectionEb @ 938 NONAME
	_ZN20QDeclarativeTextEdit22updateSelectionMarkersEv @ 939 NONAME
	_ZN20QDeclarativeTextEdit23setTextInteractionFlagsE6QFlagsIN2Qt19TextInteractionFlagEE @ 940 NONAME
	_ZN20QDeclarativeTextEdit24selectedTextColorChangedERK6QColor @ 941 NONAME
	_ZN20QDeclarativeTextEdit24verticalAlignmentChangedENS_10VAlignmentE @ 942 NONAME
	_ZN20QDeclarativeTextEdit26horizontalAlignmentChangedENS_10HAlignmentE @ 943 NONAME
	_ZN20QDeclarativeTextEdit26persistentSelectionChangedEb @ 944 NONAME
	_ZN20QDeclarativeTextEdit5eventEP6QEvent @ 945 NONAME
	_ZN20QDeclarativeTextEdit7setFontERK5QFont @ 946 NONAME
	_ZN20QDeclarativeTextEdit7setTextERK7QString @ 947 NONAME
	_ZN20QDeclarativeTextEdit7setWrapEb @ 948 NONAME ABSENT
	_ZN20QDeclarativeTextEdit8setColorERK6QColor @ 949 NONAME
	_ZN20QDeclarativeTextEdit9selectAllEv @ 950 NONAME
	_ZN20QDeclarativeTextEdit9setHAlignENS_10HAlignmentE @ 951 NONAME
	_ZN20QDeclarativeTextEdit9setVAlignENS_10VAlignmentE @ 952 NONAME
	_ZN20QDeclarativeTextEditC1EP16QDeclarativeItem @ 953 NONAME
	_ZN20QDeclarativeTextEditC2EP16QDeclarativeItem @ 954 NONAME
	_ZN20QMetaPropertyBuilder10setDynamicEb @ 955 NONAME
	_ZN20QMetaPropertyBuilder11setEditableEb @ 956 NONAME
	_ZN20QMetaPropertyBuilder11setReadableEb @ 957 NONAME
	_ZN20QMetaPropertyBuilder11setWritableEb @ 958 NONAME
	_ZN20QMetaPropertyBuilder12setStdCppSetEb @ 959 NONAME
	_ZN20QMetaPropertyBuilder13setDesignableEb @ 960 NONAME
	_ZN20QMetaPropertyBuilder13setEnumOrFlagEb @ 961 NONAME
	_ZN20QMetaPropertyBuilder13setResettableEb @ 962 NONAME
	_ZN20QMetaPropertyBuilder13setScriptableEb @ 963 NONAME
	_ZN20QMetaPropertyBuilder15setNotifySignalERK18QMetaMethodBuilder @ 964 NONAME
	_ZN20QMetaPropertyBuilder18removeNotifySignalEv @ 965 NONAME
	_ZN20QMetaPropertyBuilder7setUserEb @ 966 NONAME
	_ZN20QMetaPropertyBuilder9setStoredEb @ 967 NONAME
	_ZN21QDeclarativeComponent11beginCreateEP19QDeclarativeContext @ 968 NONAME
	_ZN21QDeclarativeComponent11qt_metacallEN11QMetaObject4CallEiPPv @ 969 NONAME
	_ZN21QDeclarativeComponent11qt_metacastEPKc @ 970 NONAME
	_ZN21QDeclarativeComponent12createObjectEv @ 971 NONAME ABSENT
	_ZN21QDeclarativeComponent13statusChangedENS_6StatusE @ 972 NONAME
	_ZN21QDeclarativeComponent14completeCreateEv @ 973 NONAME
	_ZN21QDeclarativeComponent15progressChangedEf @ 974 NONAME
	_ZN21QDeclarativeComponent16staticMetaObjectE @ 975 NONAME DATA 16
	_ZN21QDeclarativeComponent19getStaticMetaObjectEv @ 976 NONAME
	_ZN21QDeclarativeComponent21qmlAttachedPropertiesEP7QObject @ 977 NONAME
	_ZN21QDeclarativeComponent6createEP19QDeclarativeContext @ 978 NONAME
	_ZN21QDeclarativeComponent7loadUrlERK4QUrl @ 979 NONAME
	_ZN21QDeclarativeComponent7setDataERK10QByteArrayRK4QUrl @ 980 NONAME
	_ZN21QDeclarativeComponentC1EP18QDeclarativeEngineP24QDeclarativeCompiledDataiiP7QObject @ 981 NONAME
	_ZN21QDeclarativeComponentC1EP18QDeclarativeEngineP7QObject @ 982 NONAME
	_ZN21QDeclarativeComponentC1EP18QDeclarativeEngineRK4QUrlP7QObject @ 983 NONAME
	_ZN21QDeclarativeComponentC1EP18QDeclarativeEngineRK7QStringP7QObject @ 984 NONAME
	_ZN21QDeclarativeComponentC1EP7QObject @ 985 NONAME
	_ZN21QDeclarativeComponentC1ER28QDeclarativeComponentPrivateP7QObject @ 986 NONAME
	_ZN21QDeclarativeComponentC2EP18QDeclarativeEngineP24QDeclarativeCompiledDataiiP7QObject @ 987 NONAME
	_ZN21QDeclarativeComponentC2EP18QDeclarativeEngineP7QObject @ 988 NONAME
	_ZN21QDeclarativeComponentC2EP18QDeclarativeEngineRK4QUrlP7QObject @ 989 NONAME
	_ZN21QDeclarativeComponentC2EP18QDeclarativeEngineRK7QStringP7QObject @ 990 NONAME
	_ZN21QDeclarativeComponentC2EP7QObject @ 991 NONAME
	_ZN21QDeclarativeComponentC2ER28QDeclarativeComponentPrivateP7QObject @ 992 NONAME
	_ZN21QDeclarativeComponentD0Ev @ 993 NONAME
	_ZN21QDeclarativeComponentD1Ev @ 994 NONAME
	_ZN21QDeclarativeComponentD2Ev @ 995 NONAME
	_ZN21QDeclarativeDomImportC1ERKS_ @ 996 NONAME
	_ZN21QDeclarativeDomImportC1Ev @ 997 NONAME
	_ZN21QDeclarativeDomImportC2ERKS_ @ 998 NONAME
	_ZN21QDeclarativeDomImportC2Ev @ 999 NONAME
	_ZN21QDeclarativeDomImportD1Ev @ 1000 NONAME
	_ZN21QDeclarativeDomImportD2Ev @ 1001 NONAME
	_ZN21QDeclarativeDomImportaSERKS_ @ 1002 NONAME
	_ZN21QDeclarativeDomObjectC1ERKS_ @ 1003 NONAME
	_ZN21QDeclarativeDomObjectC1Ev @ 1004 NONAME
	_ZN21QDeclarativeDomObjectC2ERKS_ @ 1005 NONAME
	_ZN21QDeclarativeDomObjectC2Ev @ 1006 NONAME
	_ZN21QDeclarativeDomObjectD1Ev @ 1007 NONAME
	_ZN21QDeclarativeDomObjectD2Ev @ 1008 NONAME
	_ZN21QDeclarativeDomObjectaSERKS_ @ 1009 NONAME
	_ZN21QDeclarativeFlickable10flickEndedEv @ 1010 NONAME
	_ZN21QDeclarativeFlickable10timerEventEP11QTimerEvent @ 1011 NONAME
	_ZN21QDeclarativeFlickable10wheelEventEP24QGraphicsSceneWheelEvent @ 1012 NONAME
	_ZN21QDeclarativeFlickable11cancelFlickEv @ 1013 NONAME
	_ZN21QDeclarativeFlickable11pageChangedEv @ 1014 NONAME
	_ZN21QDeclarativeFlickable11qt_metacallEN11QMetaObject4CallEiPPv @ 1015 NONAME
	_ZN21QDeclarativeFlickable11qt_metacastEPKc @ 1016 NONAME
	_ZN21QDeclarativeFlickable11setContentXEf @ 1017 NONAME
	_ZN21QDeclarativeFlickable11setContentYEf @ 1018 NONAME
	_ZN21QDeclarativeFlickable11visibleAreaEv @ 1019 NONAME
	_ZN21QDeclarativeFlickable12flickStartedEv @ 1020 NONAME
	_ZN21QDeclarativeFlickable12setOverShootEb @ 1021 NONAME ABSENT
	_ZN21QDeclarativeFlickable13flickableDataEv @ 1022 NONAME
	_ZN21QDeclarativeFlickable13movementEndedEv @ 1023 NONAME
	_ZN21QDeclarativeFlickable13movingChangedEv @ 1024 NONAME
	_ZN21QDeclarativeFlickable13setPressDelayEi @ 1025 NONAME
	_ZN21QDeclarativeFlickable13viewportMovedEv @ 1026 NONAME
	_ZN21QDeclarativeFlickable14mouseMoveEventEP24QGraphicsSceneMouseEvent @ 1027 NONAME
	_ZN21QDeclarativeFlickable14movementEndingEv @ 1028 NONAME
	_ZN21QDeclarativeFlickable14sendMouseEventEP24QGraphicsSceneMouseEvent @ 1029 NONAME
	_ZN21QDeclarativeFlickable14setInteractiveEb @ 1030 NONAME
	_ZN21QDeclarativeFlickable15contentXChangedEv @ 1031 NONAME
	_ZN21QDeclarativeFlickable15contentYChangedEv @ 1032 NONAME
	_ZN21QDeclarativeFlickable15flickingChangedEv @ 1033 NONAME
	_ZN21QDeclarativeFlickable15geometryChangedERK6QRectFS2_ @ 1034 NONAME
	_ZN21QDeclarativeFlickable15mousePressEventEP24QGraphicsSceneMouseEvent @ 1035 NONAME
	_ZN21QDeclarativeFlickable15movementStartedEv @ 1036 NONAME
	_ZN21QDeclarativeFlickable15setContentWidthEf @ 1037 NONAME
	_ZN21QDeclarativeFlickable16movementStartingEv @ 1038 NONAME
	_ZN21QDeclarativeFlickable16overShootChangedEv @ 1039 NONAME ABSENT
	_ZN21QDeclarativeFlickable16sceneEventFilterEP13QGraphicsItemP6QEvent @ 1040 NONAME
	_ZN21QDeclarativeFlickable16setContentHeightEf @ 1041 NONAME
	_ZN21QDeclarativeFlickable16staticMetaObjectE @ 1042 NONAME DATA 16
	_ZN21QDeclarativeFlickable17flickableChildrenEv @ 1043 NONAME
	_ZN21QDeclarativeFlickable17mouseReleaseEventEP24QGraphicsSceneMouseEvent @ 1044 NONAME
	_ZN21QDeclarativeFlickable17pressDelayChangedEv @ 1045 NONAME
	_ZN21QDeclarativeFlickable17setFlickDirectionENS_14FlickDirectionE @ 1046 NONAME ABSENT
	_ZN21QDeclarativeFlickable18interactiveChangedEv @ 1047 NONAME
	_ZN21QDeclarativeFlickable19contentWidthChangedEv @ 1048 NONAME
	_ZN21QDeclarativeFlickable19getStaticMetaObjectEv @ 1049 NONAME
	_ZN21QDeclarativeFlickable19isAtBoundaryChangedEv @ 1050 NONAME
	_ZN21QDeclarativeFlickable20contentHeightChangedEv @ 1051 NONAME
	_ZN21QDeclarativeFlickable20setFlickDecelerationEf @ 1052 NONAME
	_ZN21QDeclarativeFlickable21flickDirectionChangedEv @ 1053 NONAME ABSENT
	_ZN21QDeclarativeFlickable23setMaximumFlickVelocityEf @ 1054 NONAME
	_ZN21QDeclarativeFlickable23verticalVelocityChangedEv @ 1055 NONAME
	_ZN21QDeclarativeFlickable24flickDecelerationChangedEv @ 1056 NONAME
	_ZN21QDeclarativeFlickable25horizontalVelocityChangedEv @ 1057 NONAME
	_ZN21QDeclarativeFlickable27maximumFlickVelocityChangedEv @ 1058 NONAME
	_ZN21QDeclarativeFlickable6tickedEv @ 1059 NONAME
	_ZN21QDeclarativeFlickable8viewportEv @ 1060 NONAME
	_ZN21QDeclarativeFlickableC1EP16QDeclarativeItem @ 1061 NONAME
	_ZN21QDeclarativeFlickableC1ER28QDeclarativeFlickablePrivateP16QDeclarativeItem @ 1062 NONAME
	_ZN21QDeclarativeFlickableC2EP16QDeclarativeItem @ 1063 NONAME
	_ZN21QDeclarativeFlickableC2ER28QDeclarativeFlickablePrivateP16QDeclarativeItem @ 1064 NONAME
	_ZN21QDeclarativeFlickableD0Ev @ 1065 NONAME
	_ZN21QDeclarativeFlickableD1Ev @ 1066 NONAME
	_ZN21QDeclarativeFlickableD2Ev @ 1067 NONAME
	_ZN21QDeclarativeImageBase11qt_metacallEN11QMetaObject4CallEiPPv @ 1068 NONAME
	_ZN21QDeclarativeImageBase11qt_metacastEPKc @ 1069 NONAME
	_ZN21QDeclarativeImageBase12pixmapChangeEv @ 1070 NONAME
	_ZN21QDeclarativeImageBase13setSourceSizeERK5QSize @ 1071 NONAME
	_ZN21QDeclarativeImageBase13sourceChangedERK4QUrl @ 1072 NONAME
	_ZN21QDeclarativeImageBase13statusChangedENS_6StatusE @ 1073 NONAME
	_ZN21QDeclarativeImageBase15progressChangedEf @ 1074 NONAME
	_ZN21QDeclarativeImageBase15requestFinishedEv @ 1075 NONAME
	_ZN21QDeclarativeImageBase15requestProgressExx @ 1076 NONAME
	_ZN21QDeclarativeImageBase15setAsynchronousEb @ 1077 NONAME
	_ZN21QDeclarativeImageBase16staticMetaObjectE @ 1078 NONAME DATA 16
	_ZN21QDeclarativeImageBase17componentCompleteEv @ 1079 NONAME
	_ZN21QDeclarativeImageBase17sourceSizeChangedEv @ 1080 NONAME
	_ZN21QDeclarativeImageBase19asynchronousChangedEv @ 1081 NONAME
	_ZN21QDeclarativeImageBase19getStaticMetaObjectEv @ 1082 NONAME
	_ZN21QDeclarativeImageBase4loadEv @ 1083 NONAME
	_ZN21QDeclarativeImageBase9setSourceERK4QUrl @ 1084 NONAME
	_ZN21QDeclarativeImageBaseC1ER28QDeclarativeImageBasePrivateP16QDeclarativeItem @ 1085 NONAME
	_ZN21QDeclarativeImageBaseC2ER28QDeclarativeImageBasePrivateP16QDeclarativeItem @ 1086 NONAME
	_ZN21QDeclarativeImageBaseD0Ev @ 1087 NONAME
	_ZN21QDeclarativeImageBaseD1Ev @ 1088 NONAME
	_ZN21QDeclarativeImageBaseD2Ev @ 1089 NONAME
	_ZN21QDeclarativeListModel11qt_metacallEN11QMetaObject4CallEiPPv @ 1090 NONAME
	_ZN21QDeclarativeListModel11qt_metacastEPKc @ 1091 NONAME
	_ZN21QDeclarativeListModel11setPropertyEiRK7QStringRK8QVariant @ 1092 NONAME
	_ZN21QDeclarativeListModel12countChangedEv @ 1093 NONAME
	_ZN21QDeclarativeListModel16staticMetaObjectE @ 1094 NONAME DATA 16
	_ZN21QDeclarativeListModel19getStaticMetaObjectEv @ 1095 NONAME
	_ZN21QDeclarativeListModel3setEiRK12QScriptValue @ 1096 NONAME
	_ZN21QDeclarativeListModel4moveEiii @ 1097 NONAME
	_ZN21QDeclarativeListModel4syncEv @ 1098 NONAME
	_ZN21QDeclarativeListModel5agentEv @ 1099 NONAME
	_ZN21QDeclarativeListModel5clearEv @ 1100 NONAME
	_ZN21QDeclarativeListModel6appendERK12QScriptValue @ 1101 NONAME
	_ZN21QDeclarativeListModel6insertEiRK12QScriptValue @ 1102 NONAME
	_ZN21QDeclarativeListModel6removeEi @ 1103 NONAME
	_ZN21QDeclarativeListModel7flattenEv @ 1104 NONAME
	_ZN21QDeclarativeListModelC1EP7QObject @ 1105 NONAME
	_ZN21QDeclarativeListModelC1EbP7QObject @ 1106 NONAME
	_ZN21QDeclarativeListModelC2EP7QObject @ 1107 NONAME
	_ZN21QDeclarativeListModelC2EbP7QObject @ 1108 NONAME
	_ZN21QDeclarativeListModelD0Ev @ 1109 NONAME
	_ZN21QDeclarativeListModelD1Ev @ 1110 NONAME
	_ZN21QDeclarativeListModelD2Ev @ 1111 NONAME
	_ZN21QDeclarativeMouseArea10sceneEventEP6QEvent @ 1112 NONAME
	_ZN21QDeclarativeMouseArea10setEnabledEb @ 1113 NONAME
	_ZN21QDeclarativeMouseArea10setHoveredEb @ 1114 NONAME
	_ZN21QDeclarativeMouseArea10setPressedEb @ 1115 NONAME
	_ZN21QDeclarativeMouseArea10timerEventEP11QTimerEvent @ 1116 NONAME
	_ZN21QDeclarativeMouseArea11qt_metacallEN11QMetaObject4CallEiPPv @ 1117 NONAME
	_ZN21QDeclarativeMouseArea11qt_metacastEPKc @ 1118 NONAME
	_ZN21QDeclarativeMouseArea12pressAndHoldEP22QDeclarativeMouseEvent @ 1119 NONAME
	_ZN21QDeclarativeMouseArea13doubleClickedEP22QDeclarativeMouseEvent @ 1120 NONAME
	_ZN21QDeclarativeMouseArea14enabledChangedEv @ 1121 NONAME
	_ZN21QDeclarativeMouseArea14hoverMoveEventEP24QGraphicsSceneHoverEvent @ 1122 NONAME
	_ZN21QDeclarativeMouseArea14hoveredChangedEv @ 1123 NONAME
	_ZN21QDeclarativeMouseArea14mouseMoveEventEP24QGraphicsSceneMouseEvent @ 1124 NONAME
	_ZN21QDeclarativeMouseArea14pressedChangedEv @ 1125 NONAME
	_ZN21QDeclarativeMouseArea15hoverEnterEventEP24QGraphicsSceneHoverEvent @ 1126 NONAME
	_ZN21QDeclarativeMouseArea15hoverLeaveEventEP24QGraphicsSceneHoverEvent @ 1127 NONAME
	_ZN21QDeclarativeMouseArea15mousePressEventEP24QGraphicsSceneMouseEvent @ 1128 NONAME
	_ZN21QDeclarativeMouseArea15positionChangedEP22QDeclarativeMouseEvent @ 1129 NONAME
	_ZN21QDeclarativeMouseArea16staticMetaObjectE @ 1130 NONAME DATA 16
	_ZN21QDeclarativeMouseArea17mouseReleaseEventEP24QGraphicsSceneMouseEvent @ 1131 NONAME
	_ZN21QDeclarativeMouseArea18setAcceptedButtonsE6QFlagsIN2Qt11MouseButtonEE @ 1132 NONAME
	_ZN21QDeclarativeMouseArea19getStaticMetaObjectEv @ 1133 NONAME
	_ZN21QDeclarativeMouseArea21mouseDoubleClickEventEP24QGraphicsSceneMouseEvent @ 1134 NONAME
	_ZN21QDeclarativeMouseArea22acceptedButtonsChangedEv @ 1135 NONAME
	_ZN21QDeclarativeMouseArea4dragEv @ 1136 NONAME
	_ZN21QDeclarativeMouseArea6exitedEv @ 1137 NONAME
	_ZN21QDeclarativeMouseArea7clickedEP22QDeclarativeMouseEvent @ 1138 NONAME
	_ZN21QDeclarativeMouseArea7enteredEv @ 1139 NONAME
	_ZN21QDeclarativeMouseArea7pressedEP22QDeclarativeMouseEvent @ 1140 NONAME
	_ZN21QDeclarativeMouseArea8releasedEP22QDeclarativeMouseEvent @ 1141 NONAME
	_ZN21QDeclarativeMouseAreaC1EP16QDeclarativeItem @ 1142 NONAME
	_ZN21QDeclarativeMouseAreaC2EP16QDeclarativeItem @ 1143 NONAME
	_ZN21QDeclarativeMouseAreaD0Ev @ 1144 NONAME
	_ZN21QDeclarativeMouseAreaD1Ev @ 1145 NONAME
	_ZN21QDeclarativeMouseAreaD2Ev @ 1146 NONAME
	_ZN21QDeclarativePathCubic11qt_metacallEN11QMetaObject4CallEiPPv @ 1147 NONAME
	_ZN21QDeclarativePathCubic11qt_metacastEPKc @ 1148 NONAME
	_ZN21QDeclarativePathCubic12setControl1XEf @ 1149 NONAME
	_ZN21QDeclarativePathCubic12setControl1YEf @ 1150 NONAME
	_ZN21QDeclarativePathCubic12setControl2XEf @ 1151 NONAME
	_ZN21QDeclarativePathCubic12setControl2YEf @ 1152 NONAME
	_ZN21QDeclarativePathCubic16staticMetaObjectE @ 1153 NONAME DATA 16
	_ZN21QDeclarativePathCubic19getStaticMetaObjectEv @ 1154 NONAME
	_ZN21QDeclarativePathCubic9addToPathER12QPainterPath @ 1155 NONAME
	_ZN21QDeclarativeRectangle11qt_metacallEN11QMetaObject4CallEiPPv @ 1156 NONAME
	_ZN21QDeclarativeRectangle11qt_metacastEPKc @ 1157 NONAME
	_ZN21QDeclarativeRectangle11setGradientEP20QDeclarativeGradient @ 1158 NONAME
	_ZN21QDeclarativeRectangle12colorChangedEv @ 1159 NONAME
	_ZN21QDeclarativeRectangle13radiusChangedEv @ 1160 NONAME
	_ZN21QDeclarativeRectangle16staticMetaObjectE @ 1161 NONAME DATA 16
	_ZN21QDeclarativeRectangle19generateRoundedRectEv @ 1162 NONAME
	_ZN21QDeclarativeRectangle19getStaticMetaObjectEv @ 1163 NONAME
	_ZN21QDeclarativeRectangle20generateBorderedRectEv @ 1164 NONAME
	_ZN21QDeclarativeRectangle5paintEP8QPainterPK24QStyleOptionGraphicsItemP7QWidget @ 1165 NONAME
	_ZN21QDeclarativeRectangle6borderEv @ 1166 NONAME
	_ZN21QDeclarativeRectangle8doUpdateEv @ 1167 NONAME
	_ZN21QDeclarativeRectangle8drawRectER8QPainter @ 1168 NONAME
	_ZN21QDeclarativeRectangle8setColorERK6QColor @ 1169 NONAME
	_ZN21QDeclarativeRectangle9setRadiusEf @ 1170 NONAME
	_ZN21QDeclarativeRectangleC1EP16QDeclarativeItem @ 1171 NONAME
	_ZN21QDeclarativeRectangleC2EP16QDeclarativeItem @ 1172 NONAME
	_ZN21QDeclarativeScaleGrid11qt_metacallEN11QMetaObject4CallEiPPv @ 1173 NONAME
	_ZN21QDeclarativeScaleGrid11qt_metacastEPKc @ 1174 NONAME
	_ZN21QDeclarativeScaleGrid13borderChangedEv @ 1175 NONAME
	_ZN21QDeclarativeScaleGrid16staticMetaObjectE @ 1176 NONAME DATA 16
	_ZN21QDeclarativeScaleGrid19getStaticMetaObjectEv @ 1177 NONAME
	_ZN21QDeclarativeScaleGrid6setTopEi @ 1178 NONAME
	_ZN21QDeclarativeScaleGrid7setLeftEi @ 1179 NONAME
	_ZN21QDeclarativeScaleGrid8setRightEi @ 1180 NONAME
	_ZN21QDeclarativeScaleGrid9setBottomEi @ 1181 NONAME
	_ZN21QDeclarativeScaleGridC1EP7QObject @ 1182 NONAME
	_ZN21QDeclarativeScaleGridC2EP7QObject @ 1183 NONAME
	_ZN21QDeclarativeScaleGridD0Ev @ 1184 NONAME
	_ZN21QDeclarativeScaleGridD1Ev @ 1185 NONAME
	_ZN21QDeclarativeScaleGridD2Ev @ 1186 NONAME
	_ZN21QDeclarativeTextInput10moveCursorEv @ 1187 NONAME
	_ZN21QDeclarativeTextInput10updateRectERK5QRect @ 1188 NONAME
	_ZN21QDeclarativeTextInput10updateSizeEb @ 1189 NONAME
	_ZN21QDeclarativeTextInput11fontChangedERK5QFont @ 1190 NONAME
	_ZN21QDeclarativeTextInput11qt_metacallEN11QMetaObject4CallEiPPv @ 1191 NONAME
	_ZN21QDeclarativeTextInput11qt_metacastEPKc @ 1192 NONAME
	_ZN21QDeclarativeTextInput11setEchoModeENS_8EchoModeE @ 1193 NONAME
	_ZN21QDeclarativeTextInput11setReadOnlyEb @ 1194 NONAME
	_ZN21QDeclarativeTextInput11textChangedEv @ 1195 NONAME
	_ZN21QDeclarativeTextInput12colorChangedERK6QColor @ 1196 NONAME
	_ZN21QDeclarativeTextInput12createCursorEv @ 1197 NONAME
	_ZN21QDeclarativeTextInput12drawContentsEP8QPainterRK5QRect @ 1198 NONAME
	_ZN21QDeclarativeTextInput12setInputMaskERK7QString @ 1199 NONAME
	_ZN21QDeclarativeTextInput12setMaxLengthEi @ 1200 NONAME
	_ZN21QDeclarativeTextInput12setValidatorEP10QValidator @ 1201 NONAME
	_ZN21QDeclarativeTextInput13keyPressEventEP9QKeyEvent @ 1202 NONAME
	_ZN21QDeclarativeTextInput13q_textChangedEv @ 1203 NONAME
	_ZN21QDeclarativeTextInput15echoModeChangedENS_8EchoModeE @ 1204 NONAME
	_ZN21QDeclarativeTextInput15geometryChangedERK6QRectFS2_ @ 1205 NONAME
	_ZN21QDeclarativeTextInput15mousePressEventEP24QGraphicsSceneMouseEvent @ 1206 NONAME
	_ZN21QDeclarativeTextInput15readOnlyChangedEb @ 1207 NONAME
	_ZN21QDeclarativeTextInput15setFocusOnPressEb @ 1208 NONAME
	_ZN21QDeclarativeTextInput15setSelectionEndEi @ 1209 NONAME ABSENT
	_ZN21QDeclarativeTextInput16cursorPosChangedEv @ 1210 NONAME
	_ZN21QDeclarativeTextInput16inputMaskChangedERK7QString @ 1211 NONAME
	_ZN21QDeclarativeTextInput16selectionChangedEv @ 1212 NONAME
	_ZN21QDeclarativeTextInput16setCursorVisibleEb @ 1213 NONAME
	_ZN21QDeclarativeTextInput16staticMetaObjectE @ 1214 NONAME DATA 16
	_ZN21QDeclarativeTextInput16validatorChangedEv @ 1215 NONAME
	_ZN21QDeclarativeTextInput17mouseReleaseEventEP24QGraphicsSceneMouseEvent @ 1216 NONAME
	_ZN21QDeclarativeTextInput17setCursorDelegateEP21QDeclarativeComponent @ 1217 NONAME
	_ZN21QDeclarativeTextInput17setCursorPositionEi @ 1218 NONAME
	_ZN21QDeclarativeTextInput17setSelectionColorERK6QColor @ 1219 NONAME
	_ZN21QDeclarativeTextInput17setSelectionStartEi @ 1220 NONAME ABSENT
	_ZN21QDeclarativeTextInput19focusOnPressChangedEb @ 1221 NONAME
	_ZN21QDeclarativeTextInput19getStaticMetaObjectEv @ 1222 NONAME
	_ZN21QDeclarativeTextInput19selectedTextChangedEv @ 1223 NONAME
	_ZN21QDeclarativeTextInput19selectionEndChangedEv @ 1224 NONAME
	_ZN21QDeclarativeTextInput20cursorVisibleChangedEb @ 1225 NONAME
	_ZN21QDeclarativeTextInput20maximumLengthChangedEi @ 1226 NONAME
	_ZN21QDeclarativeTextInput20setSelectedTextColorERK6QColor @ 1227 NONAME
	_ZN21QDeclarativeTextInput21cursorDelegateChangedEv @ 1228 NONAME
	_ZN21QDeclarativeTextInput21cursorPositionChangedEv @ 1229 NONAME
	_ZN21QDeclarativeTextInput21selectionColorChangedERK6QColor @ 1230 NONAME
	_ZN21QDeclarativeTextInput21selectionStartChangedEv @ 1231 NONAME
	_ZN21QDeclarativeTextInput22acceptableInputChangedEv @ 1232 NONAME
	_ZN21QDeclarativeTextInput24selectedTextColorChangedERK6QColor @ 1233 NONAME
	_ZN21QDeclarativeTextInput26horizontalAlignmentChangedENS_10HAlignmentE @ 1234 NONAME
	_ZN21QDeclarativeTextInput5eventEP6QEvent @ 1235 NONAME
	_ZN21QDeclarativeTextInput6xToPosEi @ 1236 NONAME ABSENT
	_ZN21QDeclarativeTextInput7setFontERK5QFont @ 1237 NONAME
	_ZN21QDeclarativeTextInput7setTextERK7QString @ 1238 NONAME
	_ZN21QDeclarativeTextInput8acceptedEv @ 1239 NONAME
	_ZN21QDeclarativeTextInput8setColorERK6QColor @ 1240 NONAME
	_ZN21QDeclarativeTextInput9selectAllEv @ 1241 NONAME
	_ZN21QDeclarativeTextInput9setHAlignENS_10HAlignmentE @ 1242 NONAME
	_ZN21QDeclarativeTextInputC1EP16QDeclarativeItem @ 1243 NONAME
	_ZN21QDeclarativeTextInputC2EP16QDeclarativeItem @ 1244 NONAME
	_ZN21QDeclarativeTextInputD0Ev @ 1245 NONAME
	_ZN21QDeclarativeTextInputD1Ev @ 1246 NONAME
	_ZN21QDeclarativeTextInputD2Ev @ 1247 NONAME
	_ZN21QDeclarativeTranslate11qt_metacallEN11QMetaObject4CallEiPPv @ 1248 NONAME
	_ZN21QDeclarativeTranslate11qt_metacastEPKc @ 1249 NONAME
	_ZN21QDeclarativeTranslate15positionChangedEv @ 1250 NONAME
	_ZN21QDeclarativeTranslate16staticMetaObjectE @ 1251 NONAME DATA 16
	_ZN21QDeclarativeTranslate19getStaticMetaObjectEv @ 1252 NONAME
	_ZN21QDeclarativeTranslate4setXEf @ 1253 NONAME
	_ZN21QDeclarativeTranslate4setYEf @ 1254 NONAME
	_ZN21QDeclarativeTranslateC1EP7QObject @ 1255 NONAME
	_ZN21QDeclarativeTranslateC2EP7QObject @ 1256 NONAME
	_ZN21QDeclarativeTranslateD0Ev @ 1257 NONAME
	_ZN21QDeclarativeTranslateD1Ev @ 1258 NONAME
	_ZN21QDeclarativeTranslateD2Ev @ 1259 NONAME
	_ZN21QDeclarativeValueType11qt_metacallEN11QMetaObject4CallEiPPv @ 1260 NONAME
	_ZN21QDeclarativeValueType11qt_metacastEPKc @ 1261 NONAME
	_ZN21QDeclarativeValueType16staticMetaObjectE @ 1262 NONAME DATA 16
	_ZN21QDeclarativeValueType19getStaticMetaObjectEv @ 1263 NONAME
	_ZN21QDeclarativeValueTypeC2EP7QObject @ 1264 NONAME
	_ZN22QDeclarativeDebugQuery11qt_metacallEN11QMetaObject4CallEiPPv @ 1265 NONAME
	_ZN22QDeclarativeDebugQuery11qt_metacastEPKc @ 1266 NONAME
	_ZN22QDeclarativeDebugQuery12stateChangedENS_5StateE @ 1267 NONAME
	_ZN22QDeclarativeDebugQuery16staticMetaObjectE @ 1268 NONAME DATA 16
	_ZN22QDeclarativeDebugQuery19getStaticMetaObjectEv @ 1269 NONAME
	_ZN22QDeclarativeDebugQuery8setStateENS_5StateE @ 1270 NONAME
	_ZN22QDeclarativeDebugQueryC1EP7QObject @ 1271 NONAME
	_ZN22QDeclarativeDebugQueryC2EP7QObject @ 1272 NONAME
	_ZN22QDeclarativeDebugWatch11qt_metacallEN11QMetaObject4CallEiPPv @ 1273 NONAME
	_ZN22QDeclarativeDebugWatch11qt_metacastEPKc @ 1274 NONAME
	_ZN22QDeclarativeDebugWatch12stateChangedENS_5StateE @ 1275 NONAME
	_ZN22QDeclarativeDebugWatch12valueChangedERK10QByteArrayRK8QVariant @ 1276 NONAME
	_ZN22QDeclarativeDebugWatch16staticMetaObjectE @ 1277 NONAME DATA 16
	_ZN22QDeclarativeDebugWatch19getStaticMetaObjectEv @ 1278 NONAME
	_ZN22QDeclarativeDebugWatch8setStateENS_5StateE @ 1279 NONAME
	_ZN22QDeclarativeDebugWatchC1EP7QObject @ 1280 NONAME
	_ZN22QDeclarativeDebugWatchC2EP7QObject @ 1281 NONAME
	_ZN22QDeclarativeDebugWatchD0Ev @ 1282 NONAME
	_ZN22QDeclarativeDebugWatchD1Ev @ 1283 NONAME
	_ZN22QDeclarativeDebugWatchD2Ev @ 1284 NONAME
	_ZN22QDeclarativeExpression10__q_notifyEv @ 1285 NONAME ABSENT
	_ZN22QDeclarativeExpression10clearErrorEv @ 1286 NONAME
	_ZN22QDeclarativeExpression11qt_metacallEN11QMetaObject4CallEiPPv @ 1287 NONAME
	_ZN22QDeclarativeExpression11qt_metacastEPKc @ 1288 NONAME
	_ZN22QDeclarativeExpression12valueChangedEv @ 1289 NONAME
	_ZN22QDeclarativeExpression13setExpressionERK7QString @ 1290 NONAME
	_ZN22QDeclarativeExpression16staticMetaObjectE @ 1291 NONAME DATA 16
	_ZN22QDeclarativeExpression17setSourceLocationERK7QStringi @ 1292 NONAME
	_ZN22QDeclarativeExpression19getStaticMetaObjectEv @ 1293 NONAME
	_ZN22QDeclarativeExpression23setNotifyOnValueChangedEb @ 1294 NONAME
	_ZN22QDeclarativeExpression5valueEPb @ 1295 NONAME ABSENT
	_ZN22QDeclarativeExpressionC1EP19QDeclarativeContextRK7QStringP7QObject @ 1296 NONAME ABSENT
	_ZN22QDeclarativeExpressionC1EP23QDeclarativeContextDataPvP20QDeclarativeRefCountP7QObjectRK7QStringiR29QDeclarativeExpressionPrivate @ 1297 NONAME
	_ZN22QDeclarativeExpressionC1EP23QDeclarativeContextDataRK7QStringP7QObject @ 1298 NONAME ABSENT
	_ZN22QDeclarativeExpressionC1EP23QDeclarativeContextDataRK7QStringP7QObjectR29QDeclarativeExpressionPrivate @ 1299 NONAME ABSENT
	_ZN22QDeclarativeExpressionC1Ev @ 1300 NONAME
	_ZN22QDeclarativeExpressionC2EP19QDeclarativeContextRK7QStringP7QObject @ 1301 NONAME ABSENT
	_ZN22QDeclarativeExpressionC2EP23QDeclarativeContextDataPvP20QDeclarativeRefCountP7QObjectRK7QStringiR29QDeclarativeExpressionPrivate @ 1302 NONAME
	_ZN22QDeclarativeExpressionC2EP23QDeclarativeContextDataRK7QStringP7QObject @ 1303 NONAME ABSENT
	_ZN22QDeclarativeExpressionC2EP23QDeclarativeContextDataRK7QStringP7QObjectR29QDeclarativeExpressionPrivate @ 1304 NONAME ABSENT
	_ZN22QDeclarativeExpressionC2Ev @ 1305 NONAME
	_ZN22QDeclarativeExpressionD0Ev @ 1306 NONAME
	_ZN22QDeclarativeExpressionD1Ev @ 1307 NONAME
	_ZN22QDeclarativeExpressionD2Ev @ 1308 NONAME
	_ZN22QDeclarativeFocusPanel10sceneEventEP6QEvent @ 1309 NONAME
	_ZN22QDeclarativeFocusPanel11qt_metacallEN11QMetaObject4CallEiPPv @ 1310 NONAME
	_ZN22QDeclarativeFocusPanel11qt_metacastEPKc @ 1311 NONAME
	_ZN22QDeclarativeFocusPanel13activeChangedEv @ 1312 NONAME
	_ZN22QDeclarativeFocusPanel16staticMetaObjectE @ 1313 NONAME DATA 16
	_ZN22QDeclarativeFocusPanel19getStaticMetaObjectEv @ 1314 NONAME
	_ZN22QDeclarativeFocusPanelC1EP16QDeclarativeItem @ 1315 NONAME
	_ZN22QDeclarativeFocusPanelC2EP16QDeclarativeItem @ 1316 NONAME
	_ZN22QDeclarativeFocusPanelD0Ev @ 1317 NONAME
	_ZN22QDeclarativeFocusPanelD1Ev @ 1318 NONAME
	_ZN22QDeclarativeFocusPanelD2Ev @ 1319 NONAME
	_ZN22QDeclarativeFocusScope11qt_metacallEN11QMetaObject4CallEiPPv @ 1320 NONAME
	_ZN22QDeclarativeFocusScope11qt_metacastEPKc @ 1321 NONAME
	_ZN22QDeclarativeFocusScope16staticMetaObjectE @ 1322 NONAME DATA 16
	_ZN22QDeclarativeFocusScope19getStaticMetaObjectEv @ 1323 NONAME
	_ZN22QDeclarativeFocusScopeC1EP16QDeclarativeItem @ 1324 NONAME
	_ZN22QDeclarativeFocusScopeC2EP16QDeclarativeItem @ 1325 NONAME
	_ZN22QDeclarativeFocusScopeD0Ev @ 1326 NONAME
	_ZN22QDeclarativeFocusScopeD1Ev @ 1327 NONAME
	_ZN22QDeclarativeFocusScopeD2Ev @ 1328 NONAME
	_ZN22QDeclarativeFontLoader11nameChangedEv @ 1329 NONAME
	_ZN22QDeclarativeFontLoader11qt_metacallEN11QMetaObject4CallEiPPv @ 1330 NONAME
	_ZN22QDeclarativeFontLoader11qt_metacastEPKc @ 1331 NONAME
	_ZN22QDeclarativeFontLoader13replyFinishedEv @ 1332 NONAME
	_ZN22QDeclarativeFontLoader13statusChangedEv @ 1333 NONAME
	_ZN22QDeclarativeFontLoader16staticMetaObjectE @ 1334 NONAME DATA 16
	_ZN22QDeclarativeFontLoader19getStaticMetaObjectEv @ 1335 NONAME
	_ZN22QDeclarativeFontLoader7setNameERK7QString @ 1336 NONAME
	_ZN22QDeclarativeFontLoader9setSourceERK4QUrl @ 1337 NONAME
	_ZN22QDeclarativeFontLoaderC1EP7QObject @ 1338 NONAME
	_ZN22QDeclarativeFontLoaderC2EP7QObject @ 1339 NONAME
	_ZN22QDeclarativeFontLoaderD0Ev @ 1340 NONAME
	_ZN22QDeclarativeFontLoaderD1Ev @ 1341 NONAME
	_ZN22QDeclarativeFontLoaderD2Ev @ 1342 NONAME
	_ZN22QDeclarativeStateGroup10classBeginEv @ 1343 NONAME
	_ZN22QDeclarativeStateGroup11qt_metacallEN11QMetaObject4CallEiPPv @ 1344 NONAME
	_ZN22QDeclarativeStateGroup11qt_metacastEPKc @ 1345 NONAME
	_ZN22QDeclarativeStateGroup11removeStateEP17QDeclarativeState @ 1346 NONAME
	_ZN22QDeclarativeStateGroup12stateChangedERK7QString @ 1347 NONAME
	_ZN22QDeclarativeStateGroup14statesPropertyEv @ 1348 NONAME
	_ZN22QDeclarativeStateGroup15updateAutoStateEv @ 1349 NONAME
	_ZN22QDeclarativeStateGroup16staticMetaObjectE @ 1350 NONAME DATA 16
	_ZN22QDeclarativeStateGroup17componentCompleteEv @ 1351 NONAME
	_ZN22QDeclarativeStateGroup19getStaticMetaObjectEv @ 1352 NONAME
	_ZN22QDeclarativeStateGroup19transitionsPropertyEv @ 1353 NONAME
	_ZN22QDeclarativeStateGroup8setStateERK7QString @ 1354 NONAME
	_ZN22QDeclarativeStateGroupC1EP7QObject @ 1355 NONAME
	_ZN22QDeclarativeStateGroupC2EP7QObject @ 1356 NONAME
	_ZN22QDeclarativeStateGroupD0Ev @ 1357 NONAME
	_ZN22QDeclarativeStateGroupD1Ev @ 1358 NONAME
	_ZN22QDeclarativeStateGroupD2Ev @ 1359 NONAME
	_ZN22QDeclarativeStyledText5parseERK7QStringR11QTextLayout @ 1360 NONAME
	_ZN22QDeclarativeStyledTextC1ERK7QStringR11QTextLayout @ 1361 NONAME
	_ZN22QDeclarativeStyledTextC2ERK7QStringR11QTextLayout @ 1362 NONAME
	_ZN22QDeclarativeStyledTextD1Ev @ 1363 NONAME
	_ZN22QDeclarativeStyledTextD2Ev @ 1364 NONAME
	_ZN22QDeclarativeTransition10animationsEv @ 1365 NONAME
	_ZN22QDeclarativeTransition10setToStateERK7QString @ 1366 NONAME
	_ZN22QDeclarativeTransition11fromChangedEv @ 1367 NONAME
	_ZN22QDeclarativeTransition11qt_metacallEN11QMetaObject4CallEiPPv @ 1368 NONAME
	_ZN22QDeclarativeTransition11qt_metacastEPKc @ 1369 NONAME
	_ZN22QDeclarativeTransition11setReversedEb @ 1370 NONAME
	_ZN22QDeclarativeTransition12setFromStateERK7QString @ 1371 NONAME
	_ZN22QDeclarativeTransition13setReversibleEb @ 1372 NONAME
	_ZN22QDeclarativeTransition16staticMetaObjectE @ 1373 NONAME DATA 16
	_ZN22QDeclarativeTransition17reversibleChangedEv @ 1374 NONAME
	_ZN22QDeclarativeTransition19getStaticMetaObjectEv @ 1375 NONAME
	_ZN22QDeclarativeTransition4stopEv @ 1376 NONAME
	_ZN22QDeclarativeTransition7prepareER5QListI18QDeclarativeActionERS0_I20QDeclarativePropertyEP29QDeclarativeTransitionManager @ 1377 NONAME
	_ZN22QDeclarativeTransition9toChangedEv @ 1378 NONAME
	_ZN22QDeclarativeTransitionC1EP7QObject @ 1379 NONAME
	_ZN22QDeclarativeTransitionC2EP7QObject @ 1380 NONAME
	_ZN22QDeclarativeTransitionD0Ev @ 1381 NONAME
	_ZN22QDeclarativeTransitionD1Ev @ 1382 NONAME
	_ZN22QDeclarativeTransitionD2Ev @ 1383 NONAME
	_ZN23QDeclarativeBorderImage11qt_metacallEN11QMetaObject4CallEiPPv @ 1384 NONAME
	_ZN23QDeclarativeBorderImage11qt_metacastEPKc @ 1385 NONAME
	_ZN23QDeclarativeBorderImage15requestFinishedEv @ 1386 NONAME
	_ZN23QDeclarativeBorderImage16staticMetaObjectE @ 1387 NONAME DATA 16
	_ZN23QDeclarativeBorderImage18sciRequestFinishedEv @ 1388 NONAME
	_ZN23QDeclarativeBorderImage18setGridScaledImageERK27QDeclarativeGridScaledImage @ 1389 NONAME
	_ZN23QDeclarativeBorderImage19getStaticMetaObjectEv @ 1390 NONAME
	_ZN23QDeclarativeBorderImage19setVerticalTileModeENS_8TileModeE @ 1391 NONAME
	_ZN23QDeclarativeBorderImage21setHorizontalTileModeENS_8TileModeE @ 1392 NONAME
	_ZN23QDeclarativeBorderImage23verticalTileModeChangedEv @ 1393 NONAME
	_ZN23QDeclarativeBorderImage25horizontalTileModeChangedEv @ 1394 NONAME
	_ZN23QDeclarativeBorderImage4loadEv @ 1395 NONAME
	_ZN23QDeclarativeBorderImage5paintEP8QPainterPK24QStyleOptionGraphicsItemP7QWidget @ 1396 NONAME
	_ZN23QDeclarativeBorderImage6borderEv @ 1397 NONAME
	_ZN23QDeclarativeBorderImage9setSourceERK4QUrl @ 1398 NONAME
	_ZN23QDeclarativeBorderImageC1EP16QDeclarativeItem @ 1399 NONAME
	_ZN23QDeclarativeBorderImageC2EP16QDeclarativeItem @ 1400 NONAME
	_ZN23QDeclarativeBorderImageD0Ev @ 1401 NONAME
	_ZN23QDeclarativeBorderImageD1Ev @ 1402 NONAME
	_ZN23QDeclarativeBorderImageD2Ev @ 1403 NONAME
	_ZN23QDeclarativeConnections11qt_metacallEN11QMetaObject4CallEiPPv @ 1404 NONAME
	_ZN23QDeclarativeConnections11qt_metacastEPKc @ 1405 NONAME
	_ZN23QDeclarativeConnections13targetChangedEv @ 1406 NONAME
	_ZN23QDeclarativeConnections14connectSignalsEv @ 1407 NONAME
	_ZN23QDeclarativeConnections16staticMetaObjectE @ 1408 NONAME DATA 16
	_ZN23QDeclarativeConnections17componentCompleteEv @ 1409 NONAME
	_ZN23QDeclarativeConnections19getStaticMetaObjectEv @ 1410 NONAME
	_ZN23QDeclarativeConnections9setTargetEP7QObject @ 1411 NONAME
	_ZN23QDeclarativeConnectionsC1EP7QObject @ 1412 NONAME
	_ZN23QDeclarativeConnectionsC2EP7QObject @ 1413 NONAME
	_ZN23QDeclarativeConnectionsD0Ev @ 1414 NONAME
	_ZN23QDeclarativeConnectionsD1Ev @ 1415 NONAME
	_ZN23QDeclarativeConnectionsD2Ev @ 1416 NONAME
	_ZN23QDeclarativeDebugClient10setEnabledEb @ 1417 NONAME
	_ZN23QDeclarativeDebugClient11qt_metacallEN11QMetaObject4CallEiPPv @ 1418 NONAME
	_ZN23QDeclarativeDebugClient11qt_metacastEPKc @ 1419 NONAME
	_ZN23QDeclarativeDebugClient11sendMessageERK10QByteArray @ 1420 NONAME
	_ZN23QDeclarativeDebugClient15messageReceivedERK10QByteArray @ 1421 NONAME
	_ZN23QDeclarativeDebugClient16staticMetaObjectE @ 1422 NONAME DATA 16
	_ZN23QDeclarativeDebugClient19getStaticMetaObjectEv @ 1423 NONAME
	_ZN23QDeclarativeDebugClientC1ERK7QStringP27QDeclarativeDebugConnection @ 1424 NONAME
	_ZN23QDeclarativeDebugClientC2ERK7QStringP27QDeclarativeDebugConnection @ 1425 NONAME
	_ZN23QDeclarativeDomDocument4loadEP18QDeclarativeEngineRK10QByteArrayRK4QUrl @ 1426 NONAME
	_ZN23QDeclarativeDomDocumentC1ERKS_ @ 1427 NONAME
	_ZN23QDeclarativeDomDocumentC1Ev @ 1428 NONAME
	_ZN23QDeclarativeDomDocumentC2ERKS_ @ 1429 NONAME
	_ZN23QDeclarativeDomDocumentC2Ev @ 1430 NONAME
	_ZN23QDeclarativeDomDocumentD1Ev @ 1431 NONAME
	_ZN23QDeclarativeDomDocumentD2Ev @ 1432 NONAME
	_ZN23QDeclarativeDomDocumentaSERKS_ @ 1433 NONAME
	_ZN23QDeclarativeDomPropertyC1ERKS_ @ 1434 NONAME
	_ZN23QDeclarativeDomPropertyC1Ev @ 1435 NONAME
	_ZN23QDeclarativeDomPropertyC2ERKS_ @ 1436 NONAME
	_ZN23QDeclarativeDomPropertyC2Ev @ 1437 NONAME
	_ZN23QDeclarativeDomPropertyD1Ev @ 1438 NONAME
	_ZN23QDeclarativeDomPropertyD2Ev @ 1439 NONAME
	_ZN23QDeclarativeDomPropertyaSERKS_ @ 1440 NONAME
	_ZN23QDeclarativeEngineDebug11qt_metacallEN11QMetaObject4CallEiPPv @ 1441 NONAME
	_ZN23QDeclarativeEngineDebug11qt_metacastEPKc @ 1442 NONAME
	_ZN23QDeclarativeEngineDebug11queryObjectERK32QDeclarativeDebugObjectReferenceP7QObject @ 1443 NONAME
	_ZN23QDeclarativeEngineDebug11removeWatchEP22QDeclarativeDebugWatch @ 1444 NONAME
	_ZN23QDeclarativeEngineDebug16staticMetaObjectE @ 1445 NONAME DATA 16
	_ZN23QDeclarativeEngineDebug17queryRootContextsERK32QDeclarativeDebugEngineReferenceP7QObject @ 1446 NONAME
	_ZN23QDeclarativeEngineDebug19getStaticMetaObjectEv @ 1447 NONAME
	_ZN23QDeclarativeEngineDebug20queryObjectRecursiveERK32QDeclarativeDebugObjectReferenceP7QObject @ 1448 NONAME
	_ZN23QDeclarativeEngineDebug21queryAvailableEnginesEP7QObject @ 1449 NONAME
	_ZN23QDeclarativeEngineDebug21queryExpressionResultEiRK7QStringP7QObject @ 1450 NONAME
	_ZN23QDeclarativeEngineDebug8addWatchERK30QDeclarativeDebugFileReferenceP7QObject @ 1451 NONAME
	_ZN23QDeclarativeEngineDebug8addWatchERK32QDeclarativeDebugObjectReferenceP7QObject @ 1452 NONAME
	_ZN23QDeclarativeEngineDebug8addWatchERK32QDeclarativeDebugObjectReferenceRK7QStringP7QObject @ 1453 NONAME
	_ZN23QDeclarativeEngineDebug8addWatchERK33QDeclarativeDebugContextReferenceRK7QStringP7QObject @ 1454 NONAME
	_ZN23QDeclarativeEngineDebug8addWatchERK34QDeclarativeDebugPropertyReferenceP7QObject @ 1455 NONAME
	_ZN23QDeclarativeEngineDebugC1EP27QDeclarativeDebugConnectionP7QObject @ 1456 NONAME
	_ZN23QDeclarativeEngineDebugC2EP27QDeclarativeDebugConnectionP7QObject @ 1457 NONAME
	_ZN23QDeclarativeItemPrivate10resetWidthEv @ 1458 NONAME
	_ZN23QDeclarativeItemPrivate11currentTimeEv @ 1459 NONAME ABSENT
	_ZN23QDeclarativeItemPrivate11data_appendEP24QDeclarativeListPropertyI7QObjectEPS1_ @ 1460 NONAME
	_ZN23QDeclarativeItemPrivate11resetHeightEv @ 1461 NONAME
	_ZN23QDeclarativeItemPrivate12focusChangedEb @ 1462 NONAME
	_ZN23QDeclarativeItemPrivate12resources_atEP24QDeclarativeListPropertyI7QObjectEi @ 1463 NONAME
	_ZN23QDeclarativeItemPrivate12transform_atEP24QDeclarativeListPropertyI18QGraphicsTransformEi @ 1464 NONAME
	_ZN23QDeclarativeItemPrivate14consistentTimeE @ 1465 NONAME DATA 4
	_ZN23QDeclarativeItemPrivate14parentPropertyEP7QObjectPvP28QDeclarativeNotifierEndpoint @ 1466 NONAME
	_ZN23QDeclarativeItemPrivate15resources_countEP24QDeclarativeListPropertyI7QObjectE @ 1467 NONAME
	_ZN23QDeclarativeItemPrivate15transform_clearEP24QDeclarativeListPropertyI18QGraphicsTransformE @ 1468 NONAME
	_ZN23QDeclarativeItemPrivate15transform_countEP24QDeclarativeListPropertyI18QGraphicsTransformE @ 1469 NONAME
	_ZN23QDeclarativeItemPrivate16resources_appendEP24QDeclarativeListPropertyI7QObjectEPS1_ @ 1470 NONAME
	_ZN23QDeclarativeItemPrivate16transform_appendEP24QDeclarativeListPropertyI18QGraphicsTransformEPS1_ @ 1471 NONAME
	_ZN23QDeclarativeItemPrivate17setConsistentTimeEi @ 1472 NONAME ABSENT
	_ZN23QDeclarativeItemPrivate24removeItemChangeListenerEP30QDeclarativeItemChangeListener6QFlagsINS_10ChangeTypeEE @ 1473 NONAME
	_ZN23QDeclarativeItemPrivate5startER5QTime @ 1474 NONAME ABSENT
	_ZN23QDeclarativeItemPrivate6statesEv @ 1475 NONAME
	_ZN23QDeclarativeItemPrivate7elapsedER5QTime @ 1476 NONAME ABSENT
	_ZN23QDeclarativeItemPrivate7restartER5QTime @ 1477 NONAME ABSENT
	_ZN23QDeclarativeItemPrivate8setWidthEf @ 1478 NONAME
	_ZN23QDeclarativeItemPrivate9setHeightEf @ 1479 NONAME
	_ZN23QDeclarativePaintedItem10clearCacheEv @ 1480 NONAME
	_ZN23QDeclarativePaintedItem10dirtyCacheERK5QRect @ 1481 NONAME
	_ZN23QDeclarativePaintedItem11qt_metacallEN11QMetaObject4CallEiPPv @ 1482 NONAME
	_ZN23QDeclarativePaintedItem11qt_metacastEPKc @ 1483 NONAME
	_ZN23QDeclarativePaintedItem12setFillColorERK6QColor @ 1484 NONAME
	_ZN23QDeclarativePaintedItem14setCacheFrozenEb @ 1485 NONAME
	_ZN23QDeclarativePaintedItem14setSmoothCacheEb @ 1486 NONAME
	_ZN23QDeclarativePaintedItem15setContentsSizeERK5QSize @ 1487 NONAME
	_ZN23QDeclarativePaintedItem16fillColorChangedEv @ 1488 NONAME
	_ZN23QDeclarativePaintedItem16setContentsScaleEf @ 1489 NONAME
	_ZN23QDeclarativePaintedItem16staticMetaObjectE @ 1490 NONAME DATA 16
	_ZN23QDeclarativePaintedItem17setPixelCacheSizeEi @ 1491 NONAME
	_ZN23QDeclarativePaintedItem19contentsSizeChangedEv @ 1492 NONAME
	_ZN23QDeclarativePaintedItem19getStaticMetaObjectEv @ 1493 NONAME
	_ZN23QDeclarativePaintedItem20contentsScaleChangedEv @ 1494 NONAME
	_ZN23QDeclarativePaintedItem4initEv @ 1495 NONAME ABSENT
	_ZN23QDeclarativePaintedItem5paintEP8QPainterPK24QStyleOptionGraphicsItemP7QWidget @ 1496 NONAME
	_ZN23QDeclarativePaintedItemC2EP16QDeclarativeItem @ 1497 NONAME
	_ZN23QDeclarativePaintedItemC2ER30QDeclarativePaintedItemPrivateP16QDeclarativeItem @ 1498 NONAME
	_ZN23QDeclarativePaintedItemD0Ev @ 1499 NONAME
	_ZN23QDeclarativePaintedItemD1Ev @ 1500 NONAME
	_ZN23QDeclarativePaintedItemD2Ev @ 1501 NONAME
	_ZN23QDeclarativePathElement11qt_metacallEN11QMetaObject4CallEiPPv @ 1502 NONAME
	_ZN23QDeclarativePathElement11qt_metacastEPKc @ 1503 NONAME
	_ZN23QDeclarativePathElement16staticMetaObjectE @ 1504 NONAME DATA 16
	_ZN23QDeclarativePathElement19getStaticMetaObjectEv @ 1505 NONAME
	_ZN23QDeclarativePathElement7changedEv @ 1506 NONAME
	_ZN23QDeclarativePathPercent11qt_metacallEN11QMetaObject4CallEiPPv @ 1507 NONAME
	_ZN23QDeclarativePathPercent11qt_metacastEPKc @ 1508 NONAME
	_ZN23QDeclarativePathPercent16staticMetaObjectE @ 1509 NONAME DATA 16
	_ZN23QDeclarativePathPercent19getStaticMetaObjectEv @ 1510 NONAME
	_ZN23QDeclarativePathPercent8setValueEf @ 1511 NONAME
	_ZN23QDeclarativePixmapCache15pendingRequestsEv @ 1512 NONAME
	_ZN23QDeclarativePixmapCache3getERK4QUrlP7QPixmapP5QSizebii @ 1513 NONAME ABSENT
	_ZN23QDeclarativePixmapCache6cancelERK4QUrlP7QObject @ 1514 NONAME
	_ZN23QDeclarativePixmapCache7requestEP18QDeclarativeEngineRK4QUrlii @ 1515 NONAME
	_ZN23QDeclarativePixmapReply10setLoadingEv @ 1516 NONAME
	_ZN23QDeclarativePixmapReply11qt_metacallEN11QMetaObject4CallEiPPv @ 1517 NONAME
	_ZN23QDeclarativePixmapReply11qt_metacastEPKc @ 1518 NONAME
	_ZN23QDeclarativePixmapReply16downloadProgressExx @ 1519 NONAME
	_ZN23QDeclarativePixmapReply16staticMetaObjectE @ 1520 NONAME DATA 16
	_ZN23QDeclarativePixmapReply19getStaticMetaObjectEv @ 1521 NONAME
	_ZN23QDeclarativePixmapReply5eventEP6QEvent @ 1522 NONAME
	_ZN23QDeclarativePixmapReply6addRefEv @ 1523 NONAME
	_ZN23QDeclarativePixmapReply7releaseEb @ 1524 NONAME
	_ZN23QDeclarativePixmapReply8finishedEv @ 1525 NONAME
	_ZN23QDeclarativePixmapReplyC1EP23QDeclarativeImageReaderRK4QUrlii @ 1526 NONAME
	_ZN23QDeclarativePixmapReplyC2EP23QDeclarativeImageReaderRK4QUrlii @ 1527 NONAME
	_ZN23QDeclarativePixmapReplyD0Ev @ 1528 NONAME
	_ZN23QDeclarativePixmapReplyD1Ev @ 1529 NONAME
	_ZN23QDeclarativePixmapReplyD2Ev @ 1530 NONAME
	_ZN23QDeclarativePropertyMap11qt_metacallEN11QMetaObject4CallEiPPv @ 1531 NONAME
	_ZN23QDeclarativePropertyMap11qt_metacastEPKc @ 1532 NONAME
	_ZN23QDeclarativePropertyMap12valueChangedERK7QStringRK8QVariant @ 1533 NONAME
	_ZN23QDeclarativePropertyMap16staticMetaObjectE @ 1534 NONAME DATA 16
	_ZN23QDeclarativePropertyMap19getStaticMetaObjectEv @ 1535 NONAME
	_ZN23QDeclarativePropertyMap5clearERK7QString @ 1536 NONAME
	_ZN23QDeclarativePropertyMap6insertERK7QStringRK8QVariant @ 1537 NONAME
	_ZN23QDeclarativePropertyMapC1EP7QObject @ 1538 NONAME
	_ZN23QDeclarativePropertyMapC2EP7QObject @ 1539 NONAME
	_ZN23QDeclarativePropertyMapD0Ev @ 1540 NONAME
	_ZN23QDeclarativePropertyMapD1Ev @ 1541 NONAME
	_ZN23QDeclarativePropertyMapD2Ev @ 1542 NONAME
	_ZN23QDeclarativePropertyMapixERK7QString @ 1543 NONAME
	_ZN23QDeclarativeViewSection11qt_metacallEN11QMetaObject4CallEiPPv @ 1544 NONAME
	_ZN23QDeclarativeViewSection11qt_metacastEPKc @ 1545 NONAME
	_ZN23QDeclarativeViewSection11setCriteriaENS_15SectionCriteriaE @ 1546 NONAME
	_ZN23QDeclarativeViewSection11setDelegateEP21QDeclarativeComponent @ 1547 NONAME
	_ZN23QDeclarativeViewSection11setPropertyERK7QString @ 1548 NONAME
	_ZN23QDeclarativeViewSection13sectionStringERK7QString @ 1549 NONAME
	_ZN23QDeclarativeViewSection15delegateChangedEv @ 1550 NONAME
	_ZN23QDeclarativeViewSection16staticMetaObjectE @ 1551 NONAME DATA 16
	_ZN23QDeclarativeViewSection19getStaticMetaObjectEv @ 1552 NONAME
	_ZN23QDeclarativeViewSection7changedEv @ 1553 NONAME
	_ZN23QDeclarativeVisualModel10itemsMovedEiii @ 1554 NONAME
	_ZN23QDeclarativeVisualModel10modelResetEv @ 1555 NONAME
	_ZN23QDeclarativeVisualModel11createdItemEiP16QDeclarativeItem @ 1556 NONAME
	_ZN23QDeclarativeVisualModel11qt_metacallEN11QMetaObject4CallEiPPv @ 1557 NONAME
	_ZN23QDeclarativeVisualModel11qt_metacastEPKc @ 1558 NONAME
	_ZN23QDeclarativeVisualModel12countChangedEv @ 1559 NONAME
	_ZN23QDeclarativeVisualModel12itemsRemovedEii @ 1560 NONAME
	_ZN23QDeclarativeVisualModel13itemsInsertedEii @ 1561 NONAME
	_ZN23QDeclarativeVisualModel14destroyingItemEP16QDeclarativeItem @ 1562 NONAME
	_ZN23QDeclarativeVisualModel16staticMetaObjectE @ 1563 NONAME DATA 16
	_ZN23QDeclarativeVisualModel19getStaticMetaObjectEv @ 1564 NONAME
	_ZN24QDeclarativeCustomParser11clearErrorsEv @ 1565 NONAME
	_ZN24QDeclarativeCustomParser5errorERK28QDeclarativeCustomParserNodeRK7QString @ 1566 NONAME
	_ZN24QDeclarativeCustomParser5errorERK32QDeclarativeCustomParserPropertyRK7QString @ 1567 NONAME
	_ZN24QDeclarativeDebugService11idForObjectEP7QObject @ 1568 NONAME
	_ZN24QDeclarativeDebugService11objectForIdEi @ 1569 NONAME
	_ZN24QDeclarativeDebugService11qt_metacallEN11QMetaObject4CallEiPPv @ 1570 NONAME
	_ZN24QDeclarativeDebugService11qt_metacastEPKc @ 1571 NONAME
	_ZN24QDeclarativeDebugService11sendMessageERK10QByteArray @ 1572 NONAME
	_ZN24QDeclarativeDebugService14enabledChangedEb @ 1573 NONAME
	_ZN24QDeclarativeDebugService14objectToStringEP7QObject @ 1574 NONAME
	_ZN24QDeclarativeDebugService14waitForClientsEv @ 1575 NONAME ABSENT
	_ZN24QDeclarativeDebugService15messageReceivedERK10QByteArray @ 1576 NONAME
	_ZN24QDeclarativeDebugService16staticMetaObjectE @ 1577 NONAME DATA 16
	_ZN24QDeclarativeDebugService18isDebuggingEnabledEv @ 1578 NONAME
	_ZN24QDeclarativeDebugService19getStaticMetaObjectEv @ 1579 NONAME
	_ZN24QDeclarativeDebugService19notifyOnServerStartEP7QObjectPKc @ 1580 NONAME ABSENT
	_ZN24QDeclarativeDebugServiceC1ERK7QStringP7QObject @ 1581 NONAME
	_ZN24QDeclarativeDebugServiceC2ERK7QStringP7QObject @ 1582 NONAME
	_ZN24QDeclarativeDomComponentC1ERKS_ @ 1583 NONAME
	_ZN24QDeclarativeDomComponentC1Ev @ 1584 NONAME
	_ZN24QDeclarativeDomComponentC2ERKS_ @ 1585 NONAME
	_ZN24QDeclarativeDomComponentC2Ev @ 1586 NONAME
	_ZN24QDeclarativeDomComponentD1Ev @ 1587 NONAME
	_ZN24QDeclarativeDomComponentD2Ev @ 1588 NONAME
	_ZN24QDeclarativeDomComponentaSERKS_ @ 1589 NONAME
	_ZN24QDeclarativeGradientStop11qt_metacallEN11QMetaObject4CallEiPPv @ 1590 NONAME
	_ZN24QDeclarativeGradientStop11qt_metacastEPKc @ 1591 NONAME
	_ZN24QDeclarativeGradientStop14updateGradientEv @ 1592 NONAME
	_ZN24QDeclarativeGradientStop16staticMetaObjectE @ 1593 NONAME DATA 16
	_ZN24QDeclarativeGradientStop19getStaticMetaObjectEv @ 1594 NONAME
	_ZN24QDeclarativeListAccessor7setListERK8QVariantP18QDeclarativeEngine @ 1595 NONAME
	_ZN24QDeclarativeListAccessorC1Ev @ 1596 NONAME
	_ZN24QDeclarativeListAccessorC2Ev @ 1597 NONAME
	_ZN24QDeclarativeListAccessorD1Ev @ 1598 NONAME
	_ZN24QDeclarativeListAccessorD2Ev @ 1599 NONAME
	_ZN24QDeclarativeParentChange11qt_metacallEN11QMetaObject4CallEiPPv @ 1600 NONAME
	_ZN24QDeclarativeParentChange11qt_metacastEPKc @ 1601 NONAME
	_ZN24QDeclarativeParentChange11setRotationEf @ 1602 NONAME ABSENT
	_ZN24QDeclarativeParentChange12isReversableEv @ 1603 NONAME
	_ZN24QDeclarativeParentChange13copyOriginalsEP23QDeclarativeActionEvent @ 1604 NONAME ABSENT
	_ZN24QDeclarativeParentChange13saveOriginalsEv @ 1605 NONAME
	_ZN24QDeclarativeParentChange16staticMetaObjectE @ 1606 NONAME DATA 16
	_ZN24QDeclarativeParentChange17saveCurrentValuesEv @ 1607 NONAME
	_ZN24QDeclarativeParentChange19getStaticMetaObjectEv @ 1608 NONAME
	_ZN24QDeclarativeParentChange4setXEf @ 1609 NONAME ABSENT
	_ZN24QDeclarativeParentChange4setYEf @ 1610 NONAME ABSENT
	_ZN24QDeclarativeParentChange6rewindEv @ 1611 NONAME
	_ZN24QDeclarativeParentChange7actionsEv @ 1612 NONAME
	_ZN24QDeclarativeParentChange7executeEv @ 1613 NONAME ABSENT
	_ZN24QDeclarativeParentChange7reverseEv @ 1614 NONAME ABSENT
	_ZN24QDeclarativeParentChange8overrideEP23QDeclarativeActionEvent @ 1615 NONAME
	_ZN24QDeclarativeParentChange8setScaleEf @ 1616 NONAME ABSENT
	_ZN24QDeclarativeParentChange8setWidthEf @ 1617 NONAME ABSENT
	_ZN24QDeclarativeParentChange9setHeightEf @ 1618 NONAME ABSENT
	_ZN24QDeclarativeParentChange9setObjectEP16QDeclarativeItem @ 1619 NONAME
	_ZN24QDeclarativeParentChange9setParentEP16QDeclarativeItem @ 1620 NONAME
	_ZN24QDeclarativeParentChangeC1EP7QObject @ 1621 NONAME
	_ZN24QDeclarativeParentChangeC2EP7QObject @ 1622 NONAME
	_ZN24QDeclarativeParentChangeD0Ev @ 1623 NONAME
	_ZN24QDeclarativeParentChangeD1Ev @ 1624 NONAME
	_ZN24QDeclarativeParentChangeD2Ev @ 1625 NONAME
	_ZN24QDeclarativeParserStatus10classBeginEv @ 1626 NONAME ABSENT
	_ZN24QDeclarativeParserStatus17componentCompleteEv @ 1627 NONAME ABSENT
	_ZN24QDeclarativeParserStatusC1Ev @ 1628 NONAME ABSENT
	_ZN24QDeclarativeParserStatusC2Ev @ 1629 NONAME
	_ZN24QDeclarativeParserStatusD0Ev @ 1630 NONAME
	_ZN24QDeclarativeParserStatusD1Ev @ 1631 NONAME
	_ZN24QDeclarativeParserStatusD2Ev @ 1632 NONAME
	_ZN24QDeclarativeScriptString10setContextEP19QDeclarativeContext @ 1633 NONAME
	_ZN24QDeclarativeScriptString14setScopeObjectEP7QObject @ 1634 NONAME
	_ZN24QDeclarativeScriptString9setScriptERK7QString @ 1635 NONAME
	_ZN24QDeclarativeScriptStringC1ERKS_ @ 1636 NONAME
	_ZN24QDeclarativeScriptStringC1Ev @ 1637 NONAME
	_ZN24QDeclarativeScriptStringC2ERKS_ @ 1638 NONAME
	_ZN24QDeclarativeScriptStringC2Ev @ 1639 NONAME
	_ZN24QDeclarativeScriptStringD1Ev @ 1640 NONAME
	_ZN24QDeclarativeScriptStringD2Ev @ 1641 NONAME
	_ZN24QDeclarativeScriptStringaSERKS_ @ 1642 NONAME
	_ZN24QDeclarativeSpringFollow10setDampingEf @ 1643 NONAME
	_ZN24QDeclarativeSpringFollow10setEnabledEb @ 1644 NONAME
	_ZN24QDeclarativeSpringFollow10setEpsilonEf @ 1645 NONAME
	_ZN24QDeclarativeSpringFollow10setModulusEf @ 1646 NONAME
	_ZN24QDeclarativeSpringFollow11massChangedEv @ 1647 NONAME
	_ZN24QDeclarativeSpringFollow11qt_metacallEN11QMetaObject4CallEiPPv @ 1648 NONAME
	_ZN24QDeclarativeSpringFollow11qt_metacastEPKc @ 1649 NONAME
	_ZN24QDeclarativeSpringFollow11setVelocityEf @ 1650 NONAME
	_ZN24QDeclarativeSpringFollow11syncChangedEv @ 1651 NONAME
	_ZN24QDeclarativeSpringFollow12valueChangedEf @ 1652 NONAME
	_ZN24QDeclarativeSpringFollow14modulusChangedEv @ 1653 NONAME
	_ZN24QDeclarativeSpringFollow14setSourceValueEf @ 1654 NONAME ABSENT
	_ZN24QDeclarativeSpringFollow16staticMetaObjectE @ 1655 NONAME DATA 16
	_ZN24QDeclarativeSpringFollow19getStaticMetaObjectEv @ 1656 NONAME
	_ZN24QDeclarativeSpringFollow7setMassEf @ 1657 NONAME
	_ZN24QDeclarativeSpringFollow9setSpringEf @ 1658 NONAME
	_ZN24QDeclarativeSpringFollow9setTargetERK20QDeclarativeProperty @ 1659 NONAME
	_ZN24QDeclarativeSpringFollowC1EP7QObject @ 1660 NONAME
	_ZN24QDeclarativeSpringFollowC2EP7QObject @ 1661 NONAME
	_ZN24QDeclarativeSpringFollowD0Ev @ 1662 NONAME
	_ZN24QDeclarativeSpringFollowD1Ev @ 1663 NONAME
	_ZN24QDeclarativeSpringFollowD2Ev @ 1664 NONAME
	_ZN24QDeclarativeWorkerScript11qt_metacallEN11QMetaObject4CallEiPPv @ 1665 NONAME
	_ZN24QDeclarativeWorkerScript11qt_metacastEPKc @ 1666 NONAME
	_ZN24QDeclarativeWorkerScript11sendMessageERK12QScriptValue @ 1667 NONAME
	_ZN24QDeclarativeWorkerScript13sourceChangedEv @ 1668 NONAME
	_ZN24QDeclarativeWorkerScript16staticMetaObjectE @ 1669 NONAME DATA 16
	_ZN24QDeclarativeWorkerScript17componentCompleteEv @ 1670 NONAME
	_ZN24QDeclarativeWorkerScript19getStaticMetaObjectEv @ 1671 NONAME
	_ZN24QDeclarativeWorkerScript5eventEP6QEvent @ 1672 NONAME
	_ZN24QDeclarativeWorkerScript7messageERK12QScriptValue @ 1673 NONAME
	_ZN24QDeclarativeWorkerScript9setSourceERK4QUrl @ 1674 NONAME
	_ZN24QDeclarativeWorkerScriptC1EP7QObject @ 1675 NONAME
	_ZN24QDeclarativeWorkerScriptC2EP7QObject @ 1676 NONAME
	_ZN24QDeclarativeWorkerScriptD0Ev @ 1677 NONAME
	_ZN24QDeclarativeWorkerScriptD1Ev @ 1678 NONAME
	_ZN24QDeclarativeWorkerScriptD2Ev @ 1679 NONAME
	_ZN24QDeclarativeXmlListModel10classBeginEv @ 1680 NONAME
	_ZN24QDeclarativeXmlListModel10xmlChangedEv @ 1681 NONAME
	_ZN24QDeclarativeXmlListModel11dataClearedEv @ 1682 NONAME
	_ZN24QDeclarativeXmlListModel11qt_metacallEN11QMetaObject4CallEiPPv @ 1683 NONAME
	_ZN24QDeclarativeXmlListModel11qt_metacastEPKc @ 1684 NONAME
	_ZN24QDeclarativeXmlListModel11roleObjectsEv @ 1685 NONAME
	_ZN24QDeclarativeXmlListModel12countChangedEv @ 1686 NONAME
	_ZN24QDeclarativeXmlListModel12queryChangedEv @ 1687 NONAME
	_ZN24QDeclarativeXmlListModel13sourceChangedEv @ 1688 NONAME
	_ZN24QDeclarativeXmlListModel13statusChangedENS_6StatusE @ 1689 NONAME
	_ZN24QDeclarativeXmlListModel14queryCompletedERK26QDeclarativeXmlQueryResult @ 1690 NONAME
	_ZN24QDeclarativeXmlListModel15progressChangedEf @ 1691 NONAME
	_ZN24QDeclarativeXmlListModel15requestFinishedEv @ 1692 NONAME
	_ZN24QDeclarativeXmlListModel15requestProgressExx @ 1693 NONAME
	_ZN24QDeclarativeXmlListModel16staticMetaObjectE @ 1694 NONAME DATA 16
	_ZN24QDeclarativeXmlListModel17componentCompleteEv @ 1695 NONAME
	_ZN24QDeclarativeXmlListModel19getStaticMetaObjectEv @ 1696 NONAME
	_ZN24QDeclarativeXmlListModel24setNamespaceDeclarationsERK7QString @ 1697 NONAME
	_ZN24QDeclarativeXmlListModel28namespaceDeclarationsChangedEv @ 1698 NONAME
	_ZN24QDeclarativeXmlListModel6reloadEv @ 1699 NONAME
	_ZN24QDeclarativeXmlListModel6setXmlERK7QString @ 1700 NONAME
	_ZN24QDeclarativeXmlListModel8setQueryERK7QString @ 1701 NONAME
	_ZN24QDeclarativeXmlListModel9setSourceERK4QUrl @ 1702 NONAME
	_ZN24QDeclarativeXmlListModelC1EP7QObject @ 1703 NONAME
	_ZN24QDeclarativeXmlListModelC2EP7QObject @ 1704 NONAME
	_ZN24QDeclarativeXmlListModelD0Ev @ 1705 NONAME
	_ZN24QDeclarativeXmlListModelD1Ev @ 1706 NONAME
	_ZN24QDeclarativeXmlListModelD2Ev @ 1707 NONAME
	_ZN25QDeclarativeAnchorChanges11qt_metacallEN11QMetaObject4CallEiPPv @ 1708 NONAME
	_ZN25QDeclarativeAnchorChanges11qt_metacastEPKc @ 1709 NONAME
	_ZN25QDeclarativeAnchorChanges12isReversableEv @ 1710 NONAME
	_ZN25QDeclarativeAnchorChanges13clearBindingsEv @ 1711 NONAME
	_ZN25QDeclarativeAnchorChanges13copyOriginalsEP23QDeclarativeActionEvent @ 1712 NONAME
	_ZN25QDeclarativeAnchorChanges13saveOriginalsEv @ 1713 NONAME
	_ZN25QDeclarativeAnchorChanges15changesBindingsEv @ 1714 NONAME
	_ZN25QDeclarativeAnchorChanges16saveTargetValuesEv @ 1715 NONAME
	_ZN25QDeclarativeAnchorChanges16staticMetaObjectE @ 1716 NONAME DATA 16
	_ZN25QDeclarativeAnchorChanges17additionalActionsEv @ 1717 NONAME
	_ZN25QDeclarativeAnchorChanges17saveCurrentValuesEv @ 1718 NONAME
	_ZN25QDeclarativeAnchorChanges19getStaticMetaObjectEv @ 1719 NONAME
	_ZN25QDeclarativeAnchorChanges6rewindEv @ 1720 NONAME
	_ZN25QDeclarativeAnchorChanges7actionsEv @ 1721 NONAME
	_ZN25QDeclarativeAnchorChanges7anchorsEv @ 1722 NONAME
	_ZN25QDeclarativeAnchorChanges7executeEv @ 1723 NONAME ABSENT
	_ZN25QDeclarativeAnchorChanges7reverseEv @ 1724 NONAME ABSENT
	_ZN25QDeclarativeAnchorChanges8overrideEP23QDeclarativeActionEvent @ 1725 NONAME
	_ZN25QDeclarativeAnchorChanges9setObjectEP16QDeclarativeItem @ 1726 NONAME
	_ZN25QDeclarativeAnchorChangesC1EP7QObject @ 1727 NONAME
	_ZN25QDeclarativeAnchorChangesC2EP7QObject @ 1728 NONAME
	_ZN25QDeclarativeAnchorChangesD0Ev @ 1729 NONAME
	_ZN25QDeclarativeAnchorChangesD1Ev @ 1730 NONAME
	_ZN25QDeclarativeAnchorChangesD2Ev @ 1731 NONAME
	_ZN25QDeclarativeAnimatedImage10setPlayingEb @ 1732 NONAME
	_ZN25QDeclarativeAnimatedImage11movieUpdateEv @ 1733 NONAME
	_ZN25QDeclarativeAnimatedImage11qt_metacallEN11QMetaObject4CallEiPPv @ 1734 NONAME
	_ZN25QDeclarativeAnimatedImage11qt_metacastEPKc @ 1735 NONAME
	_ZN25QDeclarativeAnimatedImage12frameChangedEv @ 1736 NONAME
	_ZN25QDeclarativeAnimatedImage13pausedChangedEv @ 1737 NONAME
	_ZN25QDeclarativeAnimatedImage14playingChangedEv @ 1738 NONAME
	_ZN25QDeclarativeAnimatedImage15setCurrentFrameEi @ 1739 NONAME
	_ZN25QDeclarativeAnimatedImage16staticMetaObjectE @ 1740 NONAME DATA 16
	_ZN25QDeclarativeAnimatedImage17componentCompleteEv @ 1741 NONAME
	_ZN25QDeclarativeAnimatedImage19getStaticMetaObjectEv @ 1742 NONAME
	_ZN25QDeclarativeAnimatedImage20movieRequestFinishedEv @ 1743 NONAME
	_ZN25QDeclarativeAnimatedImage20playingStatusChangedEv @ 1744 NONAME
	_ZN25QDeclarativeAnimatedImage9setPausedEb @ 1745 NONAME
	_ZN25QDeclarativeAnimatedImage9setSourceERK4QUrl @ 1746 NONAME
	_ZN25QDeclarativeAnimatedImageC1EP16QDeclarativeItem @ 1747 NONAME
	_ZN25QDeclarativeAnimatedImageC2EP16QDeclarativeItem @ 1748 NONAME
	_ZN25QDeclarativeAnimatedImageD0Ev @ 1749 NONAME
	_ZN25QDeclarativeAnimatedImageD1Ev @ 1750 NONAME
	_ZN25QDeclarativeAnimatedImageD2Ev @ 1751 NONAME
	_ZN25QDeclarativeImageProviderD0Ev @ 1752 NONAME
	_ZN25QDeclarativeImageProviderD1Ev @ 1753 NONAME
	_ZN25QDeclarativeImageProviderD2Ev @ 1754 NONAME
	_ZN25QDeclarativeListReferenceC1EP7QObjectPKcP18QDeclarativeEngine @ 1755 NONAME
	_ZN25QDeclarativeListReferenceC1ERKS_ @ 1756 NONAME
	_ZN25QDeclarativeListReferenceC1Ev @ 1757 NONAME
	_ZN25QDeclarativeListReferenceC2EP7QObjectPKcP18QDeclarativeEngine @ 1758 NONAME
	_ZN25QDeclarativeListReferenceC2ERKS_ @ 1759 NONAME
	_ZN25QDeclarativeListReferenceC2Ev @ 1760 NONAME
	_ZN25QDeclarativeListReferenceD1Ev @ 1761 NONAME
	_ZN25QDeclarativeListReferenceD2Ev @ 1762 NONAME
	_ZN25QDeclarativeListReferenceaSERKS_ @ 1763 NONAME
	_ZN25QDeclarativePathAttribute11nameChangedEv @ 1764 NONAME
	_ZN25QDeclarativePathAttribute11qt_metacallEN11QMetaObject4CallEiPPv @ 1765 NONAME
	_ZN25QDeclarativePathAttribute11qt_metacastEPKc @ 1766 NONAME
	_ZN25QDeclarativePathAttribute16staticMetaObjectE @ 1767 NONAME DATA 16
	_ZN25QDeclarativePathAttribute19getStaticMetaObjectEv @ 1768 NONAME
	_ZN25QDeclarativePathAttribute7setNameERK7QString @ 1769 NONAME
	_ZN25QDeclarativePathAttribute8setValueEf @ 1770 NONAME
	_ZN25QDeclarativeSystemPalette11eventFilterEP7QObjectP6QEvent @ 1771 NONAME
	_ZN25QDeclarativeSystemPalette11qt_metacallEN11QMetaObject4CallEiPPv @ 1772 NONAME
	_ZN25QDeclarativeSystemPalette11qt_metacastEPKc @ 1773 NONAME
	_ZN25QDeclarativeSystemPalette13setColorGroupENS_10ColorGroupE @ 1774 NONAME
	_ZN25QDeclarativeSystemPalette14paletteChangedEv @ 1775 NONAME
	_ZN25QDeclarativeSystemPalette16staticMetaObjectE @ 1776 NONAME DATA 16
	_ZN25QDeclarativeSystemPalette19getStaticMetaObjectEv @ 1777 NONAME
	_ZN25QDeclarativeSystemPalette5eventEP6QEvent @ 1778 NONAME
	_ZN25QDeclarativeSystemPaletteC1EP7QObject @ 1779 NONAME
	_ZN25QDeclarativeSystemPaletteC2EP7QObject @ 1780 NONAME
	_ZN25QDeclarativeSystemPaletteD0Ev @ 1781 NONAME
	_ZN25QDeclarativeSystemPaletteD1Ev @ 1782 NONAME
	_ZN25QDeclarativeSystemPaletteD2Ev @ 1783 NONAME
	_ZN26QDeclarativeBasePositioner10addChangedEv @ 1784 NONAME
	_ZN26QDeclarativeBasePositioner10itemChangeEN13QGraphicsItem18GraphicsItemChangeERK8QVariant @ 1785 NONAME
	_ZN26QDeclarativeBasePositioner10setSpacingEi @ 1786 NONAME
	_ZN26QDeclarativeBasePositioner11moveChangedEv @ 1787 NONAME
	_ZN26QDeclarativeBasePositioner11qt_metacallEN11QMetaObject4CallEiPPv @ 1788 NONAME
	_ZN26QDeclarativeBasePositioner11qt_metacastEPKc @ 1789 NONAME
	_ZN26QDeclarativeBasePositioner14prePositioningEv @ 1790 NONAME
	_ZN26QDeclarativeBasePositioner14spacingChangedEv @ 1791 NONAME
	_ZN26QDeclarativeBasePositioner16staticMetaObjectE @ 1792 NONAME DATA 16
	_ZN26QDeclarativeBasePositioner17componentCompleteEv @ 1793 NONAME
	_ZN26QDeclarativeBasePositioner19getStaticMetaObjectEv @ 1794 NONAME
	_ZN26QDeclarativeBasePositioner22finishApplyTransitionsEv @ 1795 NONAME
	_ZN26QDeclarativeBasePositioner6setAddEP22QDeclarativeTransition @ 1796 NONAME
	_ZN26QDeclarativeBasePositioner7setMoveEP22QDeclarativeTransition @ 1797 NONAME
	_ZN26QDeclarativeBasePositioner9positionXEiRKNS_14PositionedItemE @ 1798 NONAME
	_ZN26QDeclarativeBasePositioner9positionYEiRKNS_14PositionedItemE @ 1799 NONAME
	_ZN26QDeclarativeBasePositionerC2ENS_14PositionerTypeEP16QDeclarativeItem @ 1800 NONAME
	_ZN26QDeclarativeBasePositionerC2ER33QDeclarativeBasePositionerPrivateNS_14PositionerTypeEP16QDeclarativeItem @ 1801 NONAME
	_ZN26QDeclarativeBasePositionerD0Ev @ 1802 NONAME
	_ZN26QDeclarativeBasePositionerD1Ev @ 1803 NONAME
	_ZN26QDeclarativeBasePositionerD2Ev @ 1804 NONAME
	_ZN26QDeclarativeDebuggerStatus16setSelectedStateEb @ 1805 NONAME
	_ZN26QDeclarativeDebuggerStatusD0Ev @ 1806 NONAME
	_ZN26QDeclarativeDebuggerStatusD1Ev @ 1807 NONAME
	_ZN26QDeclarativeDebuggerStatusD2Ev @ 1808 NONAME
	_ZN26QDeclarativeOpenMetaObject12initialValueEi @ 1809 NONAME
	_ZN26QDeclarativeOpenMetaObject12propertyReadEi @ 1810 NONAME
	_ZN26QDeclarativeOpenMetaObject13propertyWriteEi @ 1811 NONAME
	_ZN26QDeclarativeOpenMetaObject14createPropertyEPKcS1_ @ 1812 NONAME
	_ZN26QDeclarativeOpenMetaObject15propertyCreatedEiR20QMetaPropertyBuilder @ 1813 NONAME
	_ZN26QDeclarativeOpenMetaObject15propertyWrittenEi @ 1814 NONAME
	_ZN26QDeclarativeOpenMetaObject8metaCallEN11QMetaObject4CallEiPPv @ 1815 NONAME
	_ZN26QDeclarativeOpenMetaObject8setValueERK10QByteArrayRK8QVariant @ 1816 NONAME
	_ZN26QDeclarativeOpenMetaObject8setValueEiRK8QVariant @ 1817 NONAME
	_ZN26QDeclarativeOpenMetaObject9setCachedEb @ 1818 NONAME
	_ZN26QDeclarativeOpenMetaObjectC1EP7QObjectP30QDeclarativeOpenMetaObjectTypeb @ 1819 NONAME
	_ZN26QDeclarativeOpenMetaObjectC1EP7QObjectb @ 1820 NONAME
	_ZN26QDeclarativeOpenMetaObjectC2EP7QObjectP30QDeclarativeOpenMetaObjectTypeb @ 1821 NONAME
	_ZN26QDeclarativeOpenMetaObjectC2EP7QObjectb @ 1822 NONAME
	_ZN26QDeclarativeOpenMetaObjectD0Ev @ 1823 NONAME
	_ZN26QDeclarativeOpenMetaObjectD1Ev @ 1824 NONAME
	_ZN26QDeclarativeOpenMetaObjectD2Ev @ 1825 NONAME
	_ZN26QDeclarativeOpenMetaObjectixERK10QByteArray @ 1826 NONAME
	_ZN26QDeclarativeOpenMetaObjectixEi @ 1827 NONAME
	_ZN26QDeclarativeStateOperation11qt_metacallEN11QMetaObject4CallEiPPv @ 1828 NONAME
	_ZN26QDeclarativeStateOperation11qt_metacastEPKc @ 1829 NONAME
	_ZN26QDeclarativeStateOperation16staticMetaObjectE @ 1830 NONAME DATA 16
	_ZN26QDeclarativeStateOperation19getStaticMetaObjectEv @ 1831 NONAME
	_ZN26QDeclarativeStateOperation7actionsEv @ 1832 NONAME
	_ZN26QDeclarativeStateOperationC1ER14QObjectPrivateP7QObject @ 1833 NONAME
	_ZN26QDeclarativeStateOperationC2ER14QObjectPrivateP7QObject @ 1834 NONAME
	_ZN27QDeclarativeAbstractBinding10setEnabledEb6QFlagsIN27QDeclarativePropertyPrivate9WriteFlagEE @ 1835 NONAME
	_ZN27QDeclarativeAbstractBinding11addToObjectEP7QObject @ 1836 NONAME
	_ZN27QDeclarativeAbstractBinding16removeFromObjectEv @ 1837 NONAME
	_ZN27QDeclarativeAbstractBinding5clearEv @ 1838 NONAME
	_ZN27QDeclarativeAbstractBinding7destroyEv @ 1839 NONAME
	_ZN27QDeclarativeAbstractBindingC2Ev @ 1840 NONAME
	_ZN27QDeclarativeAbstractBindingD0Ev @ 1841 NONAME
	_ZN27QDeclarativeAbstractBindingD1Ev @ 1842 NONAME
	_ZN27QDeclarativeAbstractBindingD2Ev @ 1843 NONAME
	_ZN27QDeclarativeDebugConnection11qt_metacallEN11QMetaObject4CallEiPPv @ 1844 NONAME
	_ZN27QDeclarativeDebugConnection11qt_metacastEPKc @ 1845 NONAME
	_ZN27QDeclarativeDebugConnection16staticMetaObjectE @ 1846 NONAME DATA 16
	_ZN27QDeclarativeDebugConnection19getStaticMetaObjectEv @ 1847 NONAME
	_ZN27QDeclarativeDebugConnectionC1EP7QObject @ 1848 NONAME
	_ZN27QDeclarativeDebugConnectionC2EP7QObject @ 1849 NONAME
	_ZN27QDeclarativeDomValueBindingC1ERKS_ @ 1850 NONAME
	_ZN27QDeclarativeDomValueBindingC1Ev @ 1851 NONAME
	_ZN27QDeclarativeDomValueBindingC2ERKS_ @ 1852 NONAME
	_ZN27QDeclarativeDomValueBindingC2Ev @ 1853 NONAME
	_ZN27QDeclarativeDomValueBindingD1Ev @ 1854 NONAME
	_ZN27QDeclarativeDomValueBindingD2Ev @ 1855 NONAME
	_ZN27QDeclarativeDomValueBindingaSERKS_ @ 1856 NONAME
	_ZN27QDeclarativeDomValueLiteralC1ERKS_ @ 1857 NONAME
	_ZN27QDeclarativeDomValueLiteralC1Ev @ 1858 NONAME
	_ZN27QDeclarativeDomValueLiteralC2ERKS_ @ 1859 NONAME
	_ZN27QDeclarativeDomValueLiteralC2Ev @ 1860 NONAME
	_ZN27QDeclarativeDomValueLiteralD1Ev @ 1861 NONAME
	_ZN27QDeclarativeDomValueLiteralD2Ev @ 1862 NONAME
	_ZN27QDeclarativeDomValueLiteralaSERKS_ @ 1863 NONAME
	_ZN27QDeclarativeExtensionPlugin11qt_metacallEN11QMetaObject4CallEiPPv @ 1864 NONAME
	_ZN27QDeclarativeExtensionPlugin11qt_metacastEPKc @ 1865 NONAME
	_ZN27QDeclarativeExtensionPlugin16initializeEngineEP18QDeclarativeEnginePKc @ 1866 NONAME
	_ZN27QDeclarativeExtensionPlugin16staticMetaObjectE @ 1867 NONAME DATA 16
	_ZN27QDeclarativeExtensionPlugin19getStaticMetaObjectEv @ 1868 NONAME
	_ZN27QDeclarativeExtensionPluginC2EP7QObject @ 1869 NONAME
	_ZN27QDeclarativeExtensionPluginD0Ev @ 1870 NONAME
	_ZN27QDeclarativeExtensionPluginD1Ev @ 1871 NONAME
	_ZN27QDeclarativeExtensionPluginD2Ev @ 1872 NONAME
	_ZN27QDeclarativeGridScaledImage12stringToRuleERK7QString @ 1873 NONAME
	_ZN27QDeclarativeGridScaledImageC1EP9QIODevice @ 1874 NONAME
	_ZN27QDeclarativeGridScaledImageC1ERKS_ @ 1875 NONAME
	_ZN27QDeclarativeGridScaledImageC1Ev @ 1876 NONAME
	_ZN27QDeclarativeGridScaledImageC2EP9QIODevice @ 1877 NONAME
	_ZN27QDeclarativeGridScaledImageC2ERKS_ @ 1878 NONAME
	_ZN27QDeclarativeGridScaledImageC2Ev @ 1879 NONAME
	_ZN27QDeclarativeGridScaledImageaSERKS_ @ 1880 NONAME
	_ZN27QDeclarativePropertyChanges11qt_metacallEN11QMetaObject4CallEiPPv @ 1881 NONAME
	_ZN27QDeclarativePropertyChanges11qt_metacastEPKc @ 1882 NONAME
	_ZN27QDeclarativePropertyChanges13setIsExplicitEb @ 1883 NONAME
	_ZN27QDeclarativePropertyChanges16staticMetaObjectE @ 1884 NONAME DATA 16
	_ZN27QDeclarativePropertyChanges19getStaticMetaObjectEv @ 1885 NONAME
	_ZN27QDeclarativePropertyChanges21setRestoreEntryValuesEb @ 1886 NONAME
	_ZN27QDeclarativePropertyChanges7actionsEv @ 1887 NONAME
	_ZN27QDeclarativePropertyChanges9setObjectEP7QObject @ 1888 NONAME
	_ZN27QDeclarativePropertyChangesC1Ev @ 1889 NONAME
	_ZN27QDeclarativePropertyChangesC2Ev @ 1890 NONAME
	_ZN27QDeclarativePropertyChangesD0Ev @ 1891 NONAME
	_ZN27QDeclarativePropertyChangesD1Ev @ 1892 NONAME
	_ZN27QDeclarativePropertyChangesD2Ev @ 1893 NONAME
	_ZN27QDeclarativePropertyPrivate10canConvertEPK11QMetaObjectS2_ @ 1894 NONAME
	_ZN27QDeclarativePropertyPrivate10setBindingEP7QObjectiiP27QDeclarativeAbstractBinding6QFlagsINS_9WriteFlagEE @ 1895 NONAME
	_ZN27QDeclarativePropertyPrivate10setBindingERK20QDeclarativePropertyP27QDeclarativeAbstractBinding6QFlagsINS_9WriteFlagEE @ 1896 NONAME
	_ZN27QDeclarativePropertyPrivate11initDefaultEP7QObject @ 1897 NONAME
	_ZN27QDeclarativePropertyPrivate12bindingIndexERK20QDeclarativeProperty @ 1898 NONAME
	_ZN27QDeclarativePropertyPrivate12initPropertyEP7QObjectRK7QString @ 1899 NONAME
	_ZN27QDeclarativePropertyPrivate12savePropertyEPK11QMetaObjecti @ 1900 NONAME
	_ZN27QDeclarativePropertyPrivate13saveValueTypeEPK11QMetaObjectiS2_i @ 1901 NONAME
	_ZN27QDeclarativePropertyPrivate16signalExpressionERK20QDeclarativeProperty @ 1902 NONAME
	_ZN27QDeclarativePropertyPrivate17readValuePropertyEv @ 1903 NONAME
	_ZN27QDeclarativePropertyPrivate17writeEnumPropertyERK13QMetaPropertyiP7QObjectRK8QVarianti @ 1904 NONAME
	_ZN27QDeclarativePropertyPrivate18valueTypeCoreIndexERK20QDeclarativeProperty @ 1905 NONAME
	_ZN27QDeclarativePropertyPrivate18writeValuePropertyERK8QVariant6QFlagsINS_9WriteFlagEE @ 1906 NONAME
	_ZN27QDeclarativePropertyPrivate19setSignalExpressionERK20QDeclarativePropertyP22QDeclarativeExpression @ 1907 NONAME
	_ZN27QDeclarativePropertyPrivate20rawMetaObjectForTypeEP25QDeclarativeEnginePrivatei @ 1908 NONAME
	_ZN27QDeclarativePropertyPrivate5equalEPK11QMetaObjectS2_ @ 1909 NONAME
	_ZN27QDeclarativePropertyPrivate5writeEP7QObjectRKN25QDeclarativePropertyCache4DataERK8QVariantP23QDeclarativeContextData6QFlagsINS_9WriteFlagEE @ 1910 NONAME
	_ZN27QDeclarativePropertyPrivate5writeERK20QDeclarativePropertyRK8QVariant6QFlagsINS_9WriteFlagEE @ 1911 NONAME
	_ZN27QDeclarativePropertyPrivate7bindingERK20QDeclarativeProperty @ 1912 NONAME
	_ZN27QDeclarativePropertyPrivate7restoreERK10QByteArrayP7QObjectP23QDeclarativeContextData @ 1913 NONAME
	_ZN27QDeclarativeVisualDataModel11qt_metacallEN11QMetaObject4CallEiPPv @ 1914 NONAME
	_ZN27QDeclarativeVisualDataModel11qt_metacastEPKc @ 1915 NONAME
	_ZN27QDeclarativeVisualDataModel11setDelegateEP21QDeclarativeComponent @ 1916 NONAME
	_ZN27QDeclarativeVisualDataModel11stringValueEiRK7QString @ 1917 NONAME
	_ZN27QDeclarativeVisualDataModel12_q_rowsMovedERK11QModelIndexiiS2_i @ 1918 NONAME
	_ZN27QDeclarativeVisualDataModel12completeItemEv @ 1919 NONAME
	_ZN27QDeclarativeVisualDataModel12setRootIndexERK11QModelIndex @ 1920 NONAME ABSENT
	_ZN27QDeclarativeVisualDataModel13_q_itemsMovedEiii @ 1921 NONAME
	_ZN27QDeclarativeVisualDataModel13_q_modelResetEv @ 1922 NONAME
	_ZN27QDeclarativeVisualDataModel14_q_dataChangedERK11QModelIndexS2_ @ 1923 NONAME
	_ZN27QDeclarativeVisualDataModel14_q_rowsRemovedERK11QModelIndexii @ 1924 NONAME
	_ZN27QDeclarativeVisualDataModel14createdPackageEiP19QDeclarativePackage @ 1925 NONAME
	_ZN27QDeclarativeVisualDataModel15_q_itemsChangedEiiRK5QListIiE @ 1926 NONAME
	_ZN27QDeclarativeVisualDataModel15_q_itemsRemovedEii @ 1927 NONAME
	_ZN27QDeclarativeVisualDataModel15_q_rowsInsertedERK11QModelIndexii @ 1928 NONAME
	_ZN27QDeclarativeVisualDataModel16_q_itemsInsertedEii @ 1929 NONAME
	_ZN27QDeclarativeVisualDataModel16rootIndexChangedEv @ 1930 NONAME
	_ZN27QDeclarativeVisualDataModel16staticMetaObjectE @ 1931 NONAME DATA 16
	_ZN27QDeclarativeVisualDataModel17_q_createdPackageEiP19QDeclarativePackage @ 1932 NONAME
	_ZN27QDeclarativeVisualDataModel17destroyingPackageEP19QDeclarativePackage @ 1933 NONAME
	_ZN27QDeclarativeVisualDataModel19getStaticMetaObjectEv @ 1934 NONAME
	_ZN27QDeclarativeVisualDataModel20_q_destroyingPackageEP19QDeclarativePackage @ 1935 NONAME
	_ZN27QDeclarativeVisualDataModel4itemEiRK10QByteArrayb @ 1936 NONAME
	_ZN27QDeclarativeVisualDataModel4itemEib @ 1937 NONAME
	_ZN27QDeclarativeVisualDataModel5partsEv @ 1938 NONAME
	_ZN27QDeclarativeVisualDataModel7releaseEP16QDeclarativeItem @ 1939 NONAME
	_ZN27QDeclarativeVisualDataModel7setPartERK7QString @ 1940 NONAME
	_ZN27QDeclarativeVisualDataModel8evaluateEiRK7QStringP7QObject @ 1941 NONAME
	_ZN27QDeclarativeVisualDataModel8setModelERK8QVariant @ 1942 NONAME
	_ZN27QDeclarativeVisualDataModelC1EP19QDeclarativeContext @ 1943 NONAME ABSENT
	_ZN27QDeclarativeVisualDataModelC1Ev @ 1944 NONAME
	_ZN27QDeclarativeVisualDataModelC2EP19QDeclarativeContext @ 1945 NONAME ABSENT
	_ZN27QDeclarativeVisualDataModelC2Ev @ 1946 NONAME
	_ZN27QDeclarativeVisualDataModelD0Ev @ 1947 NONAME
	_ZN27QDeclarativeVisualDataModelD1Ev @ 1948 NONAME
	_ZN27QDeclarativeVisualDataModelD2Ev @ 1949 NONAME
	_ZN27QDeclarativeVisualItemModel11qt_metacallEN11QMetaObject4CallEiPPv @ 1950 NONAME
	_ZN27QDeclarativeVisualItemModel11qt_metacastEPKc @ 1951 NONAME
	_ZN27QDeclarativeVisualItemModel11stringValueEiRK7QString @ 1952 NONAME
	_ZN27QDeclarativeVisualItemModel12completeItemEv @ 1953 NONAME
	_ZN27QDeclarativeVisualItemModel15childrenChangedEv @ 1954 NONAME
	_ZN27QDeclarativeVisualItemModel16staticMetaObjectE @ 1955 NONAME DATA 16
	_ZN27QDeclarativeVisualItemModel19getStaticMetaObjectEv @ 1956 NONAME
	_ZN27QDeclarativeVisualItemModel21qmlAttachedPropertiesEP7QObject @ 1957 NONAME
	_ZN27QDeclarativeVisualItemModel4itemEib @ 1958 NONAME
	_ZN27QDeclarativeVisualItemModel7releaseEP16QDeclarativeItem @ 1959 NONAME
	_ZN27QDeclarativeVisualItemModel8childrenEv @ 1960 NONAME
	_ZN27QDeclarativeVisualItemModel8evaluateEiRK7QStringP7QObject @ 1961 NONAME
	_ZN27QDeclarativeVisualItemModelC1Ev @ 1962 NONAME ABSENT
	_ZN27QDeclarativeVisualItemModelC2Ev @ 1963 NONAME ABSENT
	_ZN28QDeclarativeCustomParserNodeC1ERKS_ @ 1964 NONAME
	_ZN28QDeclarativeCustomParserNodeC1Ev @ 1965 NONAME
	_ZN28QDeclarativeCustomParserNodeC2ERKS_ @ 1966 NONAME
	_ZN28QDeclarativeCustomParserNodeC2Ev @ 1967 NONAME
	_ZN28QDeclarativeCustomParserNodeD1Ev @ 1968 NONAME
	_ZN28QDeclarativeCustomParserNodeD2Ev @ 1969 NONAME
	_ZN28QDeclarativeCustomParserNodeaSERKS_ @ 1970 NONAME
	_ZN28QDeclarativeDebugObjectQuery11qt_metacallEN11QMetaObject4CallEiPPv @ 1971 NONAME
	_ZN28QDeclarativeDebugObjectQuery11qt_metacastEPKc @ 1972 NONAME
	_ZN28QDeclarativeDebugObjectQuery16staticMetaObjectE @ 1973 NONAME DATA 16
	_ZN28QDeclarativeDebugObjectQuery19getStaticMetaObjectEv @ 1974 NONAME
	_ZN28QDeclarativeDebugObjectQueryC1EP7QObject @ 1975 NONAME
	_ZN28QDeclarativeDebugObjectQueryC2EP7QObject @ 1976 NONAME
	_ZN28QDeclarativeDebugObjectQueryD0Ev @ 1977 NONAME
	_ZN28QDeclarativeDebugObjectQueryD1Ev @ 1978 NONAME
	_ZN28QDeclarativeDebugObjectQueryD2Ev @ 1979 NONAME
	_ZN28QDeclarativeStringConverters14dateFromStringERK7QStringPb @ 1980 NONAME
	_ZN28QDeclarativeStringConverters14timeFromStringERK7QStringPb @ 1981 NONAME
	_ZN28QDeclarativeStringConverters15colorFromStringERK7QStringPb @ 1982 NONAME
	_ZN28QDeclarativeStringConverters15rectFFromStringERK7QStringPb @ 1983 NONAME
	_ZN28QDeclarativeStringConverters15sizeFFromStringERK7QStringPb @ 1984 NONAME
	_ZN28QDeclarativeStringConverters16pointFFromStringERK7QStringPb @ 1985 NONAME
	_ZN28QDeclarativeStringConverters17variantFromStringERK7QString @ 1986 NONAME
	_ZN28QDeclarativeStringConverters17variantFromStringERK7QStringiPb @ 1987 NONAME
	_ZN28QDeclarativeStringConverters18dateTimeFromStringERK7QStringPb @ 1988 NONAME
	_ZN28QDeclarativeStringConverters18vector3DFromStringERK7QStringPb @ 1989 NONAME
	_ZN28QDeclarativeValueTypeFactory11isValueTypeEi @ 1990 NONAME
	_ZN28QDeclarativeValueTypeFactory18registerValueTypesEv @ 1991 NONAME
	_ZN28QDeclarativeValueTypeFactory9valueTypeEi @ 1992 NONAME
	_ZN28QDeclarativeValueTypeFactoryC1Ev @ 1993 NONAME
	_ZN28QDeclarativeValueTypeFactoryC2Ev @ 1994 NONAME
	_ZN28QDeclarativeValueTypeFactoryD1Ev @ 1995 NONAME
	_ZN28QDeclarativeValueTypeFactoryD2Ev @ 1996 NONAME
	_ZN28QDeclarativeXmlListModelRole11nameChangedEv @ 1997 NONAME
	_ZN28QDeclarativeXmlListModelRole11qt_metacallEN11QMetaObject4CallEiPPv @ 1998 NONAME
	_ZN28QDeclarativeXmlListModelRole11qt_metacastEPKc @ 1999 NONAME
	_ZN28QDeclarativeXmlListModelRole12isKeyChangedEv @ 2000 NONAME
	_ZN28QDeclarativeXmlListModelRole12queryChangedEv @ 2001 NONAME
	_ZN28QDeclarativeXmlListModelRole16staticMetaObjectE @ 2002 NONAME DATA 16
	_ZN28QDeclarativeXmlListModelRole19getStaticMetaObjectEv @ 2003 NONAME
	_ZN29QDeclarativeDebugEnginesQuery11qt_metacallEN11QMetaObject4CallEiPPv @ 2004 NONAME
	_ZN29QDeclarativeDebugEnginesQuery11qt_metacastEPKc @ 2005 NONAME
	_ZN29QDeclarativeDebugEnginesQuery16staticMetaObjectE @ 2006 NONAME DATA 16
	_ZN29QDeclarativeDebugEnginesQuery19getStaticMetaObjectEv @ 2007 NONAME
	_ZN29QDeclarativeDebugEnginesQueryC1EP7QObject @ 2008 NONAME
	_ZN29QDeclarativeDebugEnginesQueryC2EP7QObject @ 2009 NONAME
	_ZN29QDeclarativeDebugEnginesQueryD0Ev @ 2010 NONAME
	_ZN29QDeclarativeDebugEnginesQueryD1Ev @ 2011 NONAME
	_ZN29QDeclarativeDebugEnginesQueryD2Ev @ 2012 NONAME
	_ZN29QDeclarativeSmoothedAnimation10transitionER5QListI18QDeclarativeActionERS0_I20QDeclarativePropertyEN29QDeclarativeAbstractAnimation19TransitionDirectionE @ 2013 NONAME
	_ZN29QDeclarativeSmoothedAnimation11qtAnimationEv @ 2014 NONAME
	_ZN29QDeclarativeSmoothedAnimation11qt_metacallEN11QMetaObject4CallEiPPv @ 2015 NONAME
	_ZN29QDeclarativeSmoothedAnimation11qt_metacastEPKc @ 2016 NONAME
	_ZN29QDeclarativeSmoothedAnimation11setDurationEi @ 2017 NONAME
	_ZN29QDeclarativeSmoothedAnimation11setVelocityEf @ 2018 NONAME
	_ZN29QDeclarativeSmoothedAnimation15velocityChangedEv @ 2019 NONAME
	_ZN29QDeclarativeSmoothedAnimation16setReversingModeENS_13ReversingModeE @ 2020 NONAME
	_ZN29QDeclarativeSmoothedAnimation16staticMetaObjectE @ 2021 NONAME DATA 16
	_ZN29QDeclarativeSmoothedAnimation19getStaticMetaObjectEv @ 2022 NONAME
	_ZN29QDeclarativeSmoothedAnimation20reversingModeChangedEv @ 2023 NONAME
	_ZN29QDeclarativeSmoothedAnimation20setMaximumEasingTimeEi @ 2024 NONAME
	_ZN29QDeclarativeSmoothedAnimation24maximumEasingTimeChangedEv @ 2025 NONAME
	_ZN29QDeclarativeSmoothedAnimationC1EP7QObject @ 2026 NONAME
	_ZN29QDeclarativeSmoothedAnimationC2EP7QObject @ 2027 NONAME
	_ZN29QDeclarativeSmoothedAnimationD0Ev @ 2028 NONAME
	_ZN29QDeclarativeSmoothedAnimationD1Ev @ 2029 NONAME
	_ZN29QDeclarativeSmoothedAnimationD2Ev @ 2030 NONAME
	_ZN29QDeclarativeStateChangeScript11qt_metacallEN11QMetaObject4CallEiPPv @ 2031 NONAME
	_ZN29QDeclarativeStateChangeScript11qt_metacastEPKc @ 2032 NONAME
	_ZN29QDeclarativeStateChangeScript16staticMetaObjectE @ 2033 NONAME DATA 16
	_ZN29QDeclarativeStateChangeScript19getStaticMetaObjectEv @ 2034 NONAME
	_ZN29QDeclarativeStateChangeScript7actionsEv @ 2035 NONAME
	_ZN29QDeclarativeStateChangeScript7executeEv @ 2036 NONAME ABSENT
	_ZN29QDeclarativeStateChangeScript7setNameERK7QString @ 2037 NONAME
	_ZN29QDeclarativeStateChangeScript9setScriptERK24QDeclarativeScriptString @ 2038 NONAME
	_ZN29QDeclarativeStateChangeScriptC1EP7QObject @ 2039 NONAME
	_ZN29QDeclarativeStateChangeScriptC2EP7QObject @ 2040 NONAME
	_ZN29QDeclarativeStateChangeScriptD0Ev @ 2041 NONAME
	_ZN29QDeclarativeStateChangeScriptD1Ev @ 2042 NONAME
	_ZN29QDeclarativeStateChangeScriptD2Ev @ 2043 NONAME
	_ZN30QDeclarativeDebugFileReference13setLineNumberEi @ 2044 NONAME
	_ZN30QDeclarativeDebugFileReference15setColumnNumberEi @ 2045 NONAME
	_ZN30QDeclarativeDebugFileReference6setUrlERK4QUrl @ 2046 NONAME
	_ZN30QDeclarativeDebugFileReferenceC1ERKS_ @ 2047 NONAME
	_ZN30QDeclarativeDebugFileReferenceC1Ev @ 2048 NONAME
	_ZN30QDeclarativeDebugFileReferenceC2ERKS_ @ 2049 NONAME
	_ZN30QDeclarativeDebugFileReferenceC2Ev @ 2050 NONAME
	_ZN30QDeclarativeDebugFileReferenceaSERKS_ @ 2051 NONAME
	_ZN30QDeclarativeDebugPropertyWatch11qt_metacallEN11QMetaObject4CallEiPPv @ 2052 NONAME
	_ZN30QDeclarativeDebugPropertyWatch11qt_metacastEPKc @ 2053 NONAME
	_ZN30QDeclarativeDebugPropertyWatch16staticMetaObjectE @ 2054 NONAME DATA 16
	_ZN30QDeclarativeDebugPropertyWatch19getStaticMetaObjectEv @ 2055 NONAME
	_ZN30QDeclarativeDebugPropertyWatchC1EP7QObject @ 2056 NONAME
	_ZN30QDeclarativeDebugPropertyWatchC2EP7QObject @ 2057 NONAME
	_ZN30QDeclarativeDomDynamicPropertyC1ERKS_ @ 2058 NONAME
	_ZN30QDeclarativeDomDynamicPropertyC1Ev @ 2059 NONAME
	_ZN30QDeclarativeDomDynamicPropertyC2ERKS_ @ 2060 NONAME
	_ZN30QDeclarativeDomDynamicPropertyC2Ev @ 2061 NONAME
	_ZN30QDeclarativeDomDynamicPropertyD1Ev @ 2062 NONAME
	_ZN30QDeclarativeDomDynamicPropertyD2Ev @ 2063 NONAME
	_ZN30QDeclarativeDomDynamicPropertyaSERKS_ @ 2064 NONAME
	_ZN30QDeclarativeOpenMetaObjectType14createPropertyERK10QByteArray @ 2065 NONAME
	_ZN30QDeclarativeOpenMetaObjectType15propertyCreatedEiR20QMetaPropertyBuilder @ 2066 NONAME
	_ZN30QDeclarativeOpenMetaObjectTypeC1EPK11QMetaObjectP18QDeclarativeEngine @ 2067 NONAME
	_ZN30QDeclarativeOpenMetaObjectTypeC2EPK11QMetaObjectP18QDeclarativeEngine @ 2068 NONAME
	_ZN30QDeclarativeOpenMetaObjectTypeD0Ev @ 2069 NONAME
	_ZN30QDeclarativeOpenMetaObjectTypeD1Ev @ 2070 NONAME
	_ZN30QDeclarativeOpenMetaObjectTypeD2Ev @ 2071 NONAME
	_ZN31QDeclarativeDomValueValueSourceC1ERKS_ @ 2072 NONAME
	_ZN31QDeclarativeDomValueValueSourceC1Ev @ 2073 NONAME
	_ZN31QDeclarativeDomValueValueSourceC2ERKS_ @ 2074 NONAME
	_ZN31QDeclarativeDomValueValueSourceC2Ev @ 2075 NONAME
	_ZN31QDeclarativeDomValueValueSourceD1Ev @ 2076 NONAME
	_ZN31QDeclarativeDomValueValueSourceD2Ev @ 2077 NONAME
	_ZN31QDeclarativeDomValueValueSourceaSERKS_ @ 2078 NONAME
	_ZN31QDeclarativePropertyValueSourceC2Ev @ 2079 NONAME
	_ZN31QDeclarativePropertyValueSourceD0Ev @ 2080 NONAME
	_ZN31QDeclarativePropertyValueSourceD1Ev @ 2081 NONAME
	_ZN31QDeclarativePropertyValueSourceD2Ev @ 2082 NONAME
	_ZN32QDeclarativeCustomParserPropertyC1ERKS_ @ 2083 NONAME
	_ZN32QDeclarativeCustomParserPropertyC1Ev @ 2084 NONAME
	_ZN32QDeclarativeCustomParserPropertyC2ERKS_ @ 2085 NONAME
	_ZN32QDeclarativeCustomParserPropertyC2Ev @ 2086 NONAME
	_ZN32QDeclarativeCustomParserPropertyD1Ev @ 2087 NONAME
	_ZN32QDeclarativeCustomParserPropertyD2Ev @ 2088 NONAME
	_ZN32QDeclarativeCustomParserPropertyaSERKS_ @ 2089 NONAME
	_ZN32QDeclarativeDebugEngineReferenceC1ERKS_ @ 2090 NONAME
	_ZN32QDeclarativeDebugEngineReferenceC1Ei @ 2091 NONAME
	_ZN32QDeclarativeDebugEngineReferenceC1Ev @ 2092 NONAME
	_ZN32QDeclarativeDebugEngineReferenceC2ERKS_ @ 2093 NONAME
	_ZN32QDeclarativeDebugEngineReferenceC2Ei @ 2094 NONAME
	_ZN32QDeclarativeDebugEngineReferenceC2Ev @ 2095 NONAME
	_ZN32QDeclarativeDebugEngineReferenceaSERKS_ @ 2096 NONAME
	_ZN32QDeclarativeDebugExpressionQuery11qt_metacallEN11QMetaObject4CallEiPPv @ 2097 NONAME
	_ZN32QDeclarativeDebugExpressionQuery11qt_metacastEPKc @ 2098 NONAME
	_ZN32QDeclarativeDebugExpressionQuery16staticMetaObjectE @ 2099 NONAME DATA 16
	_ZN32QDeclarativeDebugExpressionQuery19getStaticMetaObjectEv @ 2100 NONAME
	_ZN32QDeclarativeDebugExpressionQueryC1EP7QObject @ 2101 NONAME
	_ZN32QDeclarativeDebugExpressionQueryC2EP7QObject @ 2102 NONAME
	_ZN32QDeclarativeDebugExpressionQueryD0Ev @ 2103 NONAME
	_ZN32QDeclarativeDebugExpressionQueryD1Ev @ 2104 NONAME
	_ZN32QDeclarativeDebugExpressionQueryD2Ev @ 2105 NONAME
	_ZN32QDeclarativeDebugObjectReferenceC1ERKS_ @ 2106 NONAME
	_ZN32QDeclarativeDebugObjectReferenceC1Ei @ 2107 NONAME
	_ZN32QDeclarativeDebugObjectReferenceC1Ev @ 2108 NONAME
	_ZN32QDeclarativeDebugObjectReferenceC2ERKS_ @ 2109 NONAME
	_ZN32QDeclarativeDebugObjectReferenceC2Ei @ 2110 NONAME
	_ZN32QDeclarativeDebugObjectReferenceC2Ev @ 2111 NONAME
	_ZN32QDeclarativeDebugObjectReferenceaSERKS_ @ 2112 NONAME
	_ZN33QDeclarativeDebugContextReferenceC1ERKS_ @ 2113 NONAME
	_ZN33QDeclarativeDebugContextReferenceC1Ev @ 2114 NONAME
	_ZN33QDeclarativeDebugContextReferenceC2ERKS_ @ 2115 NONAME
	_ZN33QDeclarativeDebugContextReferenceC2Ev @ 2116 NONAME
	_ZN33QDeclarativeDebugContextReferenceaSERKS_ @ 2117 NONAME
	_ZN33QDeclarativeDebugRootContextQuery11qt_metacallEN11QMetaObject4CallEiPPv @ 2118 NONAME
	_ZN33QDeclarativeDebugRootContextQuery11qt_metacastEPKc @ 2119 NONAME
	_ZN33QDeclarativeDebugRootContextQuery16staticMetaObjectE @ 2120 NONAME DATA 16
	_ZN33QDeclarativeDebugRootContextQuery19getStaticMetaObjectEv @ 2121 NONAME
	_ZN33QDeclarativeDebugRootContextQueryC1EP7QObject @ 2122 NONAME
	_ZN33QDeclarativeDebugRootContextQueryC2EP7QObject @ 2123 NONAME
	_ZN33QDeclarativeDebugRootContextQueryD0Ev @ 2124 NONAME
	_ZN33QDeclarativeDebugRootContextQueryD1Ev @ 2125 NONAME
	_ZN33QDeclarativeDebugRootContextQueryD2Ev @ 2126 NONAME
	_ZN34QDeclarativeDebugPropertyReferenceC1ERKS_ @ 2127 NONAME
	_ZN34QDeclarativeDebugPropertyReferenceC1Ev @ 2128 NONAME
	_ZN34QDeclarativeDebugPropertyReferenceC2ERKS_ @ 2129 NONAME
	_ZN34QDeclarativeDebugPropertyReferenceC2Ev @ 2130 NONAME
	_ZN34QDeclarativeDebugPropertyReferenceaSERKS_ @ 2131 NONAME
	_ZN35QDeclarativeGraphicsObjectContainer10itemChangeEN13QGraphicsItem18GraphicsItemChangeERK8QVariant @ 2132 NONAME ABSENT
	_ZN35QDeclarativeGraphicsObjectContainer11eventFilterEP7QObjectP6QEvent @ 2133 NONAME ABSENT
	_ZN35QDeclarativeGraphicsObjectContainer11qt_metacallEN11QMetaObject4CallEiPPv @ 2134 NONAME ABSENT
	_ZN35QDeclarativeGraphicsObjectContainer11qt_metacastEPKc @ 2135 NONAME ABSENT
	_ZN35QDeclarativeGraphicsObjectContainer16staticMetaObjectE @ 2136 NONAME DATA 16 ABSENT
	_ZN35QDeclarativeGraphicsObjectContainer17setGraphicsObjectEP15QGraphicsObject @ 2137 NONAME ABSENT
	_ZN35QDeclarativeGraphicsObjectContainer19getStaticMetaObjectEv @ 2138 NONAME ABSENT
	_ZN35QDeclarativeGraphicsObjectContainer23setSynchronizedResizingEb @ 2139 NONAME ABSENT
	_ZN35QDeclarativeGraphicsObjectContainerC1EP16QDeclarativeItem @ 2140 NONAME ABSENT
	_ZN35QDeclarativeGraphicsObjectContainerC2EP16QDeclarativeItem @ 2141 NONAME ABSENT
	_ZN35QDeclarativeGraphicsObjectContainerD0Ev @ 2142 NONAME ABSENT
	_ZN35QDeclarativeGraphicsObjectContainerD1Ev @ 2143 NONAME ABSENT
	_ZN35QDeclarativeGraphicsObjectContainerD2Ev @ 2144 NONAME ABSENT
	_ZN36QDeclarativeDomValueValueInterceptorC1ERKS_ @ 2145 NONAME
	_ZN36QDeclarativeDomValueValueInterceptorC1Ev @ 2146 NONAME
	_ZN36QDeclarativeDomValueValueInterceptorC2ERKS_ @ 2147 NONAME
	_ZN36QDeclarativeDomValueValueInterceptorC2Ev @ 2148 NONAME
	_ZN36QDeclarativeDomValueValueInterceptorD1Ev @ 2149 NONAME
	_ZN36QDeclarativeDomValueValueInterceptorD2Ev @ 2150 NONAME
	_ZN36QDeclarativeDomValueValueInterceptoraSERKS_ @ 2151 NONAME
	_ZN36QDeclarativePropertyValueInterceptorC2Ev @ 2152 NONAME
	_ZN36QDeclarativePropertyValueInterceptorD0Ev @ 2153 NONAME
	_ZN36QDeclarativePropertyValueInterceptorD1Ev @ 2154 NONAME
	_ZN36QDeclarativePropertyValueInterceptorD2Ev @ 2155 NONAME
	_ZN38QDeclarativeDebugObjectExpressionWatch11qt_metacallEN11QMetaObject4CallEiPPv @ 2156 NONAME
	_ZN38QDeclarativeDebugObjectExpressionWatch11qt_metacastEPKc @ 2157 NONAME
	_ZN38QDeclarativeDebugObjectExpressionWatch16staticMetaObjectE @ 2158 NONAME DATA 16
	_ZN38QDeclarativeDebugObjectExpressionWatch19getStaticMetaObjectEv @ 2159 NONAME
	_ZN38QDeclarativeDebugObjectExpressionWatchC1EP7QObject @ 2160 NONAME
	_ZN38QDeclarativeDebugObjectExpressionWatchC2EP7QObject @ 2161 NONAME
	_ZN39QDeclarativeNetworkAccessManagerFactoryD0Ev @ 2162 NONAME
	_ZN39QDeclarativeNetworkAccessManagerFactoryD1Ev @ 2163 NONAME
	_ZN39QDeclarativeNetworkAccessManagerFactoryD2Ev @ 2164 NONAME
	_ZN7QPacket5clearEv @ 2165 NONAME
	_ZN7QPacketC1ERK10QByteArray @ 2166 NONAME
	_ZN7QPacketC1ERKS_ @ 2167 NONAME
	_ZN7QPacketC1Ev @ 2168 NONAME
	_ZN7QPacketC2ERK10QByteArray @ 2169 NONAME
	_ZN7QPacketC2ERKS_ @ 2170 NONAME
	_ZN7QPacketC2Ev @ 2171 NONAME
	_ZN7QPacketD0Ev @ 2172 NONAME
	_ZN7QPacketD1Ev @ 2173 NONAME
	_ZN7QPacketD2Ev @ 2174 NONAME
	_ZNK15QDeclarativePen10metaObjectEv @ 2175 NONAME
	_ZNK15QDeclarativeRow10metaObjectEv @ 2176 NONAME
	_ZNK15QPacketProtocol10metaObjectEv @ 2177 NONAME
	_ZNK15QPacketProtocol16packetsAvailableEv @ 2178 NONAME
	_ZNK15QPacketProtocol17maximumPacketSizeEv @ 2179 NONAME
	_ZNK16QDeclarativeBind10metaObjectEv @ 2180 NONAME
	_ZNK16QDeclarativeBind4whenEv @ 2181 NONAME
	_ZNK16QDeclarativeBind5valueEv @ 2182 NONAME
	_ZNK16QDeclarativeBind8propertyEv @ 2183 NONAME
	_ZNK16QDeclarativeDrag10metaObjectEv @ 2184 NONAME
	_ZNK16QDeclarativeDrag4axisEv @ 2185 NONAME
	_ZNK16QDeclarativeDrag4xmaxEv @ 2186 NONAME
	_ZNK16QDeclarativeDrag4xminEv @ 2187 NONAME
	_ZNK16QDeclarativeDrag4ymaxEv @ 2188 NONAME
	_ZNK16QDeclarativeDrag4yminEv @ 2189 NONAME
	_ZNK16QDeclarativeDrag6targetEv @ 2190 NONAME
	_ZNK16QDeclarativeFlow10metaObjectEv @ 2191 NONAME
	_ZNK16QDeclarativeFlow4flowEv @ 2192 NONAME
	_ZNK16QDeclarativeGrid10metaObjectEv @ 2193 NONAME
	_ZNK16QDeclarativeItem10metaObjectEv @ 2194 NONAME
	_ZNK16QDeclarativeItem10parentItemEv @ 2195 NONAME
	_ZNK16QDeclarativeItem10wantsFocusEv @ 2196 NONAME
	_ZNK16QDeclarativeItem10widthValidEv @ 2197 NONAME
	_ZNK16QDeclarativeItem11heightValidEv @ 2198 NONAME
	_ZNK16QDeclarativeItem11mapFromItemERK12QScriptValueff @ 2199 NONAME
	_ZNK16QDeclarativeItem12boundingRectEv @ 2200 NONAME
	_ZNK16QDeclarativeItem13implicitWidthEv @ 2201 NONAME
	_ZNK16QDeclarativeItem13keepMouseGrabEv @ 2202 NONAME
	_ZNK16QDeclarativeItem14baselineOffsetEv @ 2203 NONAME
	_ZNK16QDeclarativeItem14implicitHeightEv @ 2204 NONAME
	_ZNK16QDeclarativeItem14verticalCenterEv @ 2205 NONAME ABSENT
	_ZNK16QDeclarativeItem15transformOriginEv @ 2206 NONAME
	_ZNK16QDeclarativeItem16horizontalCenterEv @ 2207 NONAME ABSENT
	_ZNK16QDeclarativeItem16inputMethodQueryEN2Qt16InputMethodQueryE @ 2208 NONAME
	_ZNK16QDeclarativeItem19isComponentCompleteEv @ 2209 NONAME
	_ZNK16QDeclarativeItem3topEv @ 2210 NONAME ABSENT
	_ZNK16QDeclarativeItem4clipEv @ 2211 NONAME
	_ZNK16QDeclarativeItem4leftEv @ 2212 NONAME ABSENT
	_ZNK16QDeclarativeItem5rightEv @ 2213 NONAME ABSENT
	_ZNK16QDeclarativeItem5stateEv @ 2214 NONAME ABSENT
	_ZNK16QDeclarativeItem5widthEv @ 2215 NONAME
	_ZNK16QDeclarativeItem6bottomEv @ 2216 NONAME ABSENT
	_ZNK16QDeclarativeItem6heightEv @ 2217 NONAME
	_ZNK16QDeclarativeItem6smoothEv @ 2218 NONAME
	_ZNK16QDeclarativeItem8baselineEv @ 2219 NONAME ABSENT
	_ZNK16QDeclarativeItem8hasFocusEv @ 2220 NONAME
	_ZNK16QDeclarativeItem9mapToItemERK12QScriptValueff @ 2221 NONAME
	_ZNK16QDeclarativePath10attributesEv @ 2222 NONAME
	_ZNK16QDeclarativePath10metaObjectEv @ 2223 NONAME
	_ZNK16QDeclarativePath11attributeAtERK7QStringf @ 2224 NONAME
	_ZNK16QDeclarativePath16createPointCacheEv @ 2225 NONAME
	_ZNK16QDeclarativePath4pathEv @ 2226 NONAME
	_ZNK16QDeclarativePath6startXEv @ 2227 NONAME
	_ZNK16QDeclarativePath6startYEv @ 2228 NONAME
	_ZNK16QDeclarativePath7pointAtEf @ 2229 NONAME
	_ZNK16QDeclarativePath8isClosedEv @ 2230 NONAME
	_ZNK16QDeclarativeText10metaObjectEv @ 2231 NONAME
	_ZNK16QDeclarativeText10styleColorEv @ 2232 NONAME
	_ZNK16QDeclarativeText10textFormatEv @ 2233 NONAME
	_ZNK16QDeclarativeText4fontEv @ 2234 NONAME
	_ZNK16QDeclarativeText4textEv @ 2235 NONAME
	_ZNK16QDeclarativeText4wrapEv @ 2236 NONAME ABSENT
	_ZNK16QDeclarativeText5colorEv @ 2237 NONAME
	_ZNK16QDeclarativeText5styleEv @ 2238 NONAME
	_ZNK16QDeclarativeText6hAlignEv @ 2239 NONAME
	_ZNK16QDeclarativeText6vAlignEv @ 2240 NONAME
	_ZNK16QDeclarativeText9elideModeEv @ 2241 NONAME
	_ZNK16QDeclarativeType10metaObjectEv @ 2242 NONAME
	_ZNK16QDeclarativeType11isCreatableEv @ 2243 NONAME
	_ZNK16QDeclarativeType11isInterfaceEv @ 2244 NONAME
	_ZNK16QDeclarativeType11qListTypeIdEv @ 2245 NONAME
	_ZNK16QDeclarativeType11qmlTypeNameEv @ 2246 NONAME
	_ZNK16QDeclarativeType12customParserEv @ 2247 NONAME
	_ZNK16QDeclarativeType12interfaceIIdEv @ 2248 NONAME
	_ZNK16QDeclarativeType12majorVersionEv @ 2249 NONAME
	_ZNK16QDeclarativeType12minorVersionEv @ 2250 NONAME
	_ZNK16QDeclarativeType14baseMetaObjectEv @ 2251 NONAME
	_ZNK16QDeclarativeType16parserStatusCastEv @ 2252 NONAME
	_ZNK16QDeclarativeType18availableInVersionEii @ 2253 NONAME
	_ZNK16QDeclarativeType22attachedPropertiesTypeEv @ 2254 NONAME
	_ZNK16QDeclarativeType23propertyValueSourceCastEv @ 2255 NONAME
	_ZNK16QDeclarativeType26attachedPropertiesFunctionEv @ 2256 NONAME
	_ZNK16QDeclarativeType28propertyValueInterceptorCastEv @ 2257 NONAME
	_ZNK16QDeclarativeType5indexEv @ 2258 NONAME
	_ZNK16QDeclarativeType6createEPP7QObjectPPvj @ 2259 NONAME
	_ZNK16QDeclarativeType6createEv @ 2260 NONAME
	_ZNK16QDeclarativeType6typeIdEv @ 2261 NONAME
	_ZNK16QDeclarativeType8typeNameEv @ 2262 NONAME
	_ZNK16QDeclarativeView10metaObjectEv @ 2263 NONAME
	_ZNK16QDeclarativeView10resizeModeEv @ 2264 NONAME
	_ZNK16QDeclarativeView10rootObjectEv @ 2265 NONAME
	_ZNK16QDeclarativeView6errorsEv @ 2266 NONAME
	_ZNK16QDeclarativeView6sourceEv @ 2267 NONAME
	_ZNK16QDeclarativeView6statusEv @ 2268 NONAME
	_ZNK16QDeclarativeView8sizeHintEv @ 2269 NONAME
	_ZNK16QMetaEnumBuilder3keyEi @ 2270 NONAME
	_ZNK16QMetaEnumBuilder4nameEv @ 2271 NONAME
	_ZNK16QMetaEnumBuilder5valueEi @ 2272 NONAME
	_ZNK16QMetaEnumBuilder6d_funcEv @ 2273 NONAME
	_ZNK16QMetaEnumBuilder6isFlagEv @ 2274 NONAME
	_ZNK16QMetaEnumBuilder8keyCountEv @ 2275 NONAME
	_ZNK17QDeclarativeCurve10metaObjectEv @ 2276 NONAME
	_ZNK17QDeclarativeCurve1xEv @ 2277 NONAME
	_ZNK17QDeclarativeCurve1yEv @ 2278 NONAME
	_ZNK17QDeclarativeError11descriptionEv @ 2279 NONAME
	_ZNK17QDeclarativeError3urlEv @ 2280 NONAME
	_ZNK17QDeclarativeError4lineEv @ 2281 NONAME
	_ZNK17QDeclarativeError6columnEv @ 2282 NONAME
	_ZNK17QDeclarativeError7isValidEv @ 2283 NONAME
	_ZNK17QDeclarativeError8toStringEv @ 2284 NONAME
	_ZNK17QDeclarativeImage10metaObjectEv @ 2285 NONAME
	_ZNK17QDeclarativeImage12paintedWidthEv @ 2286 NONAME
	_ZNK17QDeclarativeImage13paintedHeightEv @ 2287 NONAME
	_ZNK17QDeclarativeImage6pixmapEv @ 2288 NONAME
	_ZNK17QDeclarativeImage8fillModeEv @ 2289 NONAME
	_ZNK17QDeclarativeState10metaObjectEv @ 2290 NONAME
	_ZNK17QDeclarativeState10stateGroupEv @ 2291 NONAME
	_ZNK17QDeclarativeState11isWhenKnownEv @ 2292 NONAME
	_ZNK17QDeclarativeState11operationAtEi @ 2293 NONAME
	_ZNK17QDeclarativeState14operationCountEv @ 2294 NONAME
	_ZNK17QDeclarativeState4nameEv @ 2295 NONAME
	_ZNK17QDeclarativeState4whenEv @ 2296 NONAME
	_ZNK17QDeclarativeState7extendsEv @ 2297 NONAME
	_ZNK17QDeclarativeTimer10metaObjectEv @ 2298 NONAME
	_ZNK17QDeclarativeTimer11isRepeatingEv @ 2299 NONAME
	_ZNK17QDeclarativeTimer16triggeredOnStartEv @ 2300 NONAME
	_ZNK17QDeclarativeTimer8intervalEv @ 2301 NONAME
	_ZNK17QDeclarativeTimer9isRunningEv @ 2302 NONAME
	_ZNK18QDeclarativeColumn10metaObjectEv @ 2303 NONAME
	_ZNK18QDeclarativeEngine10metaObjectEv @ 2304 NONAME
	_ZNK18QDeclarativeEngine13imageProviderERK7QString @ 2305 NONAME
	_ZNK18QDeclarativeEngine14importPathListEv @ 2306 NONAME
	_ZNK18QDeclarativeEngine18offlineStoragePathEv @ 2307 NONAME
	_ZNK18QDeclarativeEngine20networkAccessManagerEv @ 2308 NONAME
	_ZNK18QDeclarativeEngine27networkAccessManagerFactoryEv @ 2309 NONAME
	_ZNK18QDeclarativeEngine7baseUrlEv @ 2310 NONAME
	_ZNK18QDeclarativeLoader10metaObjectEv @ 2311 NONAME
	_ZNK18QDeclarativeLoader10resizeModeEv @ 2312 NONAME ABSENT
	_ZNK18QDeclarativeLoader15sourceComponentEv @ 2313 NONAME
	_ZNK18QDeclarativeLoader4itemEv @ 2314 NONAME
	_ZNK18QDeclarativeLoader6sourceEv @ 2315 NONAME
	_ZNK18QDeclarativeLoader6statusEv @ 2316 NONAME
	_ZNK18QDeclarativeLoader8progressEv @ 2317 NONAME
	_ZNK18QMetaMethodBuilder10attributesEv @ 2318 NONAME
	_ZNK18QMetaMethodBuilder10methodTypeEv @ 2319 NONAME
	_ZNK18QMetaMethodBuilder10returnTypeEv @ 2320 NONAME
	_ZNK18QMetaMethodBuilder14parameterNamesEv @ 2321 NONAME
	_ZNK18QMetaMethodBuilder3tagEv @ 2322 NONAME
	_ZNK18QMetaMethodBuilder5indexEv @ 2323 NONAME
	_ZNK18QMetaMethodBuilder6accessEv @ 2324 NONAME
	_ZNK18QMetaMethodBuilder6d_funcEv @ 2325 NONAME
	_ZNK18QMetaMethodBuilder9signatureEv @ 2326 NONAME
	_ZNK18QMetaObjectBuilder10enumeratorEi @ 2327 NONAME
	_ZNK18QMetaObjectBuilder10superClassEv @ 2328 NONAME
	_ZNK18QMetaObjectBuilder11constructorEi @ 2329 NONAME
	_ZNK18QMetaObjectBuilder11methodCountEv @ 2330 NONAME
	_ZNK18QMetaObjectBuilder12toMetaObjectEv @ 2331 NONAME
	_ZNK18QMetaObjectBuilder13classInfoNameEi @ 2332 NONAME
	_ZNK18QMetaObjectBuilder13propertyCountEv @ 2333 NONAME
	_ZNK18QMetaObjectBuilder14classInfoCountEv @ 2334 NONAME
	_ZNK18QMetaObjectBuilder14classInfoValueEi @ 2335 NONAME
	_ZNK18QMetaObjectBuilder15enumeratorCountEv @ 2336 NONAME
	_ZNK18QMetaObjectBuilder16constructorCountEv @ 2337 NONAME
	_ZNK18QMetaObjectBuilder17relatedMetaObjectEi @ 2338 NONAME
	_ZNK18QMetaObjectBuilder17toRelocatableDataEPb @ 2339 NONAME
	_ZNK18QMetaObjectBuilder22relatedMetaObjectCountEv @ 2340 NONAME
	_ZNK18QMetaObjectBuilder22staticMetacallFunctionEv @ 2341 NONAME
	_ZNK18QMetaObjectBuilder5flagsEv @ 2342 NONAME
	_ZNK18QMetaObjectBuilder6methodEi @ 2343 NONAME
	_ZNK18QMetaObjectBuilder8propertyEi @ 2344 NONAME
	_ZNK18QMetaObjectBuilder9classNameEv @ 2345 NONAME
	_ZNK18QMetaObjectBuilder9serializeER11QDataStream @ 2346 NONAME
	_ZNK19QDeclarativeAnchors10leftMarginEv @ 2347 NONAME
	_ZNK19QDeclarativeAnchors10metaObjectEv @ 2348 NONAME
	_ZNK19QDeclarativeAnchors11rightMarginEv @ 2349 NONAME
	_ZNK19QDeclarativeAnchors11usedAnchorsEv @ 2350 NONAME
	_ZNK19QDeclarativeAnchors12bottomMarginEv @ 2351 NONAME
	_ZNK19QDeclarativeAnchors14baselineOffsetEv @ 2352 NONAME
	_ZNK19QDeclarativeAnchors14verticalCenterEv @ 2353 NONAME
	_ZNK19QDeclarativeAnchors16horizontalCenterEv @ 2354 NONAME
	_ZNK19QDeclarativeAnchors20verticalCenterOffsetEv @ 2355 NONAME
	_ZNK19QDeclarativeAnchors22horizontalCenterOffsetEv @ 2356 NONAME
	_ZNK19QDeclarativeAnchors3topEv @ 2357 NONAME
	_ZNK19QDeclarativeAnchors4fillEv @ 2358 NONAME
	_ZNK19QDeclarativeAnchors4leftEv @ 2359 NONAME
	_ZNK19QDeclarativeAnchors5rightEv @ 2360 NONAME
	_ZNK19QDeclarativeAnchors6bottomEv @ 2361 NONAME
	_ZNK19QDeclarativeAnchors7marginsEv @ 2362 NONAME
	_ZNK19QDeclarativeAnchors8baselineEv @ 2363 NONAME
	_ZNK19QDeclarativeAnchors8centerInEv @ 2364 NONAME
	_ZNK19QDeclarativeAnchors9topMarginEv @ 2365 NONAME
	_ZNK19QDeclarativeBinding10expressionEv @ 2366 NONAME
	_ZNK19QDeclarativeBinding10metaObjectEv @ 2367 NONAME
	_ZNK19QDeclarativeBinding7enabledEv @ 2368 NONAME
	_ZNK19QDeclarativeBinding8propertyEv @ 2369 NONAME
	_ZNK19QDeclarativeContext10metaObjectEv @ 2370 NONAME
	_ZNK19QDeclarativeContext13contextObjectEv @ 2371 NONAME
	_ZNK19QDeclarativeContext13parentContextEv @ 2372 NONAME
	_ZNK19QDeclarativeContext15contextPropertyERK7QString @ 2373 NONAME
	_ZNK19QDeclarativeContext6engineEv @ 2374 NONAME
	_ZNK19QDeclarativeContext7baseUrlEv @ 2375 NONAME
	_ZNK19QDeclarativeDomList14commaPositionsEv @ 2376 NONAME
	_ZNK19QDeclarativeDomList6lengthEv @ 2377 NONAME
	_ZNK19QDeclarativeDomList6valuesEv @ 2378 NONAME
	_ZNK19QDeclarativeDomList8positionEv @ 2379 NONAME
	_ZNK19QListModelInterface10metaObjectEv @ 2380 NONAME
	_ZNK20QDeclarativeBehavior10metaObjectEv @ 2381 NONAME
	_ZNK20QDeclarativeBehavior7enabledEv @ 2382 NONAME
	_ZNK20QDeclarativeCompiler12evaluateEnumERK10QByteArray @ 2383 NONAME
	_ZNK20QDeclarativeCompiler6errorsEv @ 2384 NONAME
	_ZNK20QDeclarativeCompiler7isErrorEv @ 2385 NONAME
	_ZNK20QDeclarativeDomValue13isValueSourceEv @ 2386 NONAME
	_ZNK20QDeclarativeDomValue13toValueSourceEv @ 2387 NONAME
	_ZNK20QDeclarativeDomValue18isValueInterceptorEv @ 2388 NONAME
	_ZNK20QDeclarativeDomValue18toValueInterceptorEv @ 2389 NONAME
	_ZNK20QDeclarativeDomValue4typeEv @ 2390 NONAME
	_ZNK20QDeclarativeDomValue6isListEv @ 2391 NONAME
	_ZNK20QDeclarativeDomValue6lengthEv @ 2392 NONAME
	_ZNK20QDeclarativeDomValue6toListEv @ 2393 NONAME
	_ZNK20QDeclarativeDomValue8isObjectEv @ 2394 NONAME
	_ZNK20QDeclarativeDomValue8positionEv @ 2395 NONAME
	_ZNK20QDeclarativeDomValue8toObjectEv @ 2396 NONAME
	_ZNK20QDeclarativeDomValue9isBindingEv @ 2397 NONAME
	_ZNK20QDeclarativeDomValue9isInvalidEv @ 2398 NONAME
	_ZNK20QDeclarativeDomValue9isLiteralEv @ 2399 NONAME
	_ZNK20QDeclarativeDomValue9toBindingEv @ 2400 NONAME
	_ZNK20QDeclarativeDomValue9toLiteralEv @ 2401 NONAME
	_ZNK20QDeclarativeFlipable10metaObjectEv @ 2402 NONAME
	_ZNK20QDeclarativeFlipable4sideEv @ 2403 NONAME
	_ZNK20QDeclarativeGradient10metaObjectEv @ 2404 NONAME
	_ZNK20QDeclarativeGradient8gradientEv @ 2405 NONAME
	_ZNK20QDeclarativeGridView10cellHeightEv @ 2406 NONAME
	_ZNK20QDeclarativeGridView10maxXExtentEv @ 2407 NONAME
	_ZNK20QDeclarativeGridView10maxYExtentEv @ 2408 NONAME
	_ZNK20QDeclarativeGridView10metaObjectEv @ 2409 NONAME
	_ZNK20QDeclarativeGridView10minXExtentEv @ 2410 NONAME
	_ZNK20QDeclarativeGridView10minYExtentEv @ 2411 NONAME
	_ZNK20QDeclarativeGridView11cacheBufferEv @ 2412 NONAME
	_ZNK20QDeclarativeGridView12currentIndexEv @ 2413 NONAME
	_ZNK20QDeclarativeGridView13isWrapEnabledEv @ 2414 NONAME
	_ZNK20QDeclarativeGridView18highlightRangeModeEv @ 2415 NONAME
	_ZNK20QDeclarativeGridView21preferredHighlightEndEv @ 2416 NONAME
	_ZNK20QDeclarativeGridView23preferredHighlightBeginEv @ 2417 NONAME
	_ZNK20QDeclarativeGridView27highlightFollowsCurrentItemEv @ 2418 NONAME
	_ZNK20QDeclarativeGridView4flowEv @ 2419 NONAME
	_ZNK20QDeclarativeGridView5countEv @ 2420 NONAME
	_ZNK20QDeclarativeGridView5modelEv @ 2421 NONAME
	_ZNK20QDeclarativeGridView7indexAtEii @ 2422 NONAME
	_ZNK20QDeclarativeGridView8delegateEv @ 2423 NONAME
	_ZNK20QDeclarativeGridView8snapModeEv @ 2424 NONAME
	_ZNK20QDeclarativeGridView9cellWidthEv @ 2425 NONAME
	_ZNK20QDeclarativeGridView9highlightEv @ 2426 NONAME
	_ZNK20QDeclarativeListView10maxXExtentEv @ 2427 NONAME
	_ZNK20QDeclarativeListView10maxYExtentEv @ 2428 NONAME
	_ZNK20QDeclarativeListView10metaObjectEv @ 2429 NONAME
	_ZNK20QDeclarativeListView10minXExtentEv @ 2430 NONAME
	_ZNK20QDeclarativeListView10minYExtentEv @ 2431 NONAME
	_ZNK20QDeclarativeListView11cacheBufferEv @ 2432 NONAME
	_ZNK20QDeclarativeListView11orientationEv @ 2433 NONAME
	_ZNK20QDeclarativeListView12currentIndexEv @ 2434 NONAME
	_ZNK20QDeclarativeListView13isWrapEnabledEv @ 2435 NONAME
	_ZNK20QDeclarativeListView14currentSectionEv @ 2436 NONAME
	_ZNK20QDeclarativeListView18highlightMoveSpeedEv @ 2437 NONAME
	_ZNK20QDeclarativeListView18highlightRangeModeEv @ 2438 NONAME
	_ZNK20QDeclarativeListView20highlightResizeSpeedEv @ 2439 NONAME
	_ZNK20QDeclarativeListView21preferredHighlightEndEv @ 2440 NONAME
	_ZNK20QDeclarativeListView23preferredHighlightBeginEv @ 2441 NONAME
	_ZNK20QDeclarativeListView27highlightFollowsCurrentItemEv @ 2442 NONAME
	_ZNK20QDeclarativeListView5countEv @ 2443 NONAME
	_ZNK20QDeclarativeListView5modelEv @ 2444 NONAME
	_ZNK20QDeclarativeListView6footerEv @ 2445 NONAME
	_ZNK20QDeclarativeListView6headerEv @ 2446 NONAME
	_ZNK20QDeclarativeListView7indexAtEii @ 2447 NONAME
	_ZNK20QDeclarativeListView7spacingEv @ 2448 NONAME
	_ZNK20QDeclarativeListView8delegateEv @ 2449 NONAME
	_ZNK20QDeclarativeListView8snapModeEv @ 2450 NONAME
	_ZNK20QDeclarativeListView9highlightEv @ 2451 NONAME
	_ZNK20QDeclarativePathLine10metaObjectEv @ 2452 NONAME
	_ZNK20QDeclarativePathQuad10metaObjectEv @ 2453 NONAME
	_ZNK20QDeclarativePathQuad8controlXEv @ 2454 NONAME
	_ZNK20QDeclarativePathQuad8controlYEv @ 2455 NONAME
	_ZNK20QDeclarativePathView10dragMarginEv @ 2456 NONAME
	_ZNK20QDeclarativePathView10metaObjectEv @ 2457 NONAME
	_ZNK20QDeclarativePathView12currentIndexEv @ 2458 NONAME
	_ZNK20QDeclarativePathView13isInteractiveEv @ 2459 NONAME
	_ZNK20QDeclarativePathView13pathItemCountEv @ 2460 NONAME
	_ZNK20QDeclarativePathView17flickDecelerationEv @ 2461 NONAME
	_ZNK20QDeclarativePathView18highlightRangeModeEv @ 2462 NONAME
	_ZNK20QDeclarativePathView21preferredHighlightEndEv @ 2463 NONAME
	_ZNK20QDeclarativePathView23preferredHighlightBeginEv @ 2464 NONAME
	_ZNK20QDeclarativePathView4pathEv @ 2465 NONAME
	_ZNK20QDeclarativePathView5countEv @ 2466 NONAME
	_ZNK20QDeclarativePathView5modelEv @ 2467 NONAME
	_ZNK20QDeclarativePathView6offsetEv @ 2468 NONAME
	_ZNK20QDeclarativePathView8delegateEv @ 2469 NONAME
	_ZNK20QDeclarativePathView9highlightEv @ 2470 NONAME
	_ZNK20QDeclarativeProperty10isPropertyEv @ 2471 NONAME
	_ZNK20QDeclarativeProperty10isWritableEv @ 2472 NONAME
	_ZNK20QDeclarativeProperty12isDesignableEv @ 2473 NONAME
	_ZNK20QDeclarativeProperty12isResettableEv @ 2474 NONAME
	_ZNK20QDeclarativeProperty12propertyTypeEv @ 2475 NONAME
	_ZNK20QDeclarativeProperty15hasNotifySignalEv @ 2476 NONAME
	_ZNK20QDeclarativeProperty16isSignalPropertyEv @ 2477 NONAME
	_ZNK20QDeclarativeProperty16propertyTypeNameEv @ 2478 NONAME
	_ZNK20QDeclarativeProperty17needsNotifySignalEv @ 2479 NONAME
	_ZNK20QDeclarativeProperty19connectNotifySignalEP7QObjectPKc @ 2480 NONAME
	_ZNK20QDeclarativeProperty19connectNotifySignalEP7QObjecti @ 2481 NONAME
	_ZNK20QDeclarativeProperty20propertyTypeCategoryEv @ 2482 NONAME
	_ZNK20QDeclarativeProperty4nameEv @ 2483 NONAME
	_ZNK20QDeclarativeProperty4readEv @ 2484 NONAME
	_ZNK20QDeclarativeProperty4typeEv @ 2485 NONAME
	_ZNK20QDeclarativeProperty5indexEv @ 2486 NONAME
	_ZNK20QDeclarativeProperty5resetEv @ 2487 NONAME
	_ZNK20QDeclarativeProperty5writeERK8QVariant @ 2488 NONAME
	_ZNK20QDeclarativeProperty6methodEv @ 2489 NONAME
	_ZNK20QDeclarativeProperty6objectEv @ 2490 NONAME
	_ZNK20QDeclarativeProperty7isValidEv @ 2491 NONAME
	_ZNK20QDeclarativeProperty8propertyEv @ 2492 NONAME
	_ZNK20QDeclarativePropertyeqERKS_ @ 2493 NONAME
	_ZNK20QDeclarativeRepeater10metaObjectEv @ 2494 NONAME
	_ZNK20QDeclarativeRepeater5countEv @ 2495 NONAME
	_ZNK20QDeclarativeRepeater5modelEv @ 2496 NONAME
	_ZNK20QDeclarativeRepeater8delegateEv @ 2497 NONAME
	_ZNK20QDeclarativeTextEdit10cursorRectEv @ 2498 NONAME ABSENT
	_ZNK20QDeclarativeTextEdit10isReadOnlyEv @ 2499 NONAME
	_ZNK20QDeclarativeTextEdit10metaObjectEv @ 2500 NONAME
	_ZNK20QDeclarativeTextEdit10textFormatEv @ 2501 NONAME
	_ZNK20QDeclarativeTextEdit10textMarginEv @ 2502 NONAME
	_ZNK20QDeclarativeTextEdit12focusOnPressEv @ 2503 NONAME
	_ZNK20QDeclarativeTextEdit12selectedTextEv @ 2504 NONAME
	_ZNK20QDeclarativeTextEdit12selectionEndEv @ 2505 NONAME
	_ZNK20QDeclarativeTextEdit14cursorDelegateEv @ 2506 NONAME
	_ZNK20QDeclarativeTextEdit14cursorPositionEv @ 2507 NONAME
	_ZNK20QDeclarativeTextEdit14selectionColorEv @ 2508 NONAME
	_ZNK20QDeclarativeTextEdit14selectionStartEv @ 2509 NONAME
	_ZNK20QDeclarativeTextEdit15isCursorVisibleEv @ 2510 NONAME
	_ZNK20QDeclarativeTextEdit16inputMethodQueryEN2Qt16InputMethodQueryE @ 2511 NONAME
	_ZNK20QDeclarativeTextEdit17selectedTextColorEv @ 2512 NONAME
	_ZNK20QDeclarativeTextEdit19persistentSelectionEv @ 2513 NONAME
	_ZNK20QDeclarativeTextEdit20textInteractionFlagsEv @ 2514 NONAME
	_ZNK20QDeclarativeTextEdit4fontEv @ 2515 NONAME
	_ZNK20QDeclarativeTextEdit4textEv @ 2516 NONAME
	_ZNK20QDeclarativeTextEdit4wrapEv @ 2517 NONAME ABSENT
	_ZNK20QDeclarativeTextEdit5colorEv @ 2518 NONAME
	_ZNK20QDeclarativeTextEdit6hAlignEv @ 2519 NONAME
	_ZNK20QDeclarativeTextEdit6vAlignEv @ 2520 NONAME
	_ZNK20QMetaPropertyBuilder10isEditableEv @ 2521 NONAME
	_ZNK20QMetaPropertyBuilder10isReadableEv @ 2522 NONAME
	_ZNK20QMetaPropertyBuilder10isWritableEv @ 2523 NONAME
	_ZNK20QMetaPropertyBuilder12hasStdCppSetEv @ 2524 NONAME
	_ZNK20QMetaPropertyBuilder12isDesignableEv @ 2525 NONAME
	_ZNK20QMetaPropertyBuilder12isEnumOrFlagEv @ 2526 NONAME
	_ZNK20QMetaPropertyBuilder12isResettableEv @ 2527 NONAME
	_ZNK20QMetaPropertyBuilder12isScriptableEv @ 2528 NONAME
	_ZNK20QMetaPropertyBuilder12notifySignalEv @ 2529 NONAME
	_ZNK20QMetaPropertyBuilder15hasNotifySignalEv @ 2530 NONAME
	_ZNK20QMetaPropertyBuilder4nameEv @ 2531 NONAME
	_ZNK20QMetaPropertyBuilder4typeEv @ 2532 NONAME
	_ZNK20QMetaPropertyBuilder6d_funcEv @ 2533 NONAME
	_ZNK20QMetaPropertyBuilder6isUserEv @ 2534 NONAME
	_ZNK20QMetaPropertyBuilder8isStoredEv @ 2535 NONAME
	_ZNK20QMetaPropertyBuilder9isDynamicEv @ 2536 NONAME
	_ZNK21QDeclarativeComponent10metaObjectEv @ 2537 NONAME
	_ZNK21QDeclarativeComponent12errorsStringEv @ 2538 NONAME ABSENT
	_ZNK21QDeclarativeComponent15creationContextEv @ 2539 NONAME
	_ZNK21QDeclarativeComponent3urlEv @ 2540 NONAME
	_ZNK21QDeclarativeComponent6errorsEv @ 2541 NONAME
	_ZNK21QDeclarativeComponent6isNullEv @ 2542 NONAME
	_ZNK21QDeclarativeComponent6statusEv @ 2543 NONAME
	_ZNK21QDeclarativeComponent7isErrorEv @ 2544 NONAME
	_ZNK21QDeclarativeComponent7isReadyEv @ 2545 NONAME
	_ZNK21QDeclarativeComponent8progressEv @ 2546 NONAME
	_ZNK21QDeclarativeComponent9isLoadingEv @ 2547 NONAME
	_ZNK21QDeclarativeDomImport3uriEv @ 2548 NONAME
	_ZNK21QDeclarativeDomImport4typeEv @ 2549 NONAME
	_ZNK21QDeclarativeDomImport7versionEv @ 2550 NONAME
	_ZNK21QDeclarativeDomImport9qualifierEv @ 2551 NONAME
	_ZNK21QDeclarativeDomObject10objectTypeEv @ 2552 NONAME
	_ZNK21QDeclarativeDomObject10propertiesEv @ 2553 NONAME
	_ZNK21QDeclarativeDomObject11isComponentEv @ 2554 NONAME
	_ZNK21QDeclarativeDomObject11toComponentEv @ 2555 NONAME
	_ZNK21QDeclarativeDomObject12isCustomTypeEv @ 2556 NONAME
	_ZNK21QDeclarativeDomObject14customTypeDataEv @ 2557 NONAME
	_ZNK21QDeclarativeDomObject15dynamicPropertyERK10QByteArray @ 2558 NONAME
	_ZNK21QDeclarativeDomObject15objectClassNameEv @ 2559 NONAME
	_ZNK21QDeclarativeDomObject17dynamicPropertiesEv @ 2560 NONAME
	_ZNK21QDeclarativeDomObject22objectTypeMajorVersionEv @ 2561 NONAME
	_ZNK21QDeclarativeDomObject22objectTypeMinorVersionEv @ 2562 NONAME
	_ZNK21QDeclarativeDomObject3urlEv @ 2563 NONAME
	_ZNK21QDeclarativeDomObject6lengthEv @ 2564 NONAME
	_ZNK21QDeclarativeDomObject7isValidEv @ 2565 NONAME
	_ZNK21QDeclarativeDomObject8objectIdEv @ 2566 NONAME
	_ZNK21QDeclarativeDomObject8positionEv @ 2567 NONAME
	_ZNK21QDeclarativeDomObject8propertyERK10QByteArray @ 2568 NONAME
	_ZNK21QDeclarativeFlickable10isFlickingEv @ 2569 NONAME
	_ZNK21QDeclarativeFlickable10maxXExtentEv @ 2570 NONAME
	_ZNK21QDeclarativeFlickable10maxYExtentEv @ 2571 NONAME
	_ZNK21QDeclarativeFlickable10metaObjectEv @ 2572 NONAME
	_ZNK21QDeclarativeFlickable10minXExtentEv @ 2573 NONAME
	_ZNK21QDeclarativeFlickable10minYExtentEv @ 2574 NONAME
	_ZNK21QDeclarativeFlickable10pressDelayEv @ 2575 NONAME
	_ZNK21QDeclarativeFlickable12contentWidthEv @ 2576 NONAME
	_ZNK21QDeclarativeFlickable13contentHeightEv @ 2577 NONAME
	_ZNK21QDeclarativeFlickable13isInteractiveEv @ 2578 NONAME
	_ZNK21QDeclarativeFlickable14flickDirectionEv @ 2579 NONAME
	_ZNK21QDeclarativeFlickable14isAtXBeginningEv @ 2580 NONAME
	_ZNK21QDeclarativeFlickable14isAtYBeginningEv @ 2581 NONAME
	_ZNK21QDeclarativeFlickable16verticalVelocityEv @ 2582 NONAME
	_ZNK21QDeclarativeFlickable17flickDecelerationEv @ 2583 NONAME
	_ZNK21QDeclarativeFlickable18horizontalVelocityEv @ 2584 NONAME
	_ZNK21QDeclarativeFlickable20maximumFlickVelocityEv @ 2585 NONAME
	_ZNK21QDeclarativeFlickable6vWidthEv @ 2586 NONAME
	_ZNK21QDeclarativeFlickable6xflickEv @ 2587 NONAME
	_ZNK21QDeclarativeFlickable6yflickEv @ 2588 NONAME
	_ZNK21QDeclarativeFlickable7vHeightEv @ 2589 NONAME
	_ZNK21QDeclarativeFlickable8contentXEv @ 2590 NONAME
	_ZNK21QDeclarativeFlickable8contentYEv @ 2591 NONAME
	_ZNK21QDeclarativeFlickable8isAtXEndEv @ 2592 NONAME
	_ZNK21QDeclarativeFlickable8isAtYEndEv @ 2593 NONAME
	_ZNK21QDeclarativeFlickable8isMovingEv @ 2594 NONAME
	_ZNK21QDeclarativeFlickable9overShootEv @ 2595 NONAME ABSENT
	_ZNK21QDeclarativeImageBase10metaObjectEv @ 2596 NONAME
	_ZNK21QDeclarativeImageBase10sourceSizeEv @ 2597 NONAME
	_ZNK21QDeclarativeImageBase12asynchronousEv @ 2598 NONAME
	_ZNK21QDeclarativeImageBase6sourceEv @ 2599 NONAME
	_ZNK21QDeclarativeImageBase6statusEv @ 2600 NONAME
	_ZNK21QDeclarativeImageBase8progressEv @ 2601 NONAME
	_ZNK21QDeclarativeListModel10metaObjectEv @ 2602 NONAME
	_ZNK21QDeclarativeListModel3getEi @ 2603 NONAME
	_ZNK21QDeclarativeListModel4dataEiRK5QListIiE @ 2604 NONAME
	_ZNK21QDeclarativeListModel4dataEii @ 2605 NONAME
	_ZNK21QDeclarativeListModel5countEv @ 2606 NONAME
	_ZNK21QDeclarativeListModel5rolesEv @ 2607 NONAME
	_ZNK21QDeclarativeListModel8toStringEi @ 2608 NONAME
	_ZNK21QDeclarativeMouseArea10metaObjectEv @ 2609 NONAME
	_ZNK21QDeclarativeMouseArea14pressedButtonsEv @ 2610 NONAME
	_ZNK21QDeclarativeMouseArea15acceptedButtonsEv @ 2611 NONAME
	_ZNK21QDeclarativeMouseArea6mouseXEv @ 2612 NONAME
	_ZNK21QDeclarativeMouseArea6mouseYEv @ 2613 NONAME
	_ZNK21QDeclarativeMouseArea7hoveredEv @ 2614 NONAME
	_ZNK21QDeclarativeMouseArea7pressedEv @ 2615 NONAME
	_ZNK21QDeclarativeMouseArea9isEnabledEv @ 2616 NONAME
	_ZNK21QDeclarativePathCubic10metaObjectEv @ 2617 NONAME
	_ZNK21QDeclarativePathCubic9control1XEv @ 2618 NONAME
	_ZNK21QDeclarativePathCubic9control1YEv @ 2619 NONAME
	_ZNK21QDeclarativePathCubic9control2XEv @ 2620 NONAME
	_ZNK21QDeclarativePathCubic9control2YEv @ 2621 NONAME
	_ZNK21QDeclarativeRectangle10metaObjectEv @ 2622 NONAME
	_ZNK21QDeclarativeRectangle12boundingRectEv @ 2623 NONAME
	_ZNK21QDeclarativeRectangle5colorEv @ 2624 NONAME
	_ZNK21QDeclarativeRectangle6radiusEv @ 2625 NONAME
	_ZNK21QDeclarativeRectangle8gradientEv @ 2626 NONAME
	_ZNK21QDeclarativeScaleGrid10metaObjectEv @ 2627 NONAME
	_ZNK21QDeclarativeScaleGrid6isNullEv @ 2628 NONAME
	_ZNK21QDeclarativeTextInput10cursorRectEv @ 2629 NONAME ABSENT
	_ZNK21QDeclarativeTextInput10isReadOnlyEv @ 2630 NONAME
	_ZNK21QDeclarativeTextInput10metaObjectEv @ 2631 NONAME
	_ZNK21QDeclarativeTextInput12focusOnPressEv @ 2632 NONAME
	_ZNK21QDeclarativeTextInput12selectedTextEv @ 2633 NONAME
	_ZNK21QDeclarativeTextInput12selectionEndEv @ 2634 NONAME
	_ZNK21QDeclarativeTextInput14cursorDelegateEv @ 2635 NONAME
	_ZNK21QDeclarativeTextInput14cursorPositionEv @ 2636 NONAME
	_ZNK21QDeclarativeTextInput14selectionColorEv @ 2637 NONAME
	_ZNK21QDeclarativeTextInput14selectionStartEv @ 2638 NONAME
	_ZNK21QDeclarativeTextInput15isCursorVisibleEv @ 2639 NONAME
	_ZNK21QDeclarativeTextInput16inputMethodQueryEN2Qt16InputMethodQueryE @ 2640 NONAME
	_ZNK21QDeclarativeTextInput17selectedTextColorEv @ 2641 NONAME
	_ZNK21QDeclarativeTextInput18hasAcceptableInputEv @ 2642 NONAME
	_ZNK21QDeclarativeTextInput4fontEv @ 2643 NONAME
	_ZNK21QDeclarativeTextInput4textEv @ 2644 NONAME
	_ZNK21QDeclarativeTextInput5colorEv @ 2645 NONAME
	_ZNK21QDeclarativeTextInput6hAlignEv @ 2646 NONAME
	_ZNK21QDeclarativeTextInput8echoModeEv @ 2647 NONAME
	_ZNK21QDeclarativeTextInput9inputMaskEv @ 2648 NONAME
	_ZNK21QDeclarativeTextInput9maxLengthEv @ 2649 NONAME
	_ZNK21QDeclarativeTextInput9validatorEv @ 2650 NONAME
	_ZNK21QDeclarativeTranslate10metaObjectEv @ 2651 NONAME
	_ZNK21QDeclarativeTranslate1xEv @ 2652 NONAME
	_ZNK21QDeclarativeTranslate1yEv @ 2653 NONAME
	_ZNK21QDeclarativeTranslate7applyToEP10QMatrix4x4 @ 2654 NONAME
	_ZNK21QDeclarativeValueType10metaObjectEv @ 2655 NONAME
	_ZNK22QDeclarativeDebugQuery10metaObjectEv @ 2656 NONAME
	_ZNK22QDeclarativeDebugQuery5stateEv @ 2657 NONAME
	_ZNK22QDeclarativeDebugQuery9isWaitingEv @ 2658 NONAME
	_ZNK22QDeclarativeDebugWatch10metaObjectEv @ 2659 NONAME
	_ZNK22QDeclarativeDebugWatch13objectDebugIdEv @ 2660 NONAME
	_ZNK22QDeclarativeDebugWatch5stateEv @ 2661 NONAME
	_ZNK22QDeclarativeDebugWatch7queryIdEv @ 2662 NONAME
	_ZNK22QDeclarativeExpression10expressionEv @ 2663 NONAME
	_ZNK22QDeclarativeExpression10lineNumberEv @ 2664 NONAME
	_ZNK22QDeclarativeExpression10metaObjectEv @ 2665 NONAME
	_ZNK22QDeclarativeExpression10sourceFileEv @ 2666 NONAME
	_ZNK22QDeclarativeExpression11scopeObjectEv @ 2667 NONAME
	_ZNK22QDeclarativeExpression20notifyOnValueChangedEv @ 2668 NONAME
	_ZNK22QDeclarativeExpression5errorEv @ 2669 NONAME
	_ZNK22QDeclarativeExpression6engineEv @ 2670 NONAME
	_ZNK22QDeclarativeExpression7contextEv @ 2671 NONAME
	_ZNK22QDeclarativeExpression8hasErrorEv @ 2672 NONAME
	_ZNK22QDeclarativeFocusPanel10metaObjectEv @ 2673 NONAME
	_ZNK22QDeclarativeFocusScope10metaObjectEv @ 2674 NONAME
	_ZNK22QDeclarativeFontLoader10metaObjectEv @ 2675 NONAME
	_ZNK22QDeclarativeFontLoader4nameEv @ 2676 NONAME
	_ZNK22QDeclarativeFontLoader6sourceEv @ 2677 NONAME
	_ZNK22QDeclarativeFontLoader6statusEv @ 2678 NONAME
	_ZNK22QDeclarativeStateGroup10metaObjectEv @ 2679 NONAME
	_ZNK22QDeclarativeStateGroup5stateEv @ 2680 NONAME
	_ZNK22QDeclarativeStateGroup6statesEv @ 2681 NONAME
	_ZNK22QDeclarativeStateGroup9findStateERK7QString @ 2682 NONAME
	_ZNK22QDeclarativeTransition10metaObjectEv @ 2683 NONAME
	_ZNK22QDeclarativeTransition10reversibleEv @ 2684 NONAME
	_ZNK22QDeclarativeTransition7toStateEv @ 2685 NONAME
	_ZNK22QDeclarativeTransition9fromStateEv @ 2686 NONAME
	_ZNK23QDeclarativeBorderImage10metaObjectEv @ 2687 NONAME
	_ZNK23QDeclarativeBorderImage16verticalTileModeEv @ 2688 NONAME
	_ZNK23QDeclarativeBorderImage18horizontalTileModeEv @ 2689 NONAME
	_ZNK23QDeclarativeConnections10metaObjectEv @ 2690 NONAME
	_ZNK23QDeclarativeConnections6targetEv @ 2691 NONAME
	_ZNK23QDeclarativeDebugClient10metaObjectEv @ 2692 NONAME
	_ZNK23QDeclarativeDebugClient11isConnectedEv @ 2693 NONAME
	_ZNK23QDeclarativeDebugClient4nameEv @ 2694 NONAME
	_ZNK23QDeclarativeDebugClient9isEnabledEv @ 2695 NONAME
	_ZNK23QDeclarativeDomDocument10rootObjectEv @ 2696 NONAME
	_ZNK23QDeclarativeDomDocument6errorsEv @ 2697 NONAME
	_ZNK23QDeclarativeDomDocument7importsEv @ 2698 NONAME
	_ZNK23QDeclarativeDomProperty12propertyNameEv @ 2699 NONAME
	_ZNK23QDeclarativeDomProperty17isDefaultPropertyEv @ 2700 NONAME
	_ZNK23QDeclarativeDomProperty17propertyNamePartsEv @ 2701 NONAME
	_ZNK23QDeclarativeDomProperty5valueEv @ 2702 NONAME
	_ZNK23QDeclarativeDomProperty6lengthEv @ 2703 NONAME
	_ZNK23QDeclarativeDomProperty7isValidEv @ 2704 NONAME
	_ZNK23QDeclarativeDomProperty8positionEv @ 2705 NONAME
	_ZNK23QDeclarativeEngineDebug10metaObjectEv @ 2706 NONAME
	_ZNK23QDeclarativeItemPrivate22computeTransformOriginEv @ 2707 NONAME
	_ZNK23QDeclarativeItemPrivate5widthEv @ 2708 NONAME
	_ZNK23QDeclarativeItemPrivate6heightEv @ 2709 NONAME
	_ZNK23QDeclarativePaintedItem10metaObjectEv @ 2710 NONAME
	_ZNK23QDeclarativePaintedItem11smoothCacheEv @ 2711 NONAME
	_ZNK23QDeclarativePaintedItem12contentsSizeEv @ 2712 NONAME
	_ZNK23QDeclarativePaintedItem13contentsScaleEv @ 2713 NONAME
	_ZNK23QDeclarativePaintedItem14pixelCacheSizeEv @ 2714 NONAME
	_ZNK23QDeclarativePaintedItem9fillColorEv @ 2715 NONAME
	_ZNK23QDeclarativePathElement10metaObjectEv @ 2716 NONAME
	_ZNK23QDeclarativePathPercent10metaObjectEv @ 2717 NONAME
	_ZNK23QDeclarativePathPercent5valueEv @ 2718 NONAME
	_ZNK23QDeclarativePixmapReply10metaObjectEv @ 2719 NONAME
	_ZNK23QDeclarativePixmapReply11forcedWidthEv @ 2720 NONAME
	_ZNK23QDeclarativePixmapReply12forcedHeightEv @ 2721 NONAME
	_ZNK23QDeclarativePixmapReply12implicitSizeEv @ 2722 NONAME
	_ZNK23QDeclarativePixmapReply3urlEv @ 2723 NONAME
	_ZNK23QDeclarativePixmapReply6statusEv @ 2724 NONAME
	_ZNK23QDeclarativePixmapReply9isLoadingEv @ 2725 NONAME
	_ZNK23QDeclarativePropertyMap10metaObjectEv @ 2726 NONAME
	_ZNK23QDeclarativePropertyMap4keysEv @ 2727 NONAME
	_ZNK23QDeclarativePropertyMap4sizeEv @ 2728 NONAME
	_ZNK23QDeclarativePropertyMap5countEv @ 2729 NONAME
	_ZNK23QDeclarativePropertyMap5valueERK7QString @ 2730 NONAME
	_ZNK23QDeclarativePropertyMap7isEmptyEv @ 2731 NONAME
	_ZNK23QDeclarativePropertyMap8containsERK7QString @ 2732 NONAME
	_ZNK23QDeclarativePropertyMapixERK7QString @ 2733 NONAME
	_ZNK23QDeclarativeViewSection10metaObjectEv @ 2734 NONAME
	_ZNK23QDeclarativeVisualModel10metaObjectEv @ 2735 NONAME
	_ZNK24QDeclarativeCustomParser12evaluateEnumERK10QByteArray @ 2736 NONAME
	_ZNK24QDeclarativeDebugService10metaObjectEv @ 2737 NONAME
	_ZNK24QDeclarativeDebugService4nameEv @ 2738 NONAME
	_ZNK24QDeclarativeDebugService9isEnabledEv @ 2739 NONAME
	_ZNK24QDeclarativeDomComponent13componentRootEv @ 2740 NONAME
	_ZNK24QDeclarativeGradientStop10metaObjectEv @ 2741 NONAME
	_ZNK24QDeclarativeListAccessor2atEi @ 2742 NONAME
	_ZNK24QDeclarativeListAccessor4listEv @ 2743 NONAME
	_ZNK24QDeclarativeListAccessor5countEv @ 2744 NONAME
	_ZNK24QDeclarativeListAccessor7isValidEv @ 2745 NONAME
	_ZNK24QDeclarativeParentChange10metaObjectEv @ 2746 NONAME
	_ZNK24QDeclarativeParentChange10scaleIsSetEv @ 2747 NONAME
	_ZNK24QDeclarativeParentChange10widthIsSetEv @ 2748 NONAME
	_ZNK24QDeclarativeParentChange11heightIsSetEv @ 2749 NONAME
	_ZNK24QDeclarativeParentChange13rotationIsSetEv @ 2750 NONAME
	_ZNK24QDeclarativeParentChange14originalParentEv @ 2751 NONAME
	_ZNK24QDeclarativeParentChange1xEv @ 2752 NONAME
	_ZNK24QDeclarativeParentChange1yEv @ 2753 NONAME
	_ZNK24QDeclarativeParentChange5scaleEv @ 2754 NONAME
	_ZNK24QDeclarativeParentChange5widthEv @ 2755 NONAME
	_ZNK24QDeclarativeParentChange6heightEv @ 2756 NONAME
	_ZNK24QDeclarativeParentChange6objectEv @ 2757 NONAME
	_ZNK24QDeclarativeParentChange6parentEv @ 2758 NONAME
	_ZNK24QDeclarativeParentChange6xIsSetEv @ 2759 NONAME
	_ZNK24QDeclarativeParentChange6yIsSetEv @ 2760 NONAME
	_ZNK24QDeclarativeParentChange8rotationEv @ 2761 NONAME
	_ZNK24QDeclarativeParentChange8typeNameEv @ 2762 NONAME
	_ZNK24QDeclarativeScriptString11scopeObjectEv @ 2763 NONAME
	_ZNK24QDeclarativeScriptString6scriptEv @ 2764 NONAME
	_ZNK24QDeclarativeScriptString7contextEv @ 2765 NONAME
	_ZNK24QDeclarativeSpringFollow10metaObjectEv @ 2766 NONAME
	_ZNK24QDeclarativeSpringFollow11sourceValueEv @ 2767 NONAME ABSENT
	_ZNK24QDeclarativeSpringFollow4massEv @ 2768 NONAME
	_ZNK24QDeclarativeSpringFollow5valueEv @ 2769 NONAME
	_ZNK24QDeclarativeSpringFollow6inSyncEv @ 2770 NONAME
	_ZNK24QDeclarativeSpringFollow6springEv @ 2771 NONAME
	_ZNK24QDeclarativeSpringFollow7dampingEv @ 2772 NONAME
	_ZNK24QDeclarativeSpringFollow7enabledEv @ 2773 NONAME
	_ZNK24QDeclarativeSpringFollow7epsilonEv @ 2774 NONAME
	_ZNK24QDeclarativeSpringFollow7modulusEv @ 2775 NONAME
	_ZNK24QDeclarativeSpringFollow8velocityEv @ 2776 NONAME
	_ZNK24QDeclarativeWorkerScript10metaObjectEv @ 2777 NONAME
	_ZNK24QDeclarativeWorkerScript6sourceEv @ 2778 NONAME
	_ZNK24QDeclarativeXmlListModel10metaObjectEv @ 2779 NONAME
	_ZNK24QDeclarativeXmlListModel21namespaceDeclarationsEv @ 2780 NONAME
	_ZNK24QDeclarativeXmlListModel3xmlEv @ 2781 NONAME
	_ZNK24QDeclarativeXmlListModel4dataEiRK5QListIiE @ 2782 NONAME
	_ZNK24QDeclarativeXmlListModel4dataEii @ 2783 NONAME
	_ZNK24QDeclarativeXmlListModel5countEv @ 2784 NONAME
	_ZNK24QDeclarativeXmlListModel5queryEv @ 2785 NONAME
	_ZNK24QDeclarativeXmlListModel5rolesEv @ 2786 NONAME
	_ZNK24QDeclarativeXmlListModel6sourceEv @ 2787 NONAME
	_ZNK24QDeclarativeXmlListModel6statusEv @ 2788 NONAME
	_ZNK24QDeclarativeXmlListModel8progressEv @ 2789 NONAME
	_ZNK24QDeclarativeXmlListModel8toStringEi @ 2790 NONAME
	_ZNK25QDeclarativeAnchorChanges10metaObjectEv @ 2791 NONAME
	_ZNK25QDeclarativeAnchorChanges6objectEv @ 2792 NONAME
	_ZNK25QDeclarativeAnchorChanges8typeNameEv @ 2793 NONAME
	_ZNK25QDeclarativeAnimatedImage10frameCountEv @ 2794 NONAME
	_ZNK25QDeclarativeAnimatedImage10metaObjectEv @ 2795 NONAME
	_ZNK25QDeclarativeAnimatedImage12currentFrameEv @ 2796 NONAME
	_ZNK25QDeclarativeAnimatedImage8isPausedEv @ 2797 NONAME
	_ZNK25QDeclarativeAnimatedImage9isPlayingEv @ 2798 NONAME
	_ZNK25QDeclarativeListReference15listElementTypeEv @ 2799 NONAME
	_ZNK25QDeclarativeListReference2atEi @ 2800 NONAME
	_ZNK25QDeclarativeListReference5canAtEv @ 2801 NONAME
	_ZNK25QDeclarativeListReference5clearEv @ 2802 NONAME
	_ZNK25QDeclarativeListReference5countEv @ 2803 NONAME
	_ZNK25QDeclarativeListReference6appendEP7QObject @ 2804 NONAME
	_ZNK25QDeclarativeListReference6objectEv @ 2805 NONAME
	_ZNK25QDeclarativeListReference7isValidEv @ 2806 NONAME
	_ZNK25QDeclarativeListReference8canClearEv @ 2807 NONAME
	_ZNK25QDeclarativeListReference8canCountEv @ 2808 NONAME
	_ZNK25QDeclarativeListReference9canAppendEv @ 2809 NONAME
	_ZNK25QDeclarativePathAttribute10metaObjectEv @ 2810 NONAME
	_ZNK25QDeclarativePathAttribute4nameEv @ 2811 NONAME
	_ZNK25QDeclarativePathAttribute5valueEv @ 2812 NONAME
	_ZNK25QDeclarativeSystemPalette10buttonTextEv @ 2813 NONAME
	_ZNK25QDeclarativeSystemPalette10colorGroupEv @ 2814 NONAME
	_ZNK25QDeclarativeSystemPalette10metaObjectEv @ 2815 NONAME
	_ZNK25QDeclarativeSystemPalette10windowTextEv @ 2816 NONAME
	_ZNK25QDeclarativeSystemPalette13alternateBaseEv @ 2817 NONAME
	_ZNK25QDeclarativeSystemPalette15highlightedTextEv @ 2818 NONAME
	_ZNK25QDeclarativeSystemPalette3midEv @ 2819 NONAME
	_ZNK25QDeclarativeSystemPalette4baseEv @ 2820 NONAME
	_ZNK25QDeclarativeSystemPalette4darkEv @ 2821 NONAME
	_ZNK25QDeclarativeSystemPalette4textEv @ 2822 NONAME
	_ZNK25QDeclarativeSystemPalette5lightEv @ 2823 NONAME
	_ZNK25QDeclarativeSystemPalette6buttonEv @ 2824 NONAME
	_ZNK25QDeclarativeSystemPalette6shadowEv @ 2825 NONAME
	_ZNK25QDeclarativeSystemPalette6windowEv @ 2826 NONAME
	_ZNK25QDeclarativeSystemPalette8midlightEv @ 2827 NONAME
	_ZNK25QDeclarativeSystemPalette9highlightEv @ 2828 NONAME
	_ZNK26QDeclarativeBasePositioner10metaObjectEv @ 2829 NONAME
	_ZNK26QDeclarativeBasePositioner3addEv @ 2830 NONAME
	_ZNK26QDeclarativeBasePositioner4moveEv @ 2831 NONAME
	_ZNK26QDeclarativeBasePositioner7spacingEv @ 2832 NONAME
	_ZNK26QDeclarativeOpenMetaObject4nameEi @ 2833 NONAME
	_ZNK26QDeclarativeOpenMetaObject4typeEv @ 2834 NONAME
	_ZNK26QDeclarativeOpenMetaObject5countEv @ 2835 NONAME
	_ZNK26QDeclarativeOpenMetaObject5valueERK10QByteArray @ 2836 NONAME
	_ZNK26QDeclarativeOpenMetaObject5valueEi @ 2837 NONAME
	_ZNK26QDeclarativeOpenMetaObject6objectEv @ 2838 NONAME
	_ZNK26QDeclarativeOpenMetaObject6parentEv @ 2839 NONAME
	_ZNK26QDeclarativeStateOperation10metaObjectEv @ 2840 NONAME
	_ZNK27QDeclarativeAbstractBinding10expressionEv @ 2841 NONAME
	_ZNK27QDeclarativeDebugConnection10metaObjectEv @ 2842 NONAME
	_ZNK27QDeclarativeDebugConnection11isConnectedEv @ 2843 NONAME
	_ZNK27QDeclarativeDomValueBinding7bindingEv @ 2844 NONAME
	_ZNK27QDeclarativeDomValueLiteral7literalEv @ 2845 NONAME
	_ZNK27QDeclarativeExtensionPlugin10metaObjectEv @ 2846 NONAME
	_ZNK27QDeclarativeGridScaledImage10gridBottomEv @ 2847 NONAME
	_ZNK27QDeclarativeGridScaledImage7gridTopEv @ 2848 NONAME
	_ZNK27QDeclarativeGridScaledImage7isValidEv @ 2849 NONAME
	_ZNK27QDeclarativeGridScaledImage8gridLeftEv @ 2850 NONAME
	_ZNK27QDeclarativeGridScaledImage9gridRightEv @ 2851 NONAME
	_ZNK27QDeclarativeGridScaledImage9pixmapUrlEv @ 2852 NONAME
	_ZNK27QDeclarativePropertyChanges10isExplicitEv @ 2853 NONAME
	_ZNK27QDeclarativePropertyChanges10metaObjectEv @ 2854 NONAME
	_ZNK27QDeclarativePropertyChanges18restoreEntryValuesEv @ 2855 NONAME
	_ZNK27QDeclarativePropertyChanges6objectEv @ 2856 NONAME
	_ZNK27QDeclarativePropertyPrivate11isValueTypeEv @ 2857 NONAME
	_ZNK27QDeclarativePropertyPrivate12propertyTypeEv @ 2858 NONAME
	_ZNK27QDeclarativePropertyPrivate20propertyTypeCategoryEv @ 2859 NONAME
	_ZNK27QDeclarativeVisualDataModel10metaObjectEv @ 2860 NONAME
	_ZNK27QDeclarativeVisualDataModel4partEv @ 2861 NONAME
	_ZNK27QDeclarativeVisualDataModel5countEv @ 2862 NONAME
	_ZNK27QDeclarativeVisualDataModel5modelEv @ 2863 NONAME
	_ZNK27QDeclarativeVisualDataModel7indexOfEP16QDeclarativeItemP7QObject @ 2864 NONAME
	_ZNK27QDeclarativeVisualDataModel8delegateEv @ 2865 NONAME
	_ZNK27QDeclarativeVisualDataModel9rootIndexEv @ 2866 NONAME
	_ZNK27QDeclarativeVisualItemModel10metaObjectEv @ 2867 NONAME
	_ZNK27QDeclarativeVisualItemModel5countEv @ 2868 NONAME
	_ZNK27QDeclarativeVisualItemModel7indexOfEP16QDeclarativeItemP7QObject @ 2869 NONAME
	_ZNK27QDeclarativeVisualItemModel7isValidEv @ 2870 NONAME
	_ZNK28QDeclarativeCustomParserNode10propertiesEv @ 2871 NONAME
	_ZNK28QDeclarativeCustomParserNode4nameEv @ 2872 NONAME
	_ZNK28QDeclarativeCustomParserNode8locationEv @ 2873 NONAME
	_ZNK28QDeclarativeDebugObjectQuery10metaObjectEv @ 2874 NONAME
	_ZNK28QDeclarativeDebugObjectQuery6objectEv @ 2875 NONAME
	_ZNK28QDeclarativeValueTypeFactoryixEi @ 2876 NONAME ABSENT
	_ZNK28QDeclarativeXmlListModelRole10metaObjectEv @ 2877 NONAME
	_ZNK29QDeclarativeDebugEnginesQuery10metaObjectEv @ 2878 NONAME
	_ZNK29QDeclarativeDebugEnginesQuery7enginesEv @ 2879 NONAME
	_ZNK29QDeclarativeSmoothedAnimation10metaObjectEv @ 2880 NONAME
	_ZNK29QDeclarativeSmoothedAnimation13reversingModeEv @ 2881 NONAME
	_ZNK29QDeclarativeSmoothedAnimation17maximumEasingTimeEv @ 2882 NONAME
	_ZNK29QDeclarativeSmoothedAnimation8durationEv @ 2883 NONAME
	_ZNK29QDeclarativeSmoothedAnimation8velocityEv @ 2884 NONAME
	_ZNK29QDeclarativeStateChangeScript10metaObjectEv @ 2885 NONAME
	_ZNK29QDeclarativeStateChangeScript4nameEv @ 2886 NONAME
	_ZNK29QDeclarativeStateChangeScript6scriptEv @ 2887 NONAME
	_ZNK29QDeclarativeStateChangeScript8typeNameEv @ 2888 NONAME
	_ZNK30QDeclarativeDebugFileReference10lineNumberEv @ 2889 NONAME
	_ZNK30QDeclarativeDebugFileReference12columnNumberEv @ 2890 NONAME
	_ZNK30QDeclarativeDebugFileReference3urlEv @ 2891 NONAME
	_ZNK30QDeclarativeDebugPropertyWatch10metaObjectEv @ 2892 NONAME
	_ZNK30QDeclarativeDebugPropertyWatch4nameEv @ 2893 NONAME
	_ZNK30QDeclarativeDomDynamicProperty12defaultValueEv @ 2894 NONAME
	_ZNK30QDeclarativeDomDynamicProperty12propertyNameEv @ 2895 NONAME
	_ZNK30QDeclarativeDomDynamicProperty12propertyTypeEv @ 2896 NONAME
	_ZNK30QDeclarativeDomDynamicProperty16propertyTypeNameEv @ 2897 NONAME
	_ZNK30QDeclarativeDomDynamicProperty17isDefaultPropertyEv @ 2898 NONAME
	_ZNK30QDeclarativeDomDynamicProperty6lengthEv @ 2899 NONAME
	_ZNK30QDeclarativeDomDynamicProperty7isAliasEv @ 2900 NONAME
	_ZNK30QDeclarativeDomDynamicProperty7isValidEv @ 2901 NONAME
	_ZNK30QDeclarativeDomDynamicProperty8positionEv @ 2902 NONAME
	_ZNK30QDeclarativeOpenMetaObjectType12signalOffsetEv @ 2903 NONAME
	_ZNK30QDeclarativeOpenMetaObjectType14propertyOffsetEv @ 2904 NONAME
	_ZNK31QDeclarativeDomValueValueSource6objectEv @ 2905 NONAME
	_ZNK32QDeclarativeCustomParserProperty14assignedValuesEv @ 2906 NONAME
	_ZNK32QDeclarativeCustomParserProperty4nameEv @ 2907 NONAME
	_ZNK32QDeclarativeCustomParserProperty6isListEv @ 2908 NONAME
	_ZNK32QDeclarativeCustomParserProperty8locationEv @ 2909 NONAME
	_ZNK32QDeclarativeDebugEngineReference4nameEv @ 2910 NONAME
	_ZNK32QDeclarativeDebugEngineReference7debugIdEv @ 2911 NONAME
	_ZNK32QDeclarativeDebugExpressionQuery10expressionEv @ 2912 NONAME
	_ZNK32QDeclarativeDebugExpressionQuery10metaObjectEv @ 2913 NONAME
	_ZNK32QDeclarativeDebugExpressionQuery6resultEv @ 2914 NONAME
	_ZNK32QDeclarativeDebugObjectReference10propertiesEv @ 2915 NONAME
	_ZNK32QDeclarativeDebugObjectReference14contextDebugIdEv @ 2916 NONAME
	_ZNK32QDeclarativeDebugObjectReference4nameEv @ 2917 NONAME
	_ZNK32QDeclarativeDebugObjectReference6sourceEv @ 2918 NONAME
	_ZNK32QDeclarativeDebugObjectReference7debugIdEv @ 2919 NONAME
	_ZNK32QDeclarativeDebugObjectReference8childrenEv @ 2920 NONAME
	_ZNK32QDeclarativeDebugObjectReference8idStringEv @ 2921 NONAME
	_ZNK32QDeclarativeDebugObjectReference9classNameEv @ 2922 NONAME
	_ZNK33QDeclarativeDebugContextReference4nameEv @ 2923 NONAME
	_ZNK33QDeclarativeDebugContextReference7debugIdEv @ 2924 NONAME
	_ZNK33QDeclarativeDebugContextReference7objectsEv @ 2925 NONAME
	_ZNK33QDeclarativeDebugContextReference8contextsEv @ 2926 NONAME
	_ZNK33QDeclarativeDebugRootContextQuery10metaObjectEv @ 2927 NONAME
	_ZNK33QDeclarativeDebugRootContextQuery11rootContextEv @ 2928 NONAME
	_ZNK34QDeclarativeDebugPropertyReference13objectDebugIdEv @ 2929 NONAME
	_ZNK34QDeclarativeDebugPropertyReference13valueTypeNameEv @ 2930 NONAME
	_ZNK34QDeclarativeDebugPropertyReference15hasNotifySignalEv @ 2931 NONAME
	_ZNK34QDeclarativeDebugPropertyReference4nameEv @ 2932 NONAME
	_ZNK34QDeclarativeDebugPropertyReference5valueEv @ 2933 NONAME
	_ZNK34QDeclarativeDebugPropertyReference7bindingEv @ 2934 NONAME
	_ZNK35QDeclarativeGraphicsObjectContainer10metaObjectEv @ 2935 NONAME ABSENT
	_ZNK35QDeclarativeGraphicsObjectContainer14graphicsObjectEv @ 2936 NONAME ABSENT
	_ZNK35QDeclarativeGraphicsObjectContainer20synchronizedResizingEv @ 2937 NONAME ABSENT
	_ZNK36QDeclarativeDomValueValueInterceptor6objectEv @ 2938 NONAME
	_ZNK38QDeclarativeDebugObjectExpressionWatch10expressionEv @ 2939 NONAME
	_ZNK38QDeclarativeDebugObjectExpressionWatch10metaObjectEv @ 2940 NONAME
	_ZNK7QPacket7isEmptyEv @ 2941 NONAME
	_ZTI15QDeclarativePen @ 2942 NONAME
	_ZTI15QDeclarativeRow @ 2943 NONAME
	_ZTI15QPacketAutoSend @ 2944 NONAME
	_ZTI15QPacketProtocol @ 2945 NONAME
	_ZTI16QDeclarativeBind @ 2946 NONAME
	_ZTI16QDeclarativeDrag @ 2947 NONAME
	_ZTI16QDeclarativeFlow @ 2948 NONAME
	_ZTI16QDeclarativeGrid @ 2949 NONAME
	_ZTI16QDeclarativeItem @ 2950 NONAME
	_ZTI16QDeclarativePath @ 2951 NONAME
	_ZTI16QDeclarativeText @ 2952 NONAME
	_ZTI16QDeclarativeView @ 2953 NONAME
	_ZTI17QDeclarativeCurve @ 2954 NONAME
	_ZTI17QDeclarativeImage @ 2955 NONAME
	_ZTI17QDeclarativeState @ 2956 NONAME
	_ZTI17QDeclarativeTimer @ 2957 NONAME
	_ZTI18QDeclarativeColumn @ 2958 NONAME
	_ZTI18QDeclarativeEngine @ 2959 NONAME
	_ZTI18QDeclarativeLoader @ 2960 NONAME
	_ZTI18QMetaObjectBuilder @ 2961 NONAME
	_ZTI19QDeclarativeAnchors @ 2962 NONAME
	_ZTI19QDeclarativeBinding @ 2963 NONAME
	_ZTI19QDeclarativeContext @ 2964 NONAME
	_ZTI19QListModelInterface @ 2965 NONAME
	_ZTI20QDeclarativeBehavior @ 2966 NONAME
	_ZTI20QDeclarativeFlipable @ 2967 NONAME
	_ZTI20QDeclarativeGradient @ 2968 NONAME
	_ZTI20QDeclarativeGridView @ 2969 NONAME
	_ZTI20QDeclarativeListView @ 2970 NONAME
	_ZTI20QDeclarativePathLine @ 2971 NONAME
	_ZTI20QDeclarativePathQuad @ 2972 NONAME
	_ZTI20QDeclarativePathView @ 2973 NONAME
	_ZTI20QDeclarativeRepeater @ 2974 NONAME
	_ZTI20QDeclarativeTextEdit @ 2975 NONAME
	_ZTI21QDeclarativeComponent @ 2976 NONAME
	_ZTI21QDeclarativeFlickable @ 2977 NONAME
	_ZTI21QDeclarativeImageBase @ 2978 NONAME
	_ZTI21QDeclarativeListModel @ 2979 NONAME
	_ZTI21QDeclarativeMouseArea @ 2980 NONAME
	_ZTI21QDeclarativePathCubic @ 2981 NONAME
	_ZTI21QDeclarativeRectangle @ 2982 NONAME
	_ZTI21QDeclarativeScaleGrid @ 2983 NONAME
	_ZTI21QDeclarativeTextInput @ 2984 NONAME
	_ZTI21QDeclarativeTranslate @ 2985 NONAME
	_ZTI21QDeclarativeValueType @ 2986 NONAME
	_ZTI22QDeclarativeDebugQuery @ 2987 NONAME
	_ZTI22QDeclarativeDebugWatch @ 2988 NONAME
	_ZTI22QDeclarativeExpression @ 2989 NONAME
	_ZTI22QDeclarativeFocusPanel @ 2990 NONAME
	_ZTI22QDeclarativeFocusScope @ 2991 NONAME
	_ZTI22QDeclarativeFontLoader @ 2992 NONAME
	_ZTI22QDeclarativeStateGroup @ 2993 NONAME
	_ZTI22QDeclarativeTransition @ 2994 NONAME
	_ZTI23QDeclarativeBorderImage @ 2995 NONAME
	_ZTI23QDeclarativeConnections @ 2996 NONAME
	_ZTI23QDeclarativeDebugClient @ 2997 NONAME
	_ZTI23QDeclarativeEngineDebug @ 2998 NONAME
	_ZTI23QDeclarativeItemPrivate @ 2999 NONAME
	_ZTI23QDeclarativePaintedItem @ 3000 NONAME
	_ZTI23QDeclarativePathElement @ 3001 NONAME
	_ZTI23QDeclarativePathPercent @ 3002 NONAME
	_ZTI23QDeclarativePixmapReply @ 3003 NONAME
	_ZTI23QDeclarativePropertyMap @ 3004 NONAME
	_ZTI23QDeclarativeViewSection @ 3005 NONAME
	_ZTI23QDeclarativeVisualModel @ 3006 NONAME
	_ZTI24QDeclarativeCustomParser @ 3007 NONAME
	_ZTI24QDeclarativeDebugService @ 3008 NONAME
	_ZTI24QDeclarativeGradientStop @ 3009 NONAME
	_ZTI24QDeclarativeParentChange @ 3010 NONAME
	_ZTI24QDeclarativeParserStatus @ 3011 NONAME
	_ZTI24QDeclarativeSpringFollow @ 3012 NONAME
	_ZTI24QDeclarativeWorkerScript @ 3013 NONAME
	_ZTI24QDeclarativeXmlListModel @ 3014 NONAME
	_ZTI25QDeclarativeAnchorChanges @ 3015 NONAME
	_ZTI25QDeclarativeAnimatedImage @ 3016 NONAME
	_ZTI25QDeclarativeImageProvider @ 3017 NONAME
	_ZTI25QDeclarativePathAttribute @ 3018 NONAME
	_ZTI25QDeclarativeSystemPalette @ 3019 NONAME
	_ZTI26QDeclarativeBasePositioner @ 3020 NONAME
	_ZTI26QDeclarativeDebuggerStatus @ 3021 NONAME
	_ZTI26QDeclarativeOpenMetaObject @ 3022 NONAME
	_ZTI26QDeclarativeStateOperation @ 3023 NONAME
	_ZTI27QDeclarativeAbstractBinding @ 3024 NONAME
	_ZTI27QDeclarativeDebugConnection @ 3025 NONAME
	_ZTI27QDeclarativeExtensionPlugin @ 3026 NONAME
	_ZTI27QDeclarativePropertyChanges @ 3027 NONAME
	_ZTI27QDeclarativeVisualDataModel @ 3028 NONAME
	_ZTI27QDeclarativeVisualItemModel @ 3029 NONAME
	_ZTI28QDeclarativeDebugObjectQuery @ 3030 NONAME
	_ZTI28QDeclarativeXmlListModelRole @ 3031 NONAME
	_ZTI29QDeclarativeDebugEnginesQuery @ 3032 NONAME
	_ZTI29QDeclarativeSmoothedAnimation @ 3033 NONAME
	_ZTI29QDeclarativeStateChangeScript @ 3034 NONAME
	_ZTI30QDeclarativeDebugPropertyWatch @ 3035 NONAME
	_ZTI30QDeclarativeExtensionInterface @ 3036 NONAME
	_ZTI30QDeclarativeOpenMetaObjectType @ 3037 NONAME
	_ZTI31QDeclarativePropertyValueSource @ 3038 NONAME
	_ZTI32QDeclarativeDebugExpressionQuery @ 3039 NONAME
	_ZTI33QDeclarativeDebugRootContextQuery @ 3040 NONAME
	_ZTI35QDeclarativeGraphicsObjectContainer @ 3041 NONAME ABSENT
	_ZTI36QDeclarativePropertyValueInterceptor @ 3042 NONAME
	_ZTI38QDeclarativeDebugObjectExpressionWatch @ 3043 NONAME
	_ZTI39QDeclarativeNetworkAccessManagerFactory @ 3044 NONAME
	_ZTI7QPacket @ 3045 NONAME
	_ZTV15QDeclarativePen @ 3046 NONAME
	_ZTV15QDeclarativeRow @ 3047 NONAME
	_ZTV15QPacketAutoSend @ 3048 NONAME
	_ZTV15QPacketProtocol @ 3049 NONAME
	_ZTV16QDeclarativeBind @ 3050 NONAME
	_ZTV16QDeclarativeDrag @ 3051 NONAME
	_ZTV16QDeclarativeFlow @ 3052 NONAME
	_ZTV16QDeclarativeGrid @ 3053 NONAME
	_ZTV16QDeclarativeItem @ 3054 NONAME
	_ZTV16QDeclarativePath @ 3055 NONAME
	_ZTV16QDeclarativeText @ 3056 NONAME
	_ZTV16QDeclarativeView @ 3057 NONAME
	_ZTV17QDeclarativeCurve @ 3058 NONAME
	_ZTV17QDeclarativeImage @ 3059 NONAME
	_ZTV17QDeclarativeState @ 3060 NONAME
	_ZTV17QDeclarativeTimer @ 3061 NONAME
	_ZTV18QDeclarativeColumn @ 3062 NONAME
	_ZTV18QDeclarativeEngine @ 3063 NONAME
	_ZTV18QDeclarativeLoader @ 3064 NONAME
	_ZTV18QMetaObjectBuilder @ 3065 NONAME
	_ZTV19QDeclarativeAnchors @ 3066 NONAME
	_ZTV19QDeclarativeBinding @ 3067 NONAME
	_ZTV19QDeclarativeContext @ 3068 NONAME
	_ZTV19QListModelInterface @ 3069 NONAME
	_ZTV20QDeclarativeBehavior @ 3070 NONAME
	_ZTV20QDeclarativeFlipable @ 3071 NONAME
	_ZTV20QDeclarativeGradient @ 3072 NONAME
	_ZTV20QDeclarativeGridView @ 3073 NONAME
	_ZTV20QDeclarativeListView @ 3074 NONAME
	_ZTV20QDeclarativePathLine @ 3075 NONAME
	_ZTV20QDeclarativePathQuad @ 3076 NONAME
	_ZTV20QDeclarativePathView @ 3077 NONAME
	_ZTV20QDeclarativeRepeater @ 3078 NONAME
	_ZTV20QDeclarativeTextEdit @ 3079 NONAME
	_ZTV21QDeclarativeComponent @ 3080 NONAME
	_ZTV21QDeclarativeFlickable @ 3081 NONAME
	_ZTV21QDeclarativeImageBase @ 3082 NONAME
	_ZTV21QDeclarativeListModel @ 3083 NONAME
	_ZTV21QDeclarativeMouseArea @ 3084 NONAME
	_ZTV21QDeclarativePathCubic @ 3085 NONAME
	_ZTV21QDeclarativeRectangle @ 3086 NONAME
	_ZTV21QDeclarativeScaleGrid @ 3087 NONAME
	_ZTV21QDeclarativeTextInput @ 3088 NONAME
	_ZTV21QDeclarativeTranslate @ 3089 NONAME
	_ZTV21QDeclarativeValueType @ 3090 NONAME
	_ZTV22QDeclarativeDebugQuery @ 3091 NONAME
	_ZTV22QDeclarativeDebugWatch @ 3092 NONAME
	_ZTV22QDeclarativeExpression @ 3093 NONAME
	_ZTV22QDeclarativeFocusPanel @ 3094 NONAME
	_ZTV22QDeclarativeFocusScope @ 3095 NONAME
	_ZTV22QDeclarativeFontLoader @ 3096 NONAME
	_ZTV22QDeclarativeStateGroup @ 3097 NONAME
	_ZTV22QDeclarativeTransition @ 3098 NONAME
	_ZTV23QDeclarativeBorderImage @ 3099 NONAME
	_ZTV23QDeclarativeConnections @ 3100 NONAME
	_ZTV23QDeclarativeDebugClient @ 3101 NONAME
	_ZTV23QDeclarativeEngineDebug @ 3102 NONAME
	_ZTV23QDeclarativeItemPrivate @ 3103 NONAME
	_ZTV23QDeclarativePaintedItem @ 3104 NONAME
	_ZTV23QDeclarativePathElement @ 3105 NONAME
	_ZTV23QDeclarativePathPercent @ 3106 NONAME
	_ZTV23QDeclarativePixmapReply @ 3107 NONAME
	_ZTV23QDeclarativePropertyMap @ 3108 NONAME
	_ZTV23QDeclarativeViewSection @ 3109 NONAME
	_ZTV23QDeclarativeVisualModel @ 3110 NONAME
	_ZTV24QDeclarativeCustomParser @ 3111 NONAME
	_ZTV24QDeclarativeDebugService @ 3112 NONAME
	_ZTV24QDeclarativeGradientStop @ 3113 NONAME
	_ZTV24QDeclarativeParentChange @ 3114 NONAME
	_ZTV24QDeclarativeParserStatus @ 3115 NONAME
	_ZTV24QDeclarativeSpringFollow @ 3116 NONAME
	_ZTV24QDeclarativeWorkerScript @ 3117 NONAME
	_ZTV24QDeclarativeXmlListModel @ 3118 NONAME
	_ZTV25QDeclarativeAnchorChanges @ 3119 NONAME
	_ZTV25QDeclarativeAnimatedImage @ 3120 NONAME
	_ZTV25QDeclarativeImageProvider @ 3121 NONAME
	_ZTV25QDeclarativePathAttribute @ 3122 NONAME
	_ZTV25QDeclarativeSystemPalette @ 3123 NONAME
	_ZTV26QDeclarativeBasePositioner @ 3124 NONAME
	_ZTV26QDeclarativeDebuggerStatus @ 3125 NONAME
	_ZTV26QDeclarativeOpenMetaObject @ 3126 NONAME
	_ZTV26QDeclarativeStateOperation @ 3127 NONAME
	_ZTV27QDeclarativeAbstractBinding @ 3128 NONAME
	_ZTV27QDeclarativeDebugConnection @ 3129 NONAME
	_ZTV27QDeclarativeExtensionPlugin @ 3130 NONAME
	_ZTV27QDeclarativePropertyChanges @ 3131 NONAME
	_ZTV27QDeclarativeVisualDataModel @ 3132 NONAME
	_ZTV27QDeclarativeVisualItemModel @ 3133 NONAME
	_ZTV28QDeclarativeDebugObjectQuery @ 3134 NONAME
	_ZTV28QDeclarativeXmlListModelRole @ 3135 NONAME
	_ZTV29QDeclarativeDebugEnginesQuery @ 3136 NONAME
	_ZTV29QDeclarativeSmoothedAnimation @ 3137 NONAME
	_ZTV29QDeclarativeStateChangeScript @ 3138 NONAME
	_ZTV30QDeclarativeDebugPropertyWatch @ 3139 NONAME
	_ZTV30QDeclarativeOpenMetaObjectType @ 3140 NONAME
	_ZTV31QDeclarativePropertyValueSource @ 3141 NONAME
	_ZTV32QDeclarativeDebugExpressionQuery @ 3142 NONAME
	_ZTV33QDeclarativeDebugRootContextQuery @ 3143 NONAME
	_ZTV35QDeclarativeGraphicsObjectContainer @ 3144 NONAME ABSENT
	_ZTV36QDeclarativePropertyValueInterceptor @ 3145 NONAME
	_ZTV38QDeclarativeDebugObjectExpressionWatch @ 3146 NONAME
	_ZTV39QDeclarativeNetworkAccessManagerFactory @ 3147 NONAME
	_ZTV7QPacket @ 3148 NONAME
	_ZThn12_N29QDeclarativeSmoothedAnimationD0Ev @ 3149 NONAME
	_ZThn12_N29QDeclarativeSmoothedAnimationD1Ev @ 3150 NONAME
	_ZThn16_N16QDeclarativeItem10classBeginEv @ 3151 NONAME
	_ZThn16_N16QDeclarativeItem17componentCompleteEv @ 3152 NONAME
	_ZThn16_N16QDeclarativeItemD0Ev @ 3153 NONAME
	_ZThn16_N16QDeclarativeItemD1Ev @ 3154 NONAME
	_ZThn16_N16QDeclarativeText17componentCompleteEv @ 3155 NONAME
	_ZThn16_N16QDeclarativeTextD0Ev @ 3156 NONAME
	_ZThn16_N16QDeclarativeTextD1Ev @ 3157 NONAME
	_ZThn16_N17QDeclarativeImageD0Ev @ 3158 NONAME
	_ZThn16_N17QDeclarativeImageD1Ev @ 3159 NONAME
	_ZThn16_N18QDeclarativeLoaderD0Ev @ 3160 NONAME
	_ZThn16_N18QDeclarativeLoaderD1Ev @ 3161 NONAME
	_ZThn16_N20QDeclarativeFlipableD0Ev @ 3162 NONAME
	_ZThn16_N20QDeclarativeFlipableD1Ev @ 3163 NONAME
	_ZThn16_N20QDeclarativeGridView17componentCompleteEv @ 3164 NONAME
	_ZThn16_N20QDeclarativeGridViewD0Ev @ 3165 NONAME
	_ZThn16_N20QDeclarativeGridViewD1Ev @ 3166 NONAME
	_ZThn16_N20QDeclarativeListView17componentCompleteEv @ 3167 NONAME
	_ZThn16_N20QDeclarativeListViewD0Ev @ 3168 NONAME
	_ZThn16_N20QDeclarativeListViewD1Ev @ 3169 NONAME
	_ZThn16_N20QDeclarativePathView17componentCompleteEv @ 3170 NONAME
	_ZThn16_N20QDeclarativePathViewD0Ev @ 3171 NONAME
	_ZThn16_N20QDeclarativePathViewD1Ev @ 3172 NONAME
	_ZThn16_N20QDeclarativeRepeater17componentCompleteEv @ 3173 NONAME
	_ZThn16_N20QDeclarativeRepeaterD0Ev @ 3174 NONAME
	_ZThn16_N20QDeclarativeRepeaterD1Ev @ 3175 NONAME
	_ZThn16_N20QDeclarativeTextEdit17componentCompleteEv @ 3176 NONAME
	_ZThn16_N21QDeclarativeFlickableD0Ev @ 3177 NONAME
	_ZThn16_N21QDeclarativeFlickableD1Ev @ 3178 NONAME
	_ZThn16_N21QDeclarativeImageBase17componentCompleteEv @ 3179 NONAME
	_ZThn16_N21QDeclarativeImageBaseD0Ev @ 3180 NONAME
	_ZThn16_N21QDeclarativeImageBaseD1Ev @ 3181 NONAME
	_ZThn16_N21QDeclarativeMouseAreaD0Ev @ 3182 NONAME
	_ZThn16_N21QDeclarativeMouseAreaD1Ev @ 3183 NONAME
	_ZThn16_N21QDeclarativeTextInputD0Ev @ 3184 NONAME
	_ZThn16_N21QDeclarativeTextInputD1Ev @ 3185 NONAME
	_ZThn16_N22QDeclarativeFocusPanelD0Ev @ 3186 NONAME
	_ZThn16_N22QDeclarativeFocusPanelD1Ev @ 3187 NONAME
	_ZThn16_N22QDeclarativeFocusScopeD0Ev @ 3188 NONAME
	_ZThn16_N22QDeclarativeFocusScopeD1Ev @ 3189 NONAME
	_ZThn16_N23QDeclarativeBorderImageD0Ev @ 3190 NONAME
	_ZThn16_N23QDeclarativeBorderImageD1Ev @ 3191 NONAME
	_ZThn16_N23QDeclarativePaintedItemD0Ev @ 3192 NONAME
	_ZThn16_N23QDeclarativePaintedItemD1Ev @ 3193 NONAME
	_ZThn16_N25QDeclarativeAnimatedImage17componentCompleteEv @ 3194 NONAME
	_ZThn16_N25QDeclarativeAnimatedImageD0Ev @ 3195 NONAME
	_ZThn16_N25QDeclarativeAnimatedImageD1Ev @ 3196 NONAME
	_ZThn16_N26QDeclarativeBasePositioner17componentCompleteEv @ 3197 NONAME
	_ZThn16_N26QDeclarativeBasePositionerD0Ev @ 3198 NONAME
	_ZThn16_N26QDeclarativeBasePositionerD1Ev @ 3199 NONAME
	_ZThn16_N35QDeclarativeGraphicsObjectContainerD0Ev @ 3200 NONAME ABSENT
	_ZThn16_N35QDeclarativeGraphicsObjectContainerD1Ev @ 3201 NONAME ABSENT
	_ZThn8_N16QDeclarativeBind17componentCompleteEv @ 3202 NONAME
	_ZThn8_N16QDeclarativeBindD0Ev @ 3203 NONAME
	_ZThn8_N16QDeclarativeBindD1Ev @ 3204 NONAME
	_ZThn8_N16QDeclarativeItem10itemChangeEN13QGraphicsItem18GraphicsItemChangeERK8QVariant @ 3205 NONAME
	_ZThn8_N16QDeclarativeItem10sceneEventEP6QEvent @ 3206 NONAME
	_ZThn8_N16QDeclarativeItem13keyPressEventEP9QKeyEvent @ 3207 NONAME
	_ZThn8_N16QDeclarativeItem15keyReleaseEventEP9QKeyEvent @ 3208 NONAME
	_ZThn8_N16QDeclarativeItem16inputMethodEventEP17QInputMethodEvent @ 3209 NONAME
	_ZThn8_N16QDeclarativeItem5paintEP8QPainterPK24QStyleOptionGraphicsItemP7QWidget @ 3210 NONAME
	_ZThn8_N16QDeclarativeItemD0Ev @ 3211 NONAME
	_ZThn8_N16QDeclarativeItemD1Ev @ 3212 NONAME
	_ZThn8_N16QDeclarativePath17componentCompleteEv @ 3213 NONAME
	_ZThn8_N16QDeclarativePathD0Ev @ 3214 NONAME
	_ZThn8_N16QDeclarativePathD1Ev @ 3215 NONAME
	_ZThn8_N16QDeclarativeText15mousePressEventEP24QGraphicsSceneMouseEvent @ 3216 NONAME
	_ZThn8_N16QDeclarativeText17mouseReleaseEventEP24QGraphicsSceneMouseEvent @ 3217 NONAME
	_ZThn8_N16QDeclarativeText5paintEP8QPainterPK24QStyleOptionGraphicsItemP7QWidget @ 3218 NONAME
	_ZThn8_N16QDeclarativeTextD0Ev @ 3219 NONAME
	_ZThn8_N16QDeclarativeTextD1Ev @ 3220 NONAME
	_ZThn8_N16QDeclarativeViewD0Ev @ 3221 NONAME
	_ZThn8_N16QDeclarativeViewD1Ev @ 3222 NONAME
	_ZThn8_N17QDeclarativeImage5paintEP8QPainterPK24QStyleOptionGraphicsItemP7QWidget @ 3223 NONAME
	_ZThn8_N17QDeclarativeImageD0Ev @ 3224 NONAME
	_ZThn8_N17QDeclarativeImageD1Ev @ 3225 NONAME
	_ZThn8_N17QDeclarativeTimer10classBeginEv @ 3226 NONAME
	_ZThn8_N17QDeclarativeTimer17componentCompleteEv @ 3227 NONAME
	_ZThn8_N18QDeclarativeLoader10itemChangeEN13QGraphicsItem18GraphicsItemChangeERK8QVariant @ 3228 NONAME
	_ZThn8_N18QDeclarativeLoaderD0Ev @ 3229 NONAME
	_ZThn8_N18QDeclarativeLoaderD1Ev @ 3230 NONAME
	_ZThn8_N19QDeclarativeBinding10setEnabledEb6QFlagsIN27QDeclarativePropertyPrivate9WriteFlagEE @ 3231 NONAME
	_ZThn8_N19QDeclarativeBinding13propertyIndexEv @ 3232 NONAME
	_ZThn8_N19QDeclarativeBinding6updateE6QFlagsIN27QDeclarativePropertyPrivate9WriteFlagEE @ 3233 NONAME
	_ZThn8_N19QDeclarativeBindingD0Ev @ 3234 NONAME
	_ZThn8_N19QDeclarativeBindingD1Ev @ 3235 NONAME
	_ZThn8_N20QDeclarativeBehavior5writeERK8QVariant @ 3236 NONAME
	_ZThn8_N20QDeclarativeBehavior9setTargetERK20QDeclarativeProperty @ 3237 NONAME
	_ZThn8_N20QDeclarativeBehaviorD0Ev @ 3238 NONAME
	_ZThn8_N20QDeclarativeBehaviorD1Ev @ 3239 NONAME
	_ZThn8_N20QDeclarativeFlipableD0Ev @ 3240 NONAME
	_ZThn8_N20QDeclarativeFlipableD1Ev @ 3241 NONAME
	_ZThn8_N20QDeclarativeGridView13keyPressEventEP9QKeyEvent @ 3242 NONAME
	_ZThn8_N20QDeclarativeGridViewD0Ev @ 3243 NONAME
	_ZThn8_N20QDeclarativeGridViewD1Ev @ 3244 NONAME
	_ZThn8_N20QDeclarativeListView13keyPressEventEP9QKeyEvent @ 3245 NONAME
	_ZThn8_N20QDeclarativeListViewD0Ev @ 3246 NONAME
	_ZThn8_N20QDeclarativeListViewD1Ev @ 3247 NONAME
	_ZThn8_N20QDeclarativePathView14mouseMoveEventEP24QGraphicsSceneMouseEvent @ 3248 NONAME
	_ZThn8_N20QDeclarativePathView15mousePressEventEP24QGraphicsSceneMouseEvent @ 3249 NONAME
	_ZThn8_N20QDeclarativePathView16sceneEventFilterEP13QGraphicsItemP6QEvent @ 3250 NONAME
	_ZThn8_N20QDeclarativePathView17mouseReleaseEventEP24QGraphicsSceneMouseEvent @ 3251 NONAME
	_ZThn8_N20QDeclarativePathViewD0Ev @ 3252 NONAME
	_ZThn8_N20QDeclarativePathViewD1Ev @ 3253 NONAME
	_ZThn8_N20QDeclarativeRepeater10itemChangeEN13QGraphicsItem18GraphicsItemChangeERK8QVariant @ 3254 NONAME
	_ZThn8_N20QDeclarativeRepeaterD0Ev @ 3255 NONAME
	_ZThn8_N20QDeclarativeRepeaterD1Ev @ 3256 NONAME
	_ZThn8_N20QDeclarativeTextEdit13keyPressEventEP9QKeyEvent @ 3257 NONAME
	_ZThn8_N20QDeclarativeTextEdit14mouseMoveEventEP24QGraphicsSceneMouseEvent @ 3258 NONAME
	_ZThn8_N20QDeclarativeTextEdit15keyReleaseEventEP9QKeyEvent @ 3259 NONAME
	_ZThn8_N20QDeclarativeTextEdit15mousePressEventEP24QGraphicsSceneMouseEvent @ 3260 NONAME
	_ZThn8_N20QDeclarativeTextEdit16inputMethodEventEP17QInputMethodEvent @ 3261 NONAME
	_ZThn8_N20QDeclarativeTextEdit17mouseReleaseEventEP24QGraphicsSceneMouseEvent @ 3262 NONAME
	_ZThn8_N20QDeclarativeTextEdit21mouseDoubleClickEventEP24QGraphicsSceneMouseEvent @ 3263 NONAME
	_ZThn8_N21QDeclarativeFlickable10wheelEventEP24QGraphicsSceneWheelEvent @ 3264 NONAME
	_ZThn8_N21QDeclarativeFlickable14mouseMoveEventEP24QGraphicsSceneMouseEvent @ 3265 NONAME
	_ZThn8_N21QDeclarativeFlickable15mousePressEventEP24QGraphicsSceneMouseEvent @ 3266 NONAME
	_ZThn8_N21QDeclarativeFlickable16sceneEventFilterEP13QGraphicsItemP6QEvent @ 3267 NONAME
	_ZThn8_N21QDeclarativeFlickable17mouseReleaseEventEP24QGraphicsSceneMouseEvent @ 3268 NONAME
	_ZThn8_N21QDeclarativeFlickableD0Ev @ 3269 NONAME
	_ZThn8_N21QDeclarativeFlickableD1Ev @ 3270 NONAME
	_ZThn8_N21QDeclarativeImageBaseD0Ev @ 3271 NONAME
	_ZThn8_N21QDeclarativeImageBaseD1Ev @ 3272 NONAME
	_ZThn8_N21QDeclarativeMouseArea10sceneEventEP6QEvent @ 3273 NONAME
	_ZThn8_N21QDeclarativeMouseArea14hoverMoveEventEP24QGraphicsSceneHoverEvent @ 3274 NONAME
	_ZThn8_N21QDeclarativeMouseArea14mouseMoveEventEP24QGraphicsSceneMouseEvent @ 3275 NONAME
	_ZThn8_N21QDeclarativeMouseArea15hoverEnterEventEP24QGraphicsSceneHoverEvent @ 3276 NONAME
	_ZThn8_N21QDeclarativeMouseArea15hoverLeaveEventEP24QGraphicsSceneHoverEvent @ 3277 NONAME
	_ZThn8_N21QDeclarativeMouseArea15mousePressEventEP24QGraphicsSceneMouseEvent @ 3278 NONAME
	_ZThn8_N21QDeclarativeMouseArea17mouseReleaseEventEP24QGraphicsSceneMouseEvent @ 3279 NONAME
	_ZThn8_N21QDeclarativeMouseArea21mouseDoubleClickEventEP24QGraphicsSceneMouseEvent @ 3280 NONAME
	_ZThn8_N21QDeclarativeMouseAreaD0Ev @ 3281 NONAME
	_ZThn8_N21QDeclarativeMouseAreaD1Ev @ 3282 NONAME
	_ZThn8_N21QDeclarativeRectangle5paintEP8QPainterPK24QStyleOptionGraphicsItemP7QWidget @ 3283 NONAME
	_ZThn8_N21QDeclarativeTextInput13keyPressEventEP9QKeyEvent @ 3284 NONAME
	_ZThn8_N21QDeclarativeTextInput15mousePressEventEP24QGraphicsSceneMouseEvent @ 3285 NONAME
	_ZThn8_N21QDeclarativeTextInput17mouseReleaseEventEP24QGraphicsSceneMouseEvent @ 3286 NONAME
	_ZThn8_N21QDeclarativeTextInputD0Ev @ 3287 NONAME
	_ZThn8_N21QDeclarativeTextInputD1Ev @ 3288 NONAME
	_ZThn8_N22QDeclarativeFocusPanel10sceneEventEP6QEvent @ 3289 NONAME
	_ZThn8_N22QDeclarativeFocusPanelD0Ev @ 3290 NONAME
	_ZThn8_N22QDeclarativeFocusPanelD1Ev @ 3291 NONAME
	_ZThn8_N22QDeclarativeFocusScopeD0Ev @ 3292 NONAME
	_ZThn8_N22QDeclarativeFocusScopeD1Ev @ 3293 NONAME
	_ZThn8_N22QDeclarativeStateGroup10classBeginEv @ 3294 NONAME
	_ZThn8_N22QDeclarativeStateGroup17componentCompleteEv @ 3295 NONAME
	_ZThn8_N22QDeclarativeStateGroupD0Ev @ 3296 NONAME
	_ZThn8_N22QDeclarativeStateGroupD1Ev @ 3297 NONAME
	_ZThn8_N23QDeclarativeBorderImage5paintEP8QPainterPK24QStyleOptionGraphicsItemP7QWidget @ 3298 NONAME
	_ZThn8_N23QDeclarativeBorderImageD0Ev @ 3299 NONAME
	_ZThn8_N23QDeclarativeBorderImageD1Ev @ 3300 NONAME
	_ZThn8_N23QDeclarativeConnections17componentCompleteEv @ 3301 NONAME
	_ZThn8_N23QDeclarativeConnectionsD0Ev @ 3302 NONAME
	_ZThn8_N23QDeclarativeConnectionsD1Ev @ 3303 NONAME
	_ZThn8_N23QDeclarativePaintedItem5paintEP8QPainterPK24QStyleOptionGraphicsItemP7QWidget @ 3304 NONAME
	_ZThn8_N23QDeclarativePaintedItemD0Ev @ 3305 NONAME
	_ZThn8_N23QDeclarativePaintedItemD1Ev @ 3306 NONAME
	_ZThn8_N24QDeclarativeParentChange12isReversableEv @ 3307 NONAME
	_ZThn8_N24QDeclarativeParentChange13copyOriginalsEP23QDeclarativeActionEvent @ 3308 NONAME ABSENT
	_ZThn8_N24QDeclarativeParentChange13saveOriginalsEv @ 3309 NONAME
	_ZThn8_N24QDeclarativeParentChange17saveCurrentValuesEv @ 3310 NONAME
	_ZThn8_N24QDeclarativeParentChange6rewindEv @ 3311 NONAME
	_ZThn8_N24QDeclarativeParentChange7executeEv @ 3312 NONAME ABSENT
	_ZThn8_N24QDeclarativeParentChange7reverseEv @ 3313 NONAME ABSENT
	_ZThn8_N24QDeclarativeParentChange8overrideEP23QDeclarativeActionEvent @ 3314 NONAME
	_ZThn8_N24QDeclarativeParentChangeD0Ev @ 3315 NONAME
	_ZThn8_N24QDeclarativeParentChangeD1Ev @ 3316 NONAME
	_ZThn8_N24QDeclarativeSpringFollow9setTargetERK20QDeclarativeProperty @ 3317 NONAME
	_ZThn8_N24QDeclarativeSpringFollowD0Ev @ 3318 NONAME
	_ZThn8_N24QDeclarativeSpringFollowD1Ev @ 3319 NONAME
	_ZThn8_N24QDeclarativeWorkerScript17componentCompleteEv @ 3320 NONAME
	_ZThn8_N24QDeclarativeWorkerScriptD0Ev @ 3321 NONAME
	_ZThn8_N24QDeclarativeWorkerScriptD1Ev @ 3322 NONAME
	_ZThn8_N24QDeclarativeXmlListModel10classBeginEv @ 3323 NONAME
	_ZThn8_N24QDeclarativeXmlListModel17componentCompleteEv @ 3324 NONAME
	_ZThn8_N24QDeclarativeXmlListModelD0Ev @ 3325 NONAME
	_ZThn8_N24QDeclarativeXmlListModelD1Ev @ 3326 NONAME
	_ZThn8_N25QDeclarativeAnchorChanges12isReversableEv @ 3327 NONAME
	_ZThn8_N25QDeclarativeAnchorChanges13clearBindingsEv @ 3328 NONAME
	_ZThn8_N25QDeclarativeAnchorChanges13copyOriginalsEP23QDeclarativeActionEvent @ 3329 NONAME
	_ZThn8_N25QDeclarativeAnchorChanges13saveOriginalsEv @ 3330 NONAME
	_ZThn8_N25QDeclarativeAnchorChanges15changesBindingsEv @ 3331 NONAME
	_ZThn8_N25QDeclarativeAnchorChanges16saveTargetValuesEv @ 3332 NONAME
	_ZThn8_N25QDeclarativeAnchorChanges17saveCurrentValuesEv @ 3333 NONAME
	_ZThn8_N25QDeclarativeAnchorChanges6rewindEv @ 3334 NONAME
	_ZThn8_N25QDeclarativeAnchorChanges7executeEv @ 3335 NONAME ABSENT
	_ZThn8_N25QDeclarativeAnchorChanges7reverseEv @ 3336 NONAME ABSENT
	_ZThn8_N25QDeclarativeAnchorChanges8overrideEP23QDeclarativeActionEvent @ 3337 NONAME
	_ZThn8_N25QDeclarativeAnchorChangesD0Ev @ 3338 NONAME
	_ZThn8_N25QDeclarativeAnchorChangesD1Ev @ 3339 NONAME
	_ZThn8_N25QDeclarativeAnimatedImageD0Ev @ 3340 NONAME
	_ZThn8_N25QDeclarativeAnimatedImageD1Ev @ 3341 NONAME
	_ZThn8_N26QDeclarativeBasePositioner10itemChangeEN13QGraphicsItem18GraphicsItemChangeERK8QVariant @ 3342 NONAME
	_ZThn8_N26QDeclarativeBasePositionerD0Ev @ 3343 NONAME
	_ZThn8_N26QDeclarativeBasePositionerD1Ev @ 3344 NONAME
	_ZThn8_N27QDeclarativeExtensionPlugin16initializeEngineEP18QDeclarativeEnginePKc @ 3345 NONAME
	_ZThn8_N27QDeclarativeExtensionPluginD0Ev @ 3346 NONAME
	_ZThn8_N27QDeclarativeExtensionPluginD1Ev @ 3347 NONAME
	_ZThn8_N29QDeclarativeSmoothedAnimationD0Ev @ 3348 NONAME
	_ZThn8_N29QDeclarativeSmoothedAnimationD1Ev @ 3349 NONAME
	_ZThn8_N29QDeclarativeStateChangeScript7executeEv @ 3350 NONAME ABSENT
	_ZThn8_N29QDeclarativeStateChangeScriptD0Ev @ 3351 NONAME
	_ZThn8_N29QDeclarativeStateChangeScriptD1Ev @ 3352 NONAME
	_ZThn8_N35QDeclarativeGraphicsObjectContainer10itemChangeEN13QGraphicsItem18GraphicsItemChangeERK8QVariant @ 3353 NONAME ABSENT
	_ZThn8_N35QDeclarativeGraphicsObjectContainerD0Ev @ 3354 NONAME ABSENT
	_ZThn8_N35QDeclarativeGraphicsObjectContainerD1Ev @ 3355 NONAME ABSENT
	_ZThn8_NK16QDeclarativeItem12boundingRectEv @ 3356 NONAME
	_ZThn8_NK16QDeclarativeItem16inputMethodQueryEN2Qt16InputMethodQueryE @ 3357 NONAME
	_ZThn8_NK19QDeclarativeBinding10expressionEv @ 3358 NONAME
	_ZThn8_NK20QDeclarativeTextEdit16inputMethodQueryEN2Qt16InputMethodQueryE @ 3359 NONAME
	_ZThn8_NK21QDeclarativeRectangle12boundingRectEv @ 3360 NONAME
	_ZThn8_NK21QDeclarativeTextInput16inputMethodQueryEN2Qt16InputMethodQueryE @ 3361 NONAME
	_ZThn8_NK24QDeclarativeParentChange8typeNameEv @ 3362 NONAME
	_ZThn8_NK25QDeclarativeAnchorChanges8typeNameEv @ 3363 NONAME
	_ZThn8_NK29QDeclarativeStateChangeScript8typeNameEv @ 3364 NONAME
	_Zls6QDebugP16QDeclarativeItem @ 3365 NONAME
	_Zls6QDebugRK17QDeclarativeError @ 3366 NONAME
	_ZlsR11QDataStreamRKN29QDeclarativeEngineDebugServer22QDeclarativeObjectDataE @ 3367 NONAME
	_ZlsR11QDataStreamRKN29QDeclarativeEngineDebugServer26QDeclarativeObjectPropertyE @ 3368 NONAME
	_ZrsR11QDataStreamRN29QDeclarativeEngineDebugServer22QDeclarativeObjectDataE @ 3369 NONAME
	_ZrsR11QDataStreamRN29QDeclarativeEngineDebugServer26QDeclarativeObjectPropertyE @ 3370 NONAME
	_ZN15QDeclarativeRow13doPositioningEP6QSizeF @ 3371 NONAME
	_ZN16QDeclarativeFlow13doPositioningEP6QSizeF @ 3372 NONAME
	_ZN16QDeclarativeGrid13doPositioningEP6QSizeF @ 3373 NONAME
	_ZN18QDeclarativeColumn13doPositioningEP6QSizeF @ 3374 NONAME
	_ZN18QDeclarativeParser7VariantC1ERK7QString @ 3375 NONAME
	_ZN18QDeclarativeParser7VariantC1ERK7QStringPN14QDeclarativeJS3AST4NodeE @ 3376 NONAME
	_ZN18QDeclarativeParser7VariantC1ERKS0_ @ 3377 NONAME
	_ZN18QDeclarativeParser7VariantC1Eb @ 3378 NONAME
	_ZN18QDeclarativeParser7VariantC1EdRK7QString @ 3379 NONAME
	_ZN18QDeclarativeParser7VariantC1Ev @ 3380 NONAME
	_ZN18QDeclarativeParser7VariantC2ERK7QString @ 3381 NONAME
	_ZN18QDeclarativeParser7VariantC2ERK7QStringPN14QDeclarativeJS3AST4NodeE @ 3382 NONAME
	_ZN18QDeclarativeParser7VariantC2ERKS0_ @ 3383 NONAME
	_ZN18QDeclarativeParser7VariantC2Eb @ 3384 NONAME
	_ZN18QDeclarativeParser7VariantC2EdRK7QString @ 3385 NONAME
	_ZN18QDeclarativeParser7VariantC2Ev @ 3386 NONAME
	_ZN18QDeclarativeParser7VariantaSERKS0_ @ 3387 NONAME
	_ZNK18QDeclarativeParser7Variant12asStringListEv @ 3388 NONAME
	_ZNK18QDeclarativeParser7Variant12isStringListEv @ 3389 NONAME
	_ZNK18QDeclarativeParser7Variant4typeEv @ 3390 NONAME
	_ZNK18QDeclarativeParser7Variant5asASTEv @ 3391 NONAME
	_ZNK18QDeclarativeParser7Variant8asNumberEv @ 3392 NONAME
	_ZNK18QDeclarativeParser7Variant8asScriptEv @ 3393 NONAME
	_ZNK18QDeclarativeParser7Variant8asStringEv @ 3394 NONAME
	_ZNK18QDeclarativeParser7Variant9asBooleanEv @ 3395 NONAME
	_ZN16QDeclarativeDrag11resetTargetEv @ 3396 NONAME
	_ZN16QDeclarativeText11setWrapModeENS_8WrapModeE @ 3397 NONAME
	_ZN16QDeclarativeText15wrapModeChangedEv @ 3398 NONAME
	_ZN18QDeclarativeActionC1EP7QObjectRK7QStringP19QDeclarativeContextRK8QVariant @ 3399 NONAME
	_ZN18QDeclarativeActionC2EP7QObjectRK7QStringP19QDeclarativeContextRK8QVariant @ 3400 NONAME
	_ZN18QDeclarativeEngine12importPluginERK7QStringS2_ @ 3401 NONAME ABSENT
	_ZN18QDeclarativeEngine13addPluginPathERK7QString @ 3402 NONAME
	_ZN18QDeclarativeEngine17setPluginPathListERK11QStringList @ 3403 NONAME
	_ZN20QDeclarativeCompiler2trEPKc @ 3404 NONAME ABSENT
	_ZN20QDeclarativeGridView24setHighlightMoveDurationEi @ 3405 NONAME
	_ZN20QDeclarativeGridView28highlightMoveDurationChangedEv @ 3406 NONAME
	_ZN20QDeclarativeListView24setHighlightMoveDurationEi @ 3407 NONAME
	_ZN20QDeclarativeListView26setHighlightResizeDurationEi @ 3408 NONAME
	_ZN20QDeclarativeListView28highlightMoveDurationChangedEv @ 3409 NONAME
	_ZN20QDeclarativeListView30highlightResizeDurationChangedEv @ 3410 NONAME
	_ZN20QDeclarativePathView24setHighlightMoveDurationEi @ 3411 NONAME
	_ZN20QDeclarativePathView28highlightMoveDurationChangedEv @ 3412 NONAME
	_ZN20QDeclarativeTextEdit11setWrapModeENS_8WrapModeE @ 3413 NONAME
	_ZN20QDeclarativeTextEdit15wrapModeChangedEv @ 3414 NONAME
	_ZN21QDeclarativeTextInput11xToPositionEi @ 3415 NONAME ABSENT
	_ZN21QDeclarativeTextInput13setAutoScrollEb @ 3416 NONAME
	_ZN21QDeclarativeTextInput14mouseMoveEventEP24QGraphicsSceneMouseEvent @ 3417 NONAME
	_ZN21QDeclarativeTextInput17autoScrollChangedEb @ 3418 NONAME
	_ZN21QDeclarativeTextInput18displayTextChangedERK7QString @ 3419 NONAME
	_ZN21QDeclarativeTextInput19moveCursorSelectionEi @ 3420 NONAME
	_ZN21QDeclarativeTextInput20setPasswordCharacterERK7QString @ 3421 NONAME
	_ZN21QDeclarativeTextInput24passwordCharacterChangedEv @ 3422 NONAME
	_ZN24QDeclarativeSpringFollow5setToEf @ 3423 NONAME
	_ZN25QDeclarativeAnimatedImage17sourceSizeChangedEv @ 3424 NONAME
	_ZN26QDeclarativeSmoothedFollow10setEnabledEb @ 3425 NONAME
	_ZN26QDeclarativeSmoothedFollow11qt_metacallEN11QMetaObject4CallEiPPv @ 3426 NONAME
	_ZN26QDeclarativeSmoothedFollow11qt_metacastEPKc @ 3427 NONAME
	_ZN26QDeclarativeSmoothedFollow11setDurationEi @ 3428 NONAME
	_ZN26QDeclarativeSmoothedFollow11setVelocityEf @ 3429 NONAME
	_ZN26QDeclarativeSmoothedFollow14enabledChangedEv @ 3430 NONAME
	_ZN26QDeclarativeSmoothedFollow15durationChangedEv @ 3431 NONAME
	_ZN26QDeclarativeSmoothedFollow15velocityChangedEv @ 3432 NONAME
	_ZN26QDeclarativeSmoothedFollow16setReversingModeENS_13ReversingModeE @ 3433 NONAME
	_ZN26QDeclarativeSmoothedFollow16staticMetaObjectE @ 3434 NONAME DATA 16
	_ZN26QDeclarativeSmoothedFollow19getStaticMetaObjectEv @ 3435 NONAME
	_ZN26QDeclarativeSmoothedFollow20reversingModeChangedEv @ 3436 NONAME
	_ZN26QDeclarativeSmoothedFollow20setMaximumEasingTimeEi @ 3437 NONAME
	_ZN26QDeclarativeSmoothedFollow24maximumEasingTimeChangedEv @ 3438 NONAME
	_ZN26QDeclarativeSmoothedFollow5setToEf @ 3439 NONAME
	_ZN26QDeclarativeSmoothedFollow9setTargetERK20QDeclarativeProperty @ 3440 NONAME
	_ZN26QDeclarativeSmoothedFollowC1EP7QObject @ 3441 NONAME
	_ZN26QDeclarativeSmoothedFollowC2EP7QObject @ 3442 NONAME
	_ZN26QDeclarativeSmoothedFollowD0Ev @ 3443 NONAME
	_ZN26QDeclarativeSmoothedFollowD1Ev @ 3444 NONAME
	_ZN26QDeclarativeSmoothedFollowD2Ev @ 3445 NONAME
	_ZNK16QDeclarativeText8wrapModeEv @ 3446 NONAME
	_ZNK16QDeclarativeType10createSizeEv @ 3447 NONAME
	_ZNK16QDeclarativeType14createFunctionEv @ 3448 NONAME
	_ZNK16QDeclarativeType14isExtendedTypeEv @ 3449 NONAME
	_ZNK18QDeclarativeEngine14pluginPathListEv @ 3450 NONAME
	_ZNK20QDeclarativeGridView21highlightMoveDurationEv @ 3451 NONAME
	_ZNK20QDeclarativeListView21highlightMoveDurationEv @ 3452 NONAME
	_ZNK20QDeclarativeListView23highlightResizeDurationEv @ 3453 NONAME
	_ZNK20QDeclarativePathView21highlightMoveDurationEv @ 3454 NONAME
	_ZNK20QDeclarativeTextEdit8wrapModeEv @ 3455 NONAME
	_ZNK21QDeclarativeTextInput10autoScrollEv @ 3456 NONAME
	_ZNK21QDeclarativeTextInput11displayTextEv @ 3457 NONAME
	_ZNK21QDeclarativeTextInput17passwordCharacterEv @ 3458 NONAME
	_ZNK24QDeclarativeSpringFollow2toEv @ 3459 NONAME
	_ZNK26QDeclarativeSmoothedFollow10metaObjectEv @ 3460 NONAME
	_ZNK26QDeclarativeSmoothedFollow13reversingModeEv @ 3461 NONAME
	_ZNK26QDeclarativeSmoothedFollow17maximumEasingTimeEv @ 3462 NONAME
	_ZNK26QDeclarativeSmoothedFollow2toEv @ 3463 NONAME
	_ZNK26QDeclarativeSmoothedFollow7enabledEv @ 3464 NONAME
	_ZNK26QDeclarativeSmoothedFollow8durationEv @ 3465 NONAME
	_ZNK26QDeclarativeSmoothedFollow8velocityEv @ 3466 NONAME
	_ZTI26QDeclarativeSmoothedFollow @ 3467 NONAME
	_ZTV26QDeclarativeSmoothedFollow @ 3468 NONAME
	_ZThn8_N21QDeclarativeTextInput14mouseMoveEventEP24QGraphicsSceneMouseEvent @ 3469 NONAME
	_ZThn8_N26QDeclarativeSmoothedFollow9setTargetERK20QDeclarativeProperty @ 3470 NONAME
	_ZThn8_N26QDeclarativeSmoothedFollowD0Ev @ 3471 NONAME
	_ZThn8_N26QDeclarativeSmoothedFollowD1Ev @ 3472 NONAME
	_ZN16QDeclarativeGrid11flowChangedEv @ 3473 NONAME
	_ZN16QDeclarativeGrid7setFlowENS_4FlowE @ 3474 NONAME
	_ZN16QDeclarativeText19reloadWithResourcesEv @ 3475 NONAME
	_ZN18QDeclarativeEngine12importPluginERK7QStringS2_PS0_ @ 3476 NONAME
	_ZN19QDeclarativeAnchors11setCenterInEP15QGraphicsObject @ 3477 NONAME
	_ZN19QDeclarativeAnchors7setFillEP15QGraphicsObject @ 3478 NONAME
	_ZN19QDeclarativeAnchorsC1EP15QGraphicsObjectP7QObject @ 3479 NONAME
	_ZN19QDeclarativeAnchorsC2EP15QGraphicsObjectP7QObject @ 3480 NONAME
	_ZN19QDeclarativePrivate30qdeclarativeelement_destructorEP7QObject @ 3481 NONAME
	_ZN23QDeclarativePixmapCache3getERK4QUrlP7QPixmapP7QStringP5QSizebii @ 3482 NONAME
	_ZN27QDeclarativePropertyPrivate16findSignalByNameEPK11QMetaObjectRK10QByteArray @ 3483 NONAME
	_ZNK16QDeclarativeGrid4flowEv @ 3484 NONAME
	_ZNK16QDeclarativeText16resourcesLoadingEv @ 3485 NONAME
	_ZNK19QDeclarativeContext7isValidEv @ 3486 NONAME
	_ZNK23QDeclarativePixmapReply11errorStringEv @ 3487 NONAME
	_ZTI26QDeclarativeAnimationGroup @ 3488 NONAME ABSENT
	_ZTI26QDeclarativeTimeLineObject @ 3489 NONAME ABSENT
	_ZTI29QDeclarativeAbstractAnimation @ 3490 NONAME ABSENT
	_ZTI29QDeclarativePropertyAnimation @ 3491 NONAME ABSENT
	_ZTI30QDeclarativeAbstractExpression @ 3492 NONAME ABSENT
	_ZTIN14QDeclarativeJS3AST14ExpressionNodeE @ 3493 NONAME ABSENT
	_ZTIN14QDeclarativeJS3AST14UiObjectMemberE @ 3494 NONAME ABSENT
	_ZTIN14QDeclarativeJS3AST18FunctionExpressionE @ 3495 NONAME ABSENT
	_ZTIN14QDeclarativeJS3AST4NodeE @ 3496 NONAME ABSENT
	_ZTIN14QDeclarativeJS3AST9StatementE @ 3497 NONAME ABSENT
	_Z7qmlInfoPK7QObjectRK17QDeclarativeError @ 3498 NONAME
	_Z7qmlInfoPK7QObjectRK5QListI17QDeclarativeErrorE @ 3499 NONAME
	_ZN16QDeclarativeDrag13activeChangedEv @ 3500 NONAME
	_ZN16QDeclarativeDrag9setActiveEb @ 3501 NONAME
	_ZN16QDeclarativeInfoC1EP23QDeclarativeInfoPrivate @ 3502 NONAME
	_ZN16QDeclarativeInfoC1ERKS_ @ 3503 NONAME
	_ZN16QDeclarativeInfoC2EP23QDeclarativeInfoPrivate @ 3504 NONAME
	_ZN16QDeclarativeInfoC2ERKS_ @ 3505 NONAME
	_ZN16QDeclarativeItem10forceFocusEv @ 3506 NONAME
	_ZN16QDeclarativeView11eventFilterEP7QObjectP6QEvent @ 3507 NONAME
	_ZN18QDeclarativeEngine32setOutputWarningsToStandardErrorEb @ 3508 NONAME
	_ZN18QDeclarativeEngine8warningsERK5QListI17QDeclarativeErrorE @ 3509 NONAME
	_ZN18QDeclarativeLoader20resetSourceComponentEv @ 3510 NONAME
	_ZN20QDeclarativeFlipable15retransformBackEv @ 3511 NONAME
	_ZN20QDeclarativeGridView11animStoppedEv @ 3512 NONAME
	_ZN21QDeclarativeFlickable17setBoundsBehaviorENS_14BoundsBehaviorE @ 3513 NONAME
	_ZN21QDeclarativeFlickable21boundsBehaviorChangedEv @ 3514 NONAME
	_ZN21QDeclarativeMouseArea15geometryChangedERK6QRectFS2_ @ 3515 NONAME
	_ZN21QDeclarativeMouseArea20mousePositionChangedEP22QDeclarativeMouseEvent @ 3516 NONAME
	_ZN22QDeclarativeExpression8evaluateEPb @ 3517 NONAME
	_ZN23QDeclarativeItemPrivate16transformChangedEv @ 3518 NONAME
	_ZN24QDeclarativeCustomParser5errorERK7QString @ 3519 NONAME
	_ZN24QDeclarativeDebugService18hasDebuggingClientEv @ 3520 NONAME
	_ZN24QDeclarativeParentChange7executeEN23QDeclarativeActionEvent6ReasonE @ 3521 NONAME
	_ZN24QDeclarativeParentChange7reverseEN23QDeclarativeActionEvent6ReasonE @ 3522 NONAME
	_ZN25QDeclarativeAnchorChanges7executeEN23QDeclarativeActionEvent6ReasonE @ 3523 NONAME
	_ZN25QDeclarativeAnchorChanges7reverseEN23QDeclarativeActionEvent6ReasonE @ 3524 NONAME
	_ZN27QDeclarativeVisualDataModel12setRootIndexERK8QVariant @ 3525 NONAME
	_ZN29QDeclarativeStateChangeScript7executeEN23QDeclarativeActionEvent6ReasonE @ 3526 NONAME
	_ZNK16QDeclarativeDrag6activeEv @ 3527 NONAME
	_ZNK16QDeclarativeType16noCreationReasonEv @ 3528 NONAME
	_ZNK18QDeclarativeEngine29outputWarningsToStandardErrorEv @ 3529 NONAME
	_ZNK21QDeclarativeFlickable14boundsBehaviorEv @ 3530 NONAME
	_ZNK27QDeclarativeVisualDataModel10modelIndexEi @ 3531 NONAME
	_ZNK27QDeclarativeVisualDataModel16parentModelIndexEv @ 3532 NONAME
	_ZThn8_N24QDeclarativeParentChange7executeEN23QDeclarativeActionEvent6ReasonE @ 3533 NONAME
	_ZThn8_N24QDeclarativeParentChange7reverseEN23QDeclarativeActionEvent6ReasonE @ 3534 NONAME
	_ZThn8_N25QDeclarativeAnchorChanges7executeEN23QDeclarativeActionEvent6ReasonE @ 3535 NONAME
	_ZThn8_N25QDeclarativeAnchorChanges7reverseEN23QDeclarativeActionEvent6ReasonE @ 3536 NONAME
	_ZThn8_N29QDeclarativeStateChangeScript7executeEN23QDeclarativeActionEvent6ReasonE @ 3537 NONAME
	_ZN15QDeclarativeRow24reportConflictingAnchorsEv @ 3538 NONAME
	_ZN16QDeclarativeBind10classBeginEv @ 3539 NONAME
	_ZN16QDeclarativeFlow24reportConflictingAnchorsEv @ 3540 NONAME
	_ZN16QDeclarativeGrid24reportConflictingAnchorsEv @ 3541 NONAME
	_ZN16QDeclarativePath10classBeginEv @ 3542 NONAME
	_ZN18QDeclarativeColumn24reportConflictingAnchorsEv @ 3543 NONAME
	_ZN20QDeclarativeBehavior18componentFinalizedEv @ 3544 NONAME
	_ZN20QDeclarativeCompiler24buildPropertyInNamespaceEP29QDeclarativeImportedNamespacePN18QDeclarativeParser8PropertyEPNS2_6ObjectERKNS_14BindingContextE @ 3545 NONAME
	_ZN21QDeclarativeComponent12createObjectEP7QObject @ 3546 NONAME
	_ZN21QDeclarativeMouseArea10itemChangeEN13QGraphicsItem18GraphicsItemChangeERK8QVariant @ 3547 NONAME
	_ZN21QDeclarativeMouseArea15setHoverEnabledEb @ 3548 NONAME
	_ZN21QDeclarativeMouseArea19hoverEnabledChangedEv @ 3549 NONAME
	_ZN21QDeclarativeMouseArea8canceledEv @ 3550 NONAME
	_ZN23QDeclarativeConnections10classBeginEv @ 3551 NONAME
	_ZN23QDeclarativeConnections23setIgnoreUnknownSignalsEb @ 3552 NONAME
	_ZN23QDeclarativeItemPrivate11transitionsEv @ 3553 NONAME
	_ZN23QDeclarativeItemPrivate4dataEv @ 3554 NONAME
	_ZN23QDeclarativeItemPrivate7_statesEv @ 3555 NONAME
	_ZN23QDeclarativeItemPrivate8setStateERK7QString @ 3556 NONAME
	_ZN23QDeclarativeItemPrivate9resourcesEv @ 3557 NONAME
	_ZN23QDeclarativePaintedItem10itemChangeEN13QGraphicsItem18GraphicsItemChangeERK8QVariant @ 3558 NONAME
	_ZN23QDeclarativePaintedItem15geometryChangedERK6QRectFS2_ @ 3559 NONAME
	_ZN24QDeclarativeWorkerScript10classBeginEv @ 3560 NONAME
	_ZN24QDeclarativeWorkerScript6engineEv @ 3561 NONAME
	_ZNK21QDeclarativeMouseArea12hoverEnabledEv @ 3562 NONAME
	_ZNK23QDeclarativeConnections20ignoreUnknownSignalsEv @ 3563 NONAME
	_ZNK23QDeclarativeItemPrivate14verticalCenterEv @ 3564 NONAME
	_ZNK23QDeclarativeItemPrivate16horizontalCenterEv @ 3565 NONAME
	_ZNK23QDeclarativeItemPrivate3topEv @ 3566 NONAME
	_ZNK23QDeclarativeItemPrivate4leftEv @ 3567 NONAME
	_ZNK23QDeclarativeItemPrivate5rightEv @ 3568 NONAME
	_ZNK23QDeclarativeItemPrivate5stateEv @ 3569 NONAME
	_ZNK23QDeclarativeItemPrivate6bottomEv @ 3570 NONAME
	_ZNK23QDeclarativeItemPrivate8baselineEv @ 3571 NONAME
	_ZNK27QDeclarativeVisualDataModel15completePendingEv @ 3572 NONAME
	_ZNK27QDeclarativeVisualItemModel15completePendingEv @ 3573 NONAME
	_ZThn8_N16QDeclarativeBind10classBeginEv @ 3574 NONAME
	_ZThn8_N16QDeclarativePath10classBeginEv @ 3575 NONAME
	_ZThn8_N21QDeclarativeMouseArea10itemChangeEN13QGraphicsItem18GraphicsItemChangeERK8QVariant @ 3576 NONAME
	_ZThn8_N23QDeclarativeConnections10classBeginEv @ 3577 NONAME
	_ZThn8_N23QDeclarativePaintedItem10itemChangeEN13QGraphicsItem18GraphicsItemChangeERK8QVariant @ 3578 NONAME
	_ZThn8_N24QDeclarativeWorkerScript10classBeginEv @ 3579 NONAME
	_ZN16QDeclarativeItem18keyPressPreHandlerEP9QKeyEvent @ 3580 NONAME
	_ZN16QDeclarativeItem20keyReleasePreHandlerEP9QKeyEvent @ 3581 NONAME
	_ZN16QDeclarativeItem21inputMethodPreHandlerEP17QInputMethodEvent @ 3582 NONAME
	_ZN18QDeclarativeLoader17componentCompleteEv @ 3583 NONAME
	_ZN18QDeclarativeLoader6loadedEv @ 3584 NONAME
	_ZN20QDeclarativePathView21decrementCurrentIndexEv @ 3585 NONAME
	_ZN20QDeclarativePathView21incrementCurrentIndexEv @ 3586 NONAME
	_ZN21QDeclarativeFlickable17setFlickDirectionENS_18FlickableDirectionE @ 3587 NONAME
	_ZN21QDeclarativeFlickable21setFlickableDirectionENS_18FlickableDirectionE @ 3588 NONAME
	_ZN21QDeclarativeFlickable23movingVerticallyChangedEv @ 3589 NONAME
	_ZN21QDeclarativeFlickable25flickableDirectionChangedEv @ 3590 NONAME
	_ZN21QDeclarativeFlickable25flickingVerticallyChangedEv @ 3591 NONAME
	_ZN21QDeclarativeFlickable25movingHorizontallyChangedEv @ 3592 NONAME
	_ZN21QDeclarativeFlickable27flickingHorizontallyChangedEv @ 3593 NONAME
	_ZN27QDeclarativeVisualDataModelC1EP19QDeclarativeContextP7QObject @ 3594 NONAME
	_ZN27QDeclarativeVisualDataModelC2EP19QDeclarativeContextP7QObject @ 3595 NONAME
	_ZN27QDeclarativeVisualItemModelC1EP7QObject @ 3596 NONAME
	_ZN27QDeclarativeVisualItemModelC2EP7QObject @ 3597 NONAME
	_ZNK21QDeclarativeFlickable18flickableDirectionEv @ 3598 NONAME
	_ZNK21QDeclarativeFlickable18isMovingVerticallyEv @ 3599 NONAME
	_ZNK21QDeclarativeFlickable20isFlickingVerticallyEv @ 3600 NONAME
	_ZNK21QDeclarativeFlickable20isMovingHorizontallyEv @ 3601 NONAME
	_ZNK21QDeclarativeFlickable22isFlickingHorizontallyEv @ 3602 NONAME
	_ZThn16_N18QDeclarativeLoader17componentCompleteEv @ 3603 NONAME
	_ZN16QDeclarativeText18paintedSizeChangedEv @ 3604 NONAME
	_ZN20QDeclarativePathView5eventEP6QEvent @ 3605 NONAME
	_ZN20QDeclarativeTextEdit12focusInEventEP11QFocusEvent @ 3606 NONAME
	_ZN20QDeclarativeTextEdit13focusOutEventEP11QFocusEvent @ 3607 NONAME ABSENT
	_ZN20QDeclarativeTextEdit16setSelectByMouseEb @ 3608 NONAME
	_ZN20QDeclarativeTextEdit18paintedSizeChangedEv @ 3609 NONAME
	_ZN20QDeclarativeTextEdit20selectByMouseChangedEb @ 3610 NONAME
	_ZN20QDeclarativeTextEdit22cursorRectangleChangedEv @ 3611 NONAME
	_ZN20QDeclarativeTextEdit22openSoftwareInputPanelEv @ 3612 NONAME
	_ZN20QDeclarativeTextEdit23closeSoftwareInputPanelEv @ 3613 NONAME
	_ZN20QDeclarativeTextEdit24setShowInputPanelOnFocusEb @ 3614 NONAME ABSENT
	_ZN20QDeclarativeTextEdit28showInputPanelOnFocusChangedEb @ 3615 NONAME ABSENT
	_ZN21QDeclarativeTextInput12focusInEventEP11QFocusEvent @ 3616 NONAME
	_ZN21QDeclarativeTextInput13focusOutEventEP11QFocusEvent @ 3617 NONAME ABSENT
	_ZN21QDeclarativeTextInput16setSelectByMouseEb @ 3618 NONAME
	_ZN21QDeclarativeTextInput20selectByMouseChangedEb @ 3619 NONAME
	_ZN21QDeclarativeTextInput22openSoftwareInputPanelEv @ 3620 NONAME
	_ZN21QDeclarativeTextInput23closeSoftwareInputPanelEv @ 3621 NONAME
	_ZN21QDeclarativeTextInput24setShowInputPanelOnFocusEb @ 3622 NONAME ABSENT
	_ZN21QDeclarativeTextInput28showInputPanelOnFocusChangedEb @ 3623 NONAME ABSENT
	_ZN22QDeclarativeExpressionC1EP19QDeclarativeContextP7QObjectRK7QStringS3_ @ 3624 NONAME
	_ZN22QDeclarativeExpressionC1EP23QDeclarativeContextDataP7QObjectRK7QString @ 3625 NONAME
	_ZN22QDeclarativeExpressionC1EP23QDeclarativeContextDataP7QObjectRK7QStringR29QDeclarativeExpressionPrivate @ 3626 NONAME
	_ZN22QDeclarativeExpressionC2EP19QDeclarativeContextP7QObjectRK7QStringS3_ @ 3627 NONAME
	_ZN22QDeclarativeExpressionC2EP23QDeclarativeContextDataP7QObjectRK7QString @ 3628 NONAME
	_ZN22QDeclarativeExpressionC2EP23QDeclarativeContextDataP7QObjectRK7QStringR29QDeclarativeExpressionPrivate @ 3629 NONAME
	_ZN23QDeclarativeItemPrivate17setConsistentTimeEx @ 3630 NONAME
	_ZN23QDeclarativeItemPrivate5startER13QElapsedTimer @ 3631 NONAME
	_ZN23QDeclarativeItemPrivate7elapsedER13QElapsedTimer @ 3632 NONAME
	_ZN23QDeclarativeItemPrivate7restartER13QElapsedTimer @ 3633 NONAME
	_ZN24QDeclarativeParentChange11setRotationE24QDeclarativeScriptString @ 3634 NONAME
	_ZN24QDeclarativeParentChange4setXE24QDeclarativeScriptString @ 3635 NONAME
	_ZN24QDeclarativeParentChange4setYE24QDeclarativeScriptString @ 3636 NONAME
	_ZN24QDeclarativeParentChange8setScaleE24QDeclarativeScriptString @ 3637 NONAME
	_ZN24QDeclarativeParentChange8setWidthE24QDeclarativeScriptString @ 3638 NONAME
	_ZN24QDeclarativeParentChange9setHeightE24QDeclarativeScriptString @ 3639 NONAME
	_ZN24QDeclarativeXmlListModel10queryErrorEPvRK7QString @ 3640 NONAME
	_ZNK16QDeclarativeText12paintedWidthEv @ 3641 NONAME
	_ZNK16QDeclarativeText13paintedHeightEv @ 3642 NONAME
	_ZNK20QDeclarativeTextEdit12paintedWidthEv @ 3643 NONAME
	_ZNK20QDeclarativeTextEdit13paintedHeightEv @ 3644 NONAME
	_ZNK20QDeclarativeTextEdit13selectByMouseEv @ 3645 NONAME
	_ZNK20QDeclarativeTextEdit15cursorRectangleEv @ 3646 NONAME
	_ZNK20QDeclarativeTextEdit21showInputPanelOnFocusEv @ 3647 NONAME ABSENT
	_ZNK21QDeclarativeComponent11errorStringEv @ 3648 NONAME
	_ZNK21QDeclarativeTextInput13selectByMouseEv @ 3649 NONAME
	_ZNK21QDeclarativeTextInput21showInputPanelOnFocusEv @ 3650 NONAME ABSENT
	_ZNK23QDeclarativePaintedItem12boundingRectEv @ 3651 NONAME
	_ZNK24QDeclarativeXmlListModel11errorStringEv @ 3652 NONAME
	_ZNK24QDeclarativeXmlListModel3getEi @ 3653 NONAME
	_ZThn8_N20QDeclarativeTextEdit12focusInEventEP11QFocusEvent @ 3654 NONAME
	_ZThn8_N20QDeclarativeTextEdit13focusOutEventEP11QFocusEvent @ 3655 NONAME ABSENT
	_ZThn8_N21QDeclarativeTextInput12focusInEventEP11QFocusEvent @ 3656 NONAME
	_ZThn8_N21QDeclarativeTextInput13focusOutEventEP11QFocusEvent @ 3657 NONAME ABSENT
	_ZThn8_NK23QDeclarativePaintedItem12boundingRectEv @ 3658 NONAME
	_ZN20QDeclarativeTextEdit10selectWordEv @ 3659 NONAME
	_ZN20QDeclarativeTextEdit19moveCursorSelectionEi @ 3660 NONAME
	_ZN20QDeclarativeTextEdit3cutEv @ 3661 NONAME
	_ZN20QDeclarativeTextEdit4copyEv @ 3662 NONAME
	_ZN20QDeclarativeTextEdit5pasteEv @ 3663 NONAME
	_ZN20QDeclarativeTextEdit6selectEii @ 3664 NONAME
	_ZN21QDeclarativeTextInput10selectWordEv @ 3665 NONAME
	_ZN21QDeclarativeTextInput21mouseDoubleClickEventEP24QGraphicsSceneMouseEvent @ 3666 NONAME
	_ZN21QDeclarativeTextInput6selectEii @ 3667 NONAME
	_ZNK20QDeclarativeTextEdit10positionAtEii @ 3668 NONAME
	_ZNK20QDeclarativeTextEdit19positionToRectangleEi @ 3669 NONAME
	_ZNK21QDeclarativeTextInput10positionAtEi @ 3670 NONAME
	_ZNK21QDeclarativeTextInput15cursorRectangleEv @ 3671 NONAME
	_ZNK21QDeclarativeTextInput19positionToRectangleEi @ 3672 NONAME
	_ZThn8_N21QDeclarativeTextInput21mouseDoubleClickEventEP24QGraphicsSceneMouseEvent @ 3673 NONAME
	_ZN20QDeclarativeGridView13footerChangedEv @ 3674 NONAME
	_ZN20QDeclarativeGridView13headerChangedEv @ 3675 NONAME
	_ZN20QDeclarativeGridView9setFooterEP21QDeclarativeComponent @ 3676 NONAME
	_ZN20QDeclarativeGridView9setHeaderEP21QDeclarativeComponent @ 3677 NONAME
	_ZNK16QDeclarativeItem7childAtEff @ 3678 NONAME
	_ZNK16QDeclarativeView11initialSizeEv @ 3679 NONAME
	_ZNK17QDeclarativeState7isNamedEv @ 3680 NONAME
	_ZNK20QDeclarativeGridView6footerEv @ 3681 NONAME
	_ZNK20QDeclarativeGridView6headerEv @ 3682 NONAME
	_ZN19QDeclarativePrivate26registerAutoParentFunctionEPFNS_16AutoParentResultEP7QObjectS2_E @ 3683 NONAME
	_ZN20QDeclarativeMetaType15parentFunctionsEv @ 3684 NONAME
	_ZN21QDeclarativeTextInput16inputMethodEventEP17QInputMethodEvent @ 3685 NONAME
	_ZN23QDeclarativeBorderImage8doUpdateEv @ 3686 NONAME
	_ZThn8_N21QDeclarativeTextInput16inputMethodEventEP17QInputMethodEvent @ 3687 NONAME

