EXPORTS
	_ZN12QMediaObject11qt_metacallEN11QMetaObject4CallEiPPv @ 1 NONAME
	_ZN12QMediaObject11qt_metacastEPKc @ 2 NONAME
	_ZN12QMediaObject11setMetaDataEN15QtMediaServices8MetaDataERK8QVariant @ 3 NONAME
	_ZN12QMediaObject13setupMetaDataEv @ 4 NONAME
	_ZN12QMediaObject15metaDataChangedEv @ 5 NONAME
	_ZN12QMediaObject16addPropertyWatchERK10QByteArray @ 6 NONAME
	_ZN12QMediaObject16staticMetaObjectE @ 7 NONAME DATA 16
	_ZN12QMediaObject17setNotifyIntervalEi @ 8 NONAME
	_ZN12QMediaObject19availabilityChangedEb @ 9 NONAME
	_ZN12QMediaObject19getStaticMetaObjectEv @ 10 NONAME
	_ZN12QMediaObject19removePropertyWatchERK10QByteArray @ 11 NONAME
	_ZN12QMediaObject19setExtendedMetaDataERK7QStringRK8QVariant @ 12 NONAME
	_ZN12QMediaObject21notifyIntervalChangedEi @ 13 NONAME
	_ZN12QMediaObject23metaDataWritableChangedEb @ 14 NONAME
	_ZN12QMediaObject24metaDataAvailableChangedEb @ 15 NONAME
	_ZN12QMediaObject4bindEP7QObject @ 16 NONAME
	_ZN12QMediaObject6unbindEP7QObject @ 17 NONAME
	_ZN12QMediaObjectC1EP7QObjectP13QMediaService @ 18 NONAME
	_ZN12QMediaObjectC1ER19QMediaObjectPrivateP7QObjectP13QMediaService @ 19 NONAME
	_ZN12QMediaObjectC2EP7QObjectP13QMediaService @ 20 NONAME
	_ZN12QMediaObjectC2ER19QMediaObjectPrivateP7QObjectP13QMediaService @ 21 NONAME
	_ZN12QMediaObjectD0Ev @ 22 NONAME
	_ZN12QMediaObjectD1Ev @ 23 NONAME
	_ZN12QMediaObjectD2Ev @ 24 NONAME
	_ZN12QMediaPlayer10hasSupportERK7QStringRK11QStringList6QFlagsINS_4FlagEE @ 25 NONAME
	_ZN12QMediaPlayer11qt_metacallEN11QMetaObject4CallEiPPv @ 26 NONAME
	_ZN12QMediaPlayer11qt_metacastEPKc @ 27 NONAME
	_ZN12QMediaPlayer11setPositionEx @ 28 NONAME
	_ZN12QMediaPlayer12mediaChangedERK13QMediaContent @ 29 NONAME
	_ZN12QMediaPlayer12mutedChangedEb @ 30 NONAME
	_ZN12QMediaPlayer12stateChangedENS_5StateE @ 31 NONAME
	_ZN12QMediaPlayer13volumeChangedEi @ 32 NONAME
	_ZN12QMediaPlayer15durationChangedEx @ 33 NONAME
	_ZN12QMediaPlayer15positionChangedEx @ 34 NONAME
	_ZN12QMediaPlayer15seekableChangedEb @ 35 NONAME
	_ZN12QMediaPlayer15setPlaybackRateEf @ 36 NONAME
	_ZN12QMediaPlayer16staticMetaObjectE @ 37 NONAME DATA 16
	_ZN12QMediaPlayer18mediaStatusChangedENS_11MediaStatusE @ 38 NONAME
	_ZN12QMediaPlayer18supportedMimeTypesE6QFlagsINS_4FlagEE @ 39 NONAME
	_ZN12QMediaPlayer19bufferStatusChangedEi @ 40 NONAME
	_ZN12QMediaPlayer19getStaticMetaObjectEv @ 41 NONAME
	_ZN12QMediaPlayer19playbackRateChangedEf @ 42 NONAME
	_ZN12QMediaPlayer21audioAvailableChangedEb @ 43 NONAME
	_ZN12QMediaPlayer21videoAvailableChangedEb @ 44 NONAME
	_ZN12QMediaPlayer4bindEP7QObject @ 45 NONAME
	_ZN12QMediaPlayer4playEv @ 46 NONAME
	_ZN12QMediaPlayer4stopEv @ 47 NONAME
	_ZN12QMediaPlayer5errorENS_5ErrorE @ 48 NONAME
	_ZN12QMediaPlayer5pauseEv @ 49 NONAME
	_ZN12QMediaPlayer6unbindEP7QObject @ 50 NONAME
	_ZN12QMediaPlayer8setMediaERK13QMediaContentP9QIODevice @ 51 NONAME
	_ZN12QMediaPlayer8setMutedEb @ 52 NONAME
	_ZN12QMediaPlayer9setVolumeEi @ 53 NONAME
	_ZN12QMediaPlayerC1EP7QObject6QFlagsINS_4FlagEEP21QMediaServiceProvider @ 54 NONAME
	_ZN12QMediaPlayerC2EP7QObject6QFlagsINS_4FlagEEP21QMediaServiceProvider @ 55 NONAME
	_ZN12QMediaPlayerD0Ev @ 56 NONAME
	_ZN12QMediaPlayerD1Ev @ 57 NONAME
	_ZN12QMediaPlayerD2Ev @ 58 NONAME
	_ZN12QSoundEffect11qt_metacallEN11QMetaObject4CallEiPPv @ 59 NONAME
	_ZN12QSoundEffect11qt_metacastEPKc @ 60 NONAME
	_ZN12QSoundEffect12loopsChangedEv @ 61 NONAME
	_ZN12QSoundEffect12mutedChangedEv @ 62 NONAME
	_ZN12QSoundEffect13sourceChangedEv @ 63 NONAME
	_ZN12QSoundEffect13volumeChangedEv @ 64 NONAME
	_ZN12QSoundEffect16staticMetaObjectE @ 65 NONAME DATA 16
	_ZN12QSoundEffect19getStaticMetaObjectEv @ 66 NONAME
	_ZN12QSoundEffect4playEv @ 67 NONAME
	_ZN12QSoundEffect8setLoopsEi @ 68 NONAME
	_ZN12QSoundEffect8setMutedEb @ 69 NONAME
	_ZN12QSoundEffect9setSourceERK4QUrl @ 70 NONAME
	_ZN12QSoundEffect9setVolumeEi @ 71 NONAME
	_ZN12QSoundEffectC1EP7QObject @ 72 NONAME
	_ZN12QSoundEffectC2EP7QObject @ 73 NONAME
	_ZN12QSoundEffectD0Ev @ 74 NONAME
	_ZN12QSoundEffectD1Ev @ 75 NONAME
	_ZN12QSoundEffectD2Ev @ 76 NONAME
	_ZN12QVideoWidget10hueChangedEi @ 77 NONAME
	_ZN12QVideoWidget10paintEventEP11QPaintEvent @ 78 NONAME
	_ZN12QVideoWidget11qt_metacallEN11QMetaObject4CallEiPPv @ 79 NONAME
	_ZN12QVideoWidget11qt_metacastEPKc @ 80 NONAME
	_ZN12QVideoWidget11resizeEventEP12QResizeEvent @ 81 NONAME
	_ZN12QVideoWidget11setContrastEi @ 82 NONAME
	_ZN12QVideoWidget13setBrightnessEi @ 83 NONAME
	_ZN12QVideoWidget13setFullScreenEb @ 84 NONAME
	_ZN12QVideoWidget13setSaturationEi @ 85 NONAME
	_ZN12QVideoWidget14setMediaObjectEP12QMediaObject @ 86 NONAME
	_ZN12QVideoWidget15contrastChangedEi @ 87 NONAME
	_ZN12QVideoWidget16staticMetaObjectE @ 88 NONAME DATA 16
	_ZN12QVideoWidget17brightnessChangedEi @ 89 NONAME
	_ZN12QVideoWidget17fullScreenChangedEb @ 90 NONAME
	_ZN12QVideoWidget17saturationChangedEi @ 91 NONAME
	_ZN12QVideoWidget18setAspectRatioModeEN2Qt15AspectRatioModeE @ 92 NONAME
	_ZN12QVideoWidget19getStaticMetaObjectEv @ 93 NONAME
	_ZN12QVideoWidget5eventEP6QEvent @ 94 NONAME
	_ZN12QVideoWidget6setHueEi @ 95 NONAME
	_ZN12QVideoWidget9hideEventEP10QHideEvent @ 96 NONAME
	_ZN12QVideoWidget9moveEventEP10QMoveEvent @ 97 NONAME
	_ZN12QVideoWidget9showEventEP10QShowEvent @ 98 NONAME
	_ZN12QVideoWidgetC1EP7QWidget @ 99 NONAME
	_ZN12QVideoWidgetC2EP7QWidget @ 100 NONAME
	_ZN12QVideoWidgetD0Ev @ 101 NONAME
	_ZN12QVideoWidgetD1Ev @ 102 NONAME
	_ZN12QVideoWidgetD2Ev @ 103 NONAME
	_ZN13QMediaContentC1ERK14QMediaResource @ 104 NONAME
	_ZN13QMediaContentC1ERK15QNetworkRequest @ 105 NONAME
	_ZN13QMediaContentC1ERK4QUrl @ 106 NONAME
	_ZN13QMediaContentC1ERK5QListI14QMediaResourceE @ 107 NONAME
	_ZN13QMediaContentC1ERKS_ @ 108 NONAME
	_ZN13QMediaContentC1Ev @ 109 NONAME
	_ZN13QMediaContentC2ERK14QMediaResource @ 110 NONAME
	_ZN13QMediaContentC2ERK15QNetworkRequest @ 111 NONAME
	_ZN13QMediaContentC2ERK4QUrl @ 112 NONAME
	_ZN13QMediaContentC2ERK5QListI14QMediaResourceE @ 113 NONAME
	_ZN13QMediaContentC2ERKS_ @ 114 NONAME
	_ZN13QMediaContentC2Ev @ 115 NONAME
	_ZN13QMediaContentD1Ev @ 116 NONAME
	_ZN13QMediaContentD2Ev @ 117 NONAME
	_ZN13QMediaContentaSERKS_ @ 118 NONAME
	_ZN13QMediaControl11qt_metacallEN11QMetaObject4CallEiPPv @ 119 NONAME
	_ZN13QMediaControl11qt_metacastEPKc @ 120 NONAME
	_ZN13QMediaControl16staticMetaObjectE @ 121 NONAME DATA 16
	_ZN13QMediaControl19getStaticMetaObjectEv @ 122 NONAME
	_ZN13QMediaControlC1EP7QObject @ 123 NONAME
	_ZN13QMediaControlC1ER20QMediaControlPrivateP7QObject @ 124 NONAME
	_ZN13QMediaControlC2EP7QObject @ 125 NONAME
	_ZN13QMediaControlC2ER20QMediaControlPrivateP7QObject @ 126 NONAME
	_ZN13QMediaControlD0Ev @ 127 NONAME
	_ZN13QMediaControlD1Ev @ 128 NONAME
	_ZN13QMediaControlD2Ev @ 129 NONAME
	_ZN13QMediaService11qt_metacallEN11QMetaObject4CallEiPPv @ 130 NONAME
	_ZN13QMediaService11qt_metacastEPKc @ 131 NONAME
	_ZN13QMediaService16staticMetaObjectE @ 132 NONAME DATA 16
	_ZN13QMediaService19getStaticMetaObjectEv @ 133 NONAME
	_ZN13QMediaServiceC2EP7QObject @ 134 NONAME
	_ZN13QMediaServiceC2ER20QMediaServicePrivateP7QObject @ 135 NONAME
	_ZN13QMediaServiceD0Ev @ 136 NONAME
	_ZN13QMediaServiceD1Ev @ 137 NONAME
	_ZN13QMediaServiceD2Ev @ 138 NONAME
	_ZN14QMediaPlaylist10loadFailedEv @ 139 NONAME
	_ZN14QMediaPlaylist11insertMediaEiRK13QMediaContent @ 140 NONAME
	_ZN14QMediaPlaylist11insertMediaEiRK5QListI13QMediaContentE @ 141 NONAME
	_ZN14QMediaPlaylist11qt_metacallEN11QMetaObject4CallEiPPv @ 142 NONAME
	_ZN14QMediaPlaylist11qt_metacastEPKc @ 143 NONAME
	_ZN14QMediaPlaylist11removeMediaEi @ 144 NONAME
	_ZN14QMediaPlaylist11removeMediaEii @ 145 NONAME
	_ZN14QMediaPlaylist12mediaChangedEii @ 146 NONAME
	_ZN14QMediaPlaylist12mediaRemovedEii @ 147 NONAME
	_ZN14QMediaPlaylist13mediaInsertedEii @ 148 NONAME
	_ZN14QMediaPlaylist14setMediaObjectEP12QMediaObject @ 149 NONAME
	_ZN14QMediaPlaylist15setCurrentIndexEi @ 150 NONAME
	_ZN14QMediaPlaylist15setPlaybackModeENS_12PlaybackModeE @ 151 NONAME
	_ZN14QMediaPlaylist16staticMetaObjectE @ 152 NONAME DATA 16
	_ZN14QMediaPlaylist19currentIndexChangedEi @ 153 NONAME
	_ZN14QMediaPlaylist19currentMediaChangedERK13QMediaContent @ 154 NONAME
	_ZN14QMediaPlaylist19getStaticMetaObjectEv @ 155 NONAME
	_ZN14QMediaPlaylist19playbackModeChangedENS_12PlaybackModeE @ 156 NONAME
	_ZN14QMediaPlaylist21mediaAboutToBeRemovedEii @ 157 NONAME
	_ZN14QMediaPlaylist22mediaAboutToBeInsertedEii @ 158 NONAME
	_ZN14QMediaPlaylist4loadEP9QIODevicePKc @ 159 NONAME
	_ZN14QMediaPlaylist4loadERK4QUrlPKc @ 160 NONAME
	_ZN14QMediaPlaylist4nextEv @ 161 NONAME
	_ZN14QMediaPlaylist4saveEP9QIODevicePKc @ 162 NONAME
	_ZN14QMediaPlaylist4saveERK4QUrlPKc @ 163 NONAME
	_ZN14QMediaPlaylist5clearEv @ 164 NONAME
	_ZN14QMediaPlaylist6loadedEv @ 165 NONAME
	_ZN14QMediaPlaylist7shuffleEv @ 166 NONAME
	_ZN14QMediaPlaylist8addMediaERK13QMediaContent @ 167 NONAME
	_ZN14QMediaPlaylist8addMediaERK5QListI13QMediaContentE @ 168 NONAME
	_ZN14QMediaPlaylist8previousEv @ 169 NONAME
	_ZN14QMediaPlaylistC1EP7QObject @ 170 NONAME
	_ZN14QMediaPlaylistC2EP7QObject @ 171 NONAME
	_ZN14QMediaPlaylistD0Ev @ 172 NONAME
	_ZN14QMediaPlaylistD1Ev @ 173 NONAME
	_ZN14QMediaPlaylistD2Ev @ 174 NONAME
	_ZN14QMediaResource11setDataSizeEx @ 175 NONAME
	_ZN14QMediaResource11setLanguageERK7QString @ 176 NONAME
	_ZN14QMediaResource13setAudioCodecERK7QString @ 177 NONAME
	_ZN14QMediaResource13setResolutionERK5QSize @ 178 NONAME
	_ZN14QMediaResource13setResolutionEii @ 179 NONAME
	_ZN14QMediaResource13setSampleRateEi @ 180 NONAME
	_ZN14QMediaResource13setVideoCodecERK7QString @ 181 NONAME
	_ZN14QMediaResource15setAudioBitRateEi @ 182 NONAME
	_ZN14QMediaResource15setChannelCountEi @ 183 NONAME
	_ZN14QMediaResource15setVideoBitRateEi @ 184 NONAME
	_ZN14QMediaResourceC1ERK15QNetworkRequestRK7QString @ 185 NONAME
	_ZN14QMediaResourceC1ERK4QUrlRK7QString @ 186 NONAME
	_ZN14QMediaResourceC1ERKS_ @ 187 NONAME
	_ZN14QMediaResourceC1Ev @ 188 NONAME
	_ZN14QMediaResourceC2ERK15QNetworkRequestRK7QString @ 189 NONAME
	_ZN14QMediaResourceC2ERK4QUrlRK7QString @ 190 NONAME
	_ZN14QMediaResourceC2ERKS_ @ 191 NONAME
	_ZN14QMediaResourceC2Ev @ 192 NONAME
	_ZN14QMediaResourceD1Ev @ 193 NONAME
	_ZN14QMediaResourceD2Ev @ 194 NONAME
	_ZN14QMediaResourceaSERKS_ @ 195 NONAME
	_ZN15QMediaTimeRange11addIntervalERK18QMediaTimeInterval @ 196 NONAME
	_ZN15QMediaTimeRange11addIntervalExx @ 197 NONAME
	_ZN15QMediaTimeRange12addTimeRangeERKS_ @ 198 NONAME
	_ZN15QMediaTimeRange14removeIntervalERK18QMediaTimeInterval @ 199 NONAME
	_ZN15QMediaTimeRange14removeIntervalExx @ 200 NONAME
	_ZN15QMediaTimeRange15removeTimeRangeERKS_ @ 201 NONAME
	_ZN15QMediaTimeRange5clearEv @ 202 NONAME
	_ZN15QMediaTimeRangeC1ERK18QMediaTimeInterval @ 203 NONAME
	_ZN15QMediaTimeRangeC1ERKS_ @ 204 NONAME
	_ZN15QMediaTimeRangeC1Ev @ 205 NONAME
	_ZN15QMediaTimeRangeC1Exx @ 206 NONAME
	_ZN15QMediaTimeRangeC2ERK18QMediaTimeInterval @ 207 NONAME
	_ZN15QMediaTimeRangeC2ERKS_ @ 208 NONAME
	_ZN15QMediaTimeRangeC2Ev @ 209 NONAME
	_ZN15QMediaTimeRangeC2Exx @ 210 NONAME
	_ZN15QMediaTimeRangeD1Ev @ 211 NONAME
	_ZN15QMediaTimeRangeD2Ev @ 212 NONAME
	_ZN15QMediaTimeRangeaSERK18QMediaTimeInterval @ 213 NONAME
	_ZN15QMediaTimeRangeaSERKS_ @ 214 NONAME
	_ZN15QMediaTimeRangemIERK18QMediaTimeInterval @ 215 NONAME
	_ZN15QMediaTimeRangemIERKS_ @ 216 NONAME
	_ZN15QMediaTimeRangepLERK18QMediaTimeInterval @ 217 NONAME
	_ZN15QMediaTimeRangepLERKS_ @ 218 NONAME
	_ZN16QMetaDataControl11qt_metacallEN11QMetaObject4CallEiPPv @ 219 NONAME
	_ZN16QMetaDataControl11qt_metacastEPKc @ 220 NONAME
	_ZN16QMetaDataControl15metaDataChangedEv @ 221 NONAME
	_ZN16QMetaDataControl15writableChangedEb @ 222 NONAME
	_ZN16QMetaDataControl16staticMetaObjectE @ 223 NONAME DATA 16
	_ZN16QMetaDataControl19getStaticMetaObjectEv @ 224 NONAME
	_ZN16QMetaDataControl24metaDataAvailableChangedEb @ 225 NONAME
	_ZN16QMetaDataControlC2EP7QObject @ 226 NONAME
	_ZN16QMetaDataControlD0Ev @ 227 NONAME
	_ZN16QMetaDataControlD1Ev @ 228 NONAME
	_ZN16QMetaDataControlD2Ev @ 229 NONAME
	_ZN18QGraphicsVideoItem10itemChangeEN13QGraphicsItem18GraphicsItemChangeERK8QVariant @ 230 NONAME
	_ZN18QGraphicsVideoItem10sceneEventEP6QEvent @ 231 NONAME
	_ZN18QGraphicsVideoItem11qt_metacallEN11QMetaObject4CallEiPPv @ 232 NONAME
	_ZN18QGraphicsVideoItem11qt_metacastEPKc @ 233 NONAME
	_ZN18QGraphicsVideoItem14setMediaObjectEP12QMediaObject @ 234 NONAME
	_ZN18QGraphicsVideoItem16staticMetaObjectE @ 235 NONAME DATA 16
	_ZN18QGraphicsVideoItem17nativeSizeChangedERK6QSizeF @ 236 NONAME
	_ZN18QGraphicsVideoItem18setAspectRatioModeEN2Qt15AspectRatioModeE @ 237 NONAME
	_ZN18QGraphicsVideoItem19getStaticMetaObjectEv @ 238 NONAME
	_ZN18QGraphicsVideoItem5eventEP6QEvent @ 239 NONAME
	_ZN18QGraphicsVideoItem5paintEP8QPainterPK24QStyleOptionGraphicsItemP7QWidget @ 240 NONAME
	_ZN18QGraphicsVideoItem7setSizeERK6QSizeF @ 241 NONAME
	_ZN18QGraphicsVideoItem9setOffsetERK7QPointF @ 242 NONAME
	_ZN18QGraphicsVideoItemC1EP13QGraphicsItem @ 243 NONAME
	_ZN18QGraphicsVideoItemC2EP13QGraphicsItem @ 244 NONAME
	_ZN18QGraphicsVideoItemD0Ev @ 245 NONAME
	_ZN18QGraphicsVideoItemD1Ev @ 246 NONAME
	_ZN18QGraphicsVideoItemD2Ev @ 247 NONAME
	_ZN18QMediaTimeIntervalC1ERKS_ @ 248 NONAME
	_ZN18QMediaTimeIntervalC1Ev @ 249 NONAME
	_ZN18QMediaTimeIntervalC1Exx @ 250 NONAME
	_ZN18QMediaTimeIntervalC2ERKS_ @ 251 NONAME
	_ZN18QMediaTimeIntervalC2Ev @ 252 NONAME
	_ZN18QMediaTimeIntervalC2Exx @ 253 NONAME
	_ZN19QMediaPlayerControl11qt_metacallEN11QMetaObject4CallEiPPv @ 254 NONAME
	_ZN19QMediaPlayerControl11qt_metacastEPKc @ 255 NONAME
	_ZN19QMediaPlayerControl12mediaChangedERK13QMediaContent @ 256 NONAME
	_ZN19QMediaPlayerControl12mutedChangedEb @ 257 NONAME
	_ZN19QMediaPlayerControl12stateChangedEN12QMediaPlayer5StateE @ 258 NONAME
	_ZN19QMediaPlayerControl13volumeChangedEi @ 259 NONAME
	_ZN19QMediaPlayerControl15durationChangedEx @ 260 NONAME
	_ZN19QMediaPlayerControl15positionChangedEx @ 261 NONAME
	_ZN19QMediaPlayerControl15seekableChangedEb @ 262 NONAME
	_ZN19QMediaPlayerControl16staticMetaObjectE @ 263 NONAME DATA 16
	_ZN19QMediaPlayerControl18mediaStatusChangedEN12QMediaPlayer11MediaStatusE @ 264 NONAME
	_ZN19QMediaPlayerControl19bufferStatusChangedEi @ 265 NONAME
	_ZN19QMediaPlayerControl19getStaticMetaObjectEv @ 266 NONAME
	_ZN19QMediaPlayerControl19playbackRateChangedEf @ 267 NONAME
	_ZN19QMediaPlayerControl21audioAvailableChangedEb @ 268 NONAME
	_ZN19QMediaPlayerControl21videoAvailableChangedEb @ 269 NONAME
	_ZN19QMediaPlayerControl30availablePlaybackRangesChangedERK15QMediaTimeRange @ 270 NONAME
	_ZN19QMediaPlayerControl5errorEiRK7QString @ 271 NONAME
	_ZN19QMediaPlayerControlC2EP7QObject @ 272 NONAME
	_ZN19QMediaPlayerControlD0Ev @ 273 NONAME
	_ZN19QMediaPlayerControlD1Ev @ 274 NONAME
	_ZN19QMediaPlayerControlD2Ev @ 275 NONAME
	_ZN19QVideoDeviceControl11qt_metacallEN11QMetaObject4CallEiPPv @ 276 NONAME
	_ZN19QVideoDeviceControl11qt_metacastEPKc @ 277 NONAME
	_ZN19QVideoDeviceControl14devicesChangedEv @ 278 NONAME
	_ZN19QVideoDeviceControl16staticMetaObjectE @ 279 NONAME DATA 16
	_ZN19QVideoDeviceControl19getStaticMetaObjectEv @ 280 NONAME
	_ZN19QVideoDeviceControl21selectedDeviceChangedERK7QString @ 281 NONAME
	_ZN19QVideoDeviceControl21selectedDeviceChangedEi @ 282 NONAME
	_ZN19QVideoDeviceControlC2EP7QObject @ 283 NONAME
	_ZN19QVideoDeviceControlD0Ev @ 284 NONAME
	_ZN19QVideoDeviceControlD1Ev @ 285 NONAME
	_ZN19QVideoDeviceControlD2Ev @ 286 NONAME
	_ZN19QVideoOutputControl11qt_metacallEN11QMetaObject4CallEiPPv @ 287 NONAME
	_ZN19QVideoOutputControl11qt_metacastEPKc @ 288 NONAME
	_ZN19QVideoOutputControl16staticMetaObjectE @ 289 NONAME DATA 16
	_ZN19QVideoOutputControl19getStaticMetaObjectEv @ 290 NONAME
	_ZN19QVideoOutputControl23availableOutputsChangedERK5QListINS_6OutputEE @ 291 NONAME
	_ZN19QVideoOutputControlC2EP7QObject @ 292 NONAME
	_ZN19QVideoOutputControlD0Ev @ 293 NONAME
	_ZN19QVideoOutputControlD1Ev @ 294 NONAME
	_ZN19QVideoOutputControlD2Ev @ 295 NONAME
	_ZN19QVideoWidgetControl10hueChangedEi @ 296 NONAME
	_ZN19QVideoWidgetControl11qt_metacallEN11QMetaObject4CallEiPPv @ 297 NONAME
	_ZN19QVideoWidgetControl11qt_metacastEPKc @ 298 NONAME
	_ZN19QVideoWidgetControl15contrastChangedEi @ 299 NONAME
	_ZN19QVideoWidgetControl16staticMetaObjectE @ 300 NONAME DATA 16
	_ZN19QVideoWidgetControl17brightnessChangedEi @ 301 NONAME
	_ZN19QVideoWidgetControl17fullScreenChangedEb @ 302 NONAME
	_ZN19QVideoWidgetControl17saturationChangedEi @ 303 NONAME
	_ZN19QVideoWidgetControl19getStaticMetaObjectEv @ 304 NONAME
	_ZN19QVideoWidgetControlC2EP7QObject @ 305 NONAME
	_ZN19QVideoWidgetControlD0Ev @ 306 NONAME
	_ZN19QVideoWidgetControlD1Ev @ 307 NONAME
	_ZN19QVideoWidgetControlD2Ev @ 308 NONAME
	_ZN19QVideoWindowControl10hueChangedEi @ 309 NONAME
	_ZN19QVideoWindowControl11qt_metacallEN11QMetaObject4CallEiPPv @ 310 NONAME
	_ZN19QVideoWindowControl11qt_metacastEPKc @ 311 NONAME
	_ZN19QVideoWindowControl15contrastChangedEi @ 312 NONAME
	_ZN19QVideoWindowControl16staticMetaObjectE @ 313 NONAME DATA 16
	_ZN19QVideoWindowControl17brightnessChangedEi @ 314 NONAME
	_ZN19QVideoWindowControl17fullScreenChangedEb @ 315 NONAME
	_ZN19QVideoWindowControl17nativeSizeChangedEv @ 316 NONAME
	_ZN19QVideoWindowControl17saturationChangedEi @ 317 NONAME
	_ZN19QVideoWindowControl19getStaticMetaObjectEv @ 318 NONAME
	_ZN19QVideoWindowControlC2EP7QObject @ 319 NONAME
	_ZN19QVideoWindowControlD0Ev @ 320 NONAME
	_ZN19QVideoWindowControlD1Ev @ 321 NONAME
	_ZN19QVideoWindowControlD2Ev @ 322 NONAME
	_ZN20QMediaPlaylistReaderD0Ev @ 323 NONAME
	_ZN20QMediaPlaylistReaderD1Ev @ 324 NONAME
	_ZN20QMediaPlaylistReaderD2Ev @ 325 NONAME
	_ZN20QMediaPlaylistWriterD0Ev @ 326 NONAME
	_ZN20QMediaPlaylistWriterD1Ev @ 327 NONAME
	_ZN20QMediaPlaylistWriterD2Ev @ 328 NONAME
	_ZN20QPainterVideoSurface11qt_metacallEN11QMetaObject4CallEiPPv @ 329 NONAME
	_ZN20QPainterVideoSurface11qt_metacastEPKc @ 330 NONAME
	_ZN20QPainterVideoSurface11setContrastEi @ 331 NONAME
	_ZN20QPainterVideoSurface12frameChangedEv @ 332 NONAME
	_ZN20QPainterVideoSurface13createPainterEv @ 333 NONAME
	_ZN20QPainterVideoSurface13setBrightnessEi @ 334 NONAME
	_ZN20QPainterVideoSurface13setSaturationEi @ 335 NONAME
	_ZN20QPainterVideoSurface16staticMetaObjectE @ 336 NONAME DATA 16
	_ZN20QPainterVideoSurface19getStaticMetaObjectEv @ 337 NONAME
	_ZN20QPainterVideoSurface4stopEv @ 338 NONAME
	_ZN20QPainterVideoSurface5paintEP8QPainterRK6QRectFS4_ @ 339 NONAME
	_ZN20QPainterVideoSurface5startERK19QVideoSurfaceFormat @ 340 NONAME
	_ZN20QPainterVideoSurface6setHueEi @ 341 NONAME
	_ZN20QPainterVideoSurface7presentERK11QVideoFrame @ 342 NONAME
	_ZN20QPainterVideoSurface8setReadyEb @ 343 NONAME
	_ZN20QPainterVideoSurfaceC1EP7QObject @ 344 NONAME
	_ZN20QPainterVideoSurfaceC2EP7QObject @ 345 NONAME
	_ZN20QPainterVideoSurfaceD0Ev @ 346 NONAME
	_ZN20QPainterVideoSurfaceD1Ev @ 347 NONAME
	_ZN20QPainterVideoSurfaceD2Ev @ 348 NONAME
	_ZN21QMediaPlaylistControl11qt_metacallEN11QMetaObject4CallEiPPv @ 349 NONAME
	_ZN21QMediaPlaylistControl11qt_metacastEPKc @ 350 NONAME
	_ZN21QMediaPlaylistControl16staticMetaObjectE @ 351 NONAME DATA 16
	_ZN21QMediaPlaylistControl19currentIndexChangedEi @ 352 NONAME
	_ZN21QMediaPlaylistControl19currentMediaChangedERK13QMediaContent @ 353 NONAME
	_ZN21QMediaPlaylistControl19getStaticMetaObjectEv @ 354 NONAME
	_ZN21QMediaPlaylistControl19playbackModeChangedEN14QMediaPlaylist12PlaybackModeE @ 355 NONAME
	_ZN21QMediaPlaylistControl23playlistProviderChangedEv @ 356 NONAME
	_ZN21QMediaPlaylistControlC2EP7QObject @ 357 NONAME
	_ZN21QMediaPlaylistControlD0Ev @ 358 NONAME
	_ZN21QMediaPlaylistControlD1Ev @ 359 NONAME
	_ZN21QMediaPlaylistControlD2Ev @ 360 NONAME
	_ZN21QMediaServiceProvider11qt_metacallEN11QMetaObject4CallEiPPv @ 361 NONAME
	_ZN21QMediaServiceProvider11qt_metacastEPKc @ 362 NONAME
	_ZN21QMediaServiceProvider16staticMetaObjectE @ 363 NONAME DATA 16
	_ZN21QMediaServiceProvider17deviceDescriptionERK10QByteArrayS2_ @ 364 NONAME
	_ZN21QMediaServiceProvider19getStaticMetaObjectEv @ 365 NONAME
	_ZN21QMediaServiceProvider22defaultServiceProviderEv @ 366 NONAME
	_ZN21QVideoRendererControl11qt_metacallEN11QMetaObject4CallEiPPv @ 367 NONAME
	_ZN21QVideoRendererControl11qt_metacastEPKc @ 368 NONAME
	_ZN21QVideoRendererControl16staticMetaObjectE @ 369 NONAME DATA 16
	_ZN21QVideoRendererControl19getStaticMetaObjectEv @ 370 NONAME
	_ZN21QVideoRendererControlC2EP7QObject @ 371 NONAME
	_ZN21QVideoRendererControlD0Ev @ 372 NONAME
	_ZN21QVideoRendererControlD1Ev @ 373 NONAME
	_ZN21QVideoRendererControlD2Ev @ 374 NONAME
	_ZN22QMediaPlaylistIOPlugin11qt_metacallEN11QMetaObject4CallEiPPv @ 375 NONAME
	_ZN22QMediaPlaylistIOPlugin11qt_metacastEPKc @ 376 NONAME
	_ZN22QMediaPlaylistIOPlugin16staticMetaObjectE @ 377 NONAME DATA 16
	_ZN22QMediaPlaylistIOPlugin19getStaticMetaObjectEv @ 378 NONAME
	_ZN22QMediaPlaylistIOPluginC2EP7QObject @ 379 NONAME
	_ZN22QMediaPlaylistIOPluginD0Ev @ 380 NONAME
	_ZN22QMediaPlaylistIOPluginD1Ev @ 381 NONAME
	_ZN22QMediaPlaylistIOPluginD2Ev @ 382 NONAME
	_ZN22QMediaPlaylistProvider10loadFailedEN14QMediaPlaylist5ErrorERK7QString @ 383 NONAME
	_ZN22QMediaPlaylistProvider11insertMediaEiRK13QMediaContent @ 384 NONAME
	_ZN22QMediaPlaylistProvider11insertMediaEiRK5QListI13QMediaContentE @ 385 NONAME
	_ZN22QMediaPlaylistProvider11qt_metacallEN11QMetaObject4CallEiPPv @ 386 NONAME
	_ZN22QMediaPlaylistProvider11qt_metacastEPKc @ 387 NONAME
	_ZN22QMediaPlaylistProvider11removeMediaEi @ 388 NONAME
	_ZN22QMediaPlaylistProvider11removeMediaEii @ 389 NONAME
	_ZN22QMediaPlaylistProvider12mediaChangedEii @ 390 NONAME
	_ZN22QMediaPlaylistProvider12mediaRemovedEii @ 391 NONAME
	_ZN22QMediaPlaylistProvider13mediaInsertedEii @ 392 NONAME
	_ZN22QMediaPlaylistProvider16staticMetaObjectE @ 393 NONAME DATA 16
	_ZN22QMediaPlaylistProvider19getStaticMetaObjectEv @ 394 NONAME
	_ZN22QMediaPlaylistProvider21mediaAboutToBeRemovedEii @ 395 NONAME
	_ZN22QMediaPlaylistProvider22mediaAboutToBeInsertedEii @ 396 NONAME
	_ZN22QMediaPlaylistProvider4loadEP9QIODevicePKc @ 397 NONAME
	_ZN22QMediaPlaylistProvider4loadERK4QUrlPKc @ 398 NONAME
	_ZN22QMediaPlaylistProvider4saveEP9QIODevicePKc @ 399 NONAME
	_ZN22QMediaPlaylistProvider4saveERK4QUrlPKc @ 400 NONAME
	_ZN22QMediaPlaylistProvider5clearEv @ 401 NONAME
	_ZN22QMediaPlaylistProvider6loadedEv @ 402 NONAME
	_ZN22QMediaPlaylistProvider7shuffleEv @ 403 NONAME
	_ZN22QMediaPlaylistProvider8addMediaERK13QMediaContent @ 404 NONAME
	_ZN22QMediaPlaylistProvider8addMediaERK5QListI13QMediaContentE @ 405 NONAME
	_ZN22QMediaPlaylistProviderC2EP7QObject @ 406 NONAME
	_ZN22QMediaPlaylistProviderC2ER29QMediaPlaylistProviderPrivateP7QObject @ 407 NONAME
	_ZN22QMediaPlaylistProviderD0Ev @ 408 NONAME
	_ZN22QMediaPlaylistProviderD1Ev @ 409 NONAME
	_ZN22QMediaPlaylistProviderD2Ev @ 410 NONAME
	_ZN23QMediaPlaylistNavigator11qt_metacallEN11QMetaObject4CallEiPPv @ 411 NONAME
	_ZN23QMediaPlaylistNavigator11qt_metacastEPKc @ 412 NONAME
	_ZN23QMediaPlaylistNavigator11setPlaylistEP22QMediaPlaylistProvider @ 413 NONAME
	_ZN23QMediaPlaylistNavigator15setPlaybackModeEN14QMediaPlaylist12PlaybackModeE @ 414 NONAME
	_ZN23QMediaPlaylistNavigator16staticMetaObjectE @ 415 NONAME DATA 16
	_ZN23QMediaPlaylistNavigator19currentIndexChangedEi @ 416 NONAME
	_ZN23QMediaPlaylistNavigator19getStaticMetaObjectEv @ 417 NONAME
	_ZN23QMediaPlaylistNavigator19playbackModeChangedEN14QMediaPlaylist12PlaybackModeE @ 418 NONAME
	_ZN23QMediaPlaylistNavigator23surroundingItemsChangedEv @ 419 NONAME
	_ZN23QMediaPlaylistNavigator4jumpEi @ 420 NONAME
	_ZN23QMediaPlaylistNavigator4nextEv @ 421 NONAME
	_ZN23QMediaPlaylistNavigator8previousEv @ 422 NONAME
	_ZN23QMediaPlaylistNavigator9activatedERK13QMediaContent @ 423 NONAME
	_ZN23QMediaPlaylistNavigatorC1EP22QMediaPlaylistProviderP7QObject @ 424 NONAME
	_ZN23QMediaPlaylistNavigatorC2EP22QMediaPlaylistProviderP7QObject @ 425 NONAME
	_ZN23QMediaPlaylistNavigatorD0Ev @ 426 NONAME
	_ZN23QMediaPlaylistNavigatorD1Ev @ 427 NONAME
	_ZN23QMediaPlaylistNavigatorD2Ev @ 428 NONAME
	_ZN25QMediaServiceProviderHintC1E6QFlagsINS_7FeatureEE @ 429 NONAME
	_ZN25QMediaServiceProviderHintC1ERK10QByteArray @ 430 NONAME
	_ZN25QMediaServiceProviderHintC1ERK7QStringRK11QStringList @ 431 NONAME
	_ZN25QMediaServiceProviderHintC1ERKS_ @ 432 NONAME
	_ZN25QMediaServiceProviderHintC1Ev @ 433 NONAME
	_ZN25QMediaServiceProviderHintC2E6QFlagsINS_7FeatureEE @ 434 NONAME
	_ZN25QMediaServiceProviderHintC2ERK10QByteArray @ 435 NONAME
	_ZN25QMediaServiceProviderHintC2ERK7QStringRK11QStringList @ 436 NONAME
	_ZN25QMediaServiceProviderHintC2ERKS_ @ 437 NONAME
	_ZN25QMediaServiceProviderHintC2Ev @ 438 NONAME
	_ZN25QMediaServiceProviderHintD1Ev @ 439 NONAME
	_ZN25QMediaServiceProviderHintD2Ev @ 440 NONAME
	_ZN25QMediaServiceProviderHintaSERKS_ @ 441 NONAME
	_ZN27QLocalMediaPlaylistProvider11insertMediaEiRK13QMediaContent @ 442 NONAME
	_ZN27QLocalMediaPlaylistProvider11insertMediaEiRK5QListI13QMediaContentE @ 443 NONAME
	_ZN27QLocalMediaPlaylistProvider11qt_metacallEN11QMetaObject4CallEiPPv @ 444 NONAME
	_ZN27QLocalMediaPlaylistProvider11qt_metacastEPKc @ 445 NONAME
	_ZN27QLocalMediaPlaylistProvider11removeMediaEi @ 446 NONAME
	_ZN27QLocalMediaPlaylistProvider11removeMediaEii @ 447 NONAME
	_ZN27QLocalMediaPlaylistProvider16staticMetaObjectE @ 448 NONAME DATA 16
	_ZN27QLocalMediaPlaylistProvider19getStaticMetaObjectEv @ 449 NONAME
	_ZN27QLocalMediaPlaylistProvider5clearEv @ 450 NONAME
	_ZN27QLocalMediaPlaylistProvider7shuffleEv @ 451 NONAME
	_ZN27QLocalMediaPlaylistProvider8addMediaERK13QMediaContent @ 452 NONAME
	_ZN27QLocalMediaPlaylistProvider8addMediaERK5QListI13QMediaContentE @ 453 NONAME
	_ZN27QLocalMediaPlaylistProviderC1EP7QObject @ 454 NONAME
	_ZN27QLocalMediaPlaylistProviderC2EP7QObject @ 455 NONAME
	_ZN27QLocalMediaPlaylistProviderD0Ev @ 456 NONAME
	_ZN27QLocalMediaPlaylistProviderD1Ev @ 457 NONAME
	_ZN27QLocalMediaPlaylistProviderD2Ev @ 458 NONAME
	_ZN27QMediaServiceProviderPlugin11qt_metacallEN11QMetaObject4CallEiPPv @ 459 NONAME
	_ZN27QMediaServiceProviderPlugin11qt_metacastEPKc @ 460 NONAME
	_ZN27QMediaServiceProviderPlugin16staticMetaObjectE @ 461 NONAME DATA 16
	_ZN27QMediaServiceProviderPlugin19getStaticMetaObjectEv @ 462 NONAME
	_ZNK12QMediaObject10metaObjectEv @ 463 NONAME
	_ZNK12QMediaObject11isAvailableEv @ 464 NONAME
	_ZNK12QMediaObject14notifyIntervalEv @ 465 NONAME
	_ZNK12QMediaObject16extendedMetaDataERK7QString @ 466 NONAME
	_ZNK12QMediaObject17availabilityErrorEv @ 467 NONAME
	_ZNK12QMediaObject17availableMetaDataEv @ 468 NONAME
	_ZNK12QMediaObject18isMetaDataWritableEv @ 469 NONAME
	_ZNK12QMediaObject19isMetaDataAvailableEv @ 470 NONAME
	_ZNK12QMediaObject25availableExtendedMetaDataEv @ 471 NONAME
	_ZNK12QMediaObject7serviceEv @ 472 NONAME
	_ZNK12QMediaObject8metaDataEN15QtMediaServices8MetaDataE @ 473 NONAME
	_ZNK12QMediaPlayer10isSeekableEv @ 474 NONAME
	_ZNK12QMediaPlayer10metaObjectEv @ 475 NONAME
	_ZNK12QMediaPlayer11errorStringEv @ 476 NONAME
	_ZNK12QMediaPlayer11mediaStatusEv @ 477 NONAME
	_ZNK12QMediaPlayer11mediaStreamEv @ 478 NONAME
	_ZNK12QMediaPlayer12bufferStatusEv @ 479 NONAME
	_ZNK12QMediaPlayer12playbackRateEv @ 480 NONAME
	_ZNK12QMediaPlayer16isAudioAvailableEv @ 481 NONAME
	_ZNK12QMediaPlayer16isVideoAvailableEv @ 482 NONAME
	_ZNK12QMediaPlayer5errorEv @ 483 NONAME
	_ZNK12QMediaPlayer5mediaEv @ 484 NONAME
	_ZNK12QMediaPlayer5stateEv @ 485 NONAME
	_ZNK12QMediaPlayer6volumeEv @ 486 NONAME
	_ZNK12QMediaPlayer7isMutedEv @ 487 NONAME
	_ZNK12QMediaPlayer8durationEv @ 488 NONAME
	_ZNK12QMediaPlayer8positionEv @ 489 NONAME
	_ZNK12QSoundEffect10metaObjectEv @ 490 NONAME
	_ZNK12QSoundEffect5loopsEv @ 491 NONAME
	_ZNK12QSoundEffect6sourceEv @ 492 NONAME
	_ZNK12QSoundEffect6volumeEv @ 493 NONAME
	_ZNK12QSoundEffect7isMutedEv @ 494 NONAME
	_ZNK12QVideoWidget10brightnessEv @ 495 NONAME
	_ZNK12QVideoWidget10metaObjectEv @ 496 NONAME
	_ZNK12QVideoWidget10saturationEv @ 497 NONAME
	_ZNK12QVideoWidget11mediaObjectEv @ 498 NONAME
	_ZNK12QVideoWidget15aspectRatioModeEv @ 499 NONAME
	_ZNK12QVideoWidget3hueEv @ 500 NONAME
	_ZNK12QVideoWidget8contrastEv @ 501 NONAME
	_ZNK12QVideoWidget8sizeHintEv @ 502 NONAME
	_ZNK13QMediaContent12canonicalUrlEv @ 503 NONAME
	_ZNK13QMediaContent16canonicalRequestEv @ 504 NONAME
	_ZNK13QMediaContent17canonicalResourceEv @ 505 NONAME
	_ZNK13QMediaContent6isNullEv @ 506 NONAME
	_ZNK13QMediaContent9resourcesEv @ 507 NONAME
	_ZNK13QMediaContenteqERKS_ @ 508 NONAME
	_ZNK13QMediaContentneERKS_ @ 509 NONAME
	_ZNK13QMediaControl10metaObjectEv @ 510 NONAME
	_ZNK13QMediaService10metaObjectEv @ 511 NONAME
	_ZNK14QMediaPlaylist10isReadOnlyEv @ 512 NONAME
	_ZNK14QMediaPlaylist10mediaCountEv @ 513 NONAME
	_ZNK14QMediaPlaylist10metaObjectEv @ 514 NONAME
	_ZNK14QMediaPlaylist11errorStringEv @ 515 NONAME
	_ZNK14QMediaPlaylist11mediaObjectEv @ 516 NONAME
	_ZNK14QMediaPlaylist12currentIndexEv @ 517 NONAME
	_ZNK14QMediaPlaylist12currentMediaEv @ 518 NONAME
	_ZNK14QMediaPlaylist12playbackModeEv @ 519 NONAME
	_ZNK14QMediaPlaylist13previousIndexEi @ 520 NONAME
	_ZNK14QMediaPlaylist5errorEv @ 521 NONAME
	_ZNK14QMediaPlaylist5mediaEi @ 522 NONAME
	_ZNK14QMediaPlaylist7isEmptyEv @ 523 NONAME
	_ZNK14QMediaPlaylist9nextIndexEi @ 524 NONAME
	_ZNK14QMediaResource10audioCodecEv @ 525 NONAME
	_ZNK14QMediaResource10resolutionEv @ 526 NONAME
	_ZNK14QMediaResource10sampleRateEv @ 527 NONAME
	_ZNK14QMediaResource10videoCodecEv @ 528 NONAME
	_ZNK14QMediaResource12audioBitRateEv @ 529 NONAME
	_ZNK14QMediaResource12channelCountEv @ 530 NONAME
	_ZNK14QMediaResource12videoBitRateEv @ 531 NONAME
	_ZNK14QMediaResource3urlEv @ 532 NONAME
	_ZNK14QMediaResource6isNullEv @ 533 NONAME
	_ZNK14QMediaResource7requestEv @ 534 NONAME
	_ZNK14QMediaResource8dataSizeEv @ 535 NONAME
	_ZNK14QMediaResource8languageEv @ 536 NONAME
	_ZNK14QMediaResource8mimeTypeEv @ 537 NONAME
	_ZNK14QMediaResourceeqERKS_ @ 538 NONAME
	_ZNK14QMediaResourceneERKS_ @ 539 NONAME
	_ZNK15QMediaTimeRange10latestTimeEv @ 540 NONAME
	_ZNK15QMediaTimeRange12earliestTimeEv @ 541 NONAME
	_ZNK15QMediaTimeRange12isContinuousEv @ 542 NONAME
	_ZNK15QMediaTimeRange7isEmptyEv @ 543 NONAME
	_ZNK15QMediaTimeRange8containsEx @ 544 NONAME
	_ZNK15QMediaTimeRange9intervalsEv @ 545 NONAME
	_ZNK16QMetaDataControl10metaObjectEv @ 546 NONAME
	_ZNK18QGraphicsVideoItem10metaObjectEv @ 547 NONAME
	_ZNK18QGraphicsVideoItem10nativeSizeEv @ 548 NONAME
	_ZNK18QGraphicsVideoItem11mediaObjectEv @ 549 NONAME
	_ZNK18QGraphicsVideoItem12boundingRectEv @ 550 NONAME
	_ZNK18QGraphicsVideoItem15aspectRatioModeEv @ 551 NONAME
	_ZNK18QGraphicsVideoItem4sizeEv @ 552 NONAME
	_ZNK18QGraphicsVideoItem6offsetEv @ 553 NONAME
	_ZNK18QMediaTimeInterval10normalizedEv @ 554 NONAME
	_ZNK18QMediaTimeInterval10translatedEx @ 555 NONAME
	_ZNK18QMediaTimeInterval3endEv @ 556 NONAME
	_ZNK18QMediaTimeInterval5startEv @ 557 NONAME
	_ZNK18QMediaTimeInterval8containsEx @ 558 NONAME
	_ZNK18QMediaTimeInterval8isNormalEv @ 559 NONAME
	_ZNK19QMediaPlayerControl10metaObjectEv @ 560 NONAME
	_ZNK19QVideoDeviceControl10metaObjectEv @ 561 NONAME
	_ZNK19QVideoOutputControl10metaObjectEv @ 562 NONAME
	_ZNK19QVideoWidgetControl10metaObjectEv @ 563 NONAME
	_ZNK19QVideoWindowControl10metaObjectEv @ 564 NONAME
	_ZNK20QPainterVideoSurface10brightnessEv @ 565 NONAME
	_ZNK20QPainterVideoSurface10metaObjectEv @ 566 NONAME
	_ZNK20QPainterVideoSurface10saturationEv @ 567 NONAME
	_ZNK20QPainterVideoSurface17isFormatSupportedERK19QVideoSurfaceFormatPS0_ @ 568 NONAME
	_ZNK20QPainterVideoSurface21supportedPixelFormatsEN20QAbstractVideoBuffer10HandleTypeE @ 569 NONAME
	_ZNK20QPainterVideoSurface3hueEv @ 570 NONAME
	_ZNK20QPainterVideoSurface7isReadyEv @ 571 NONAME
	_ZNK20QPainterVideoSurface8contrastEv @ 572 NONAME
	_ZNK21QMediaPlaylistControl10metaObjectEv @ 573 NONAME
	_ZNK21QMediaServiceProvider10hasSupportERK10QByteArrayRK7QStringRK11QStringListi @ 574 NONAME
	_ZNK21QMediaServiceProvider10metaObjectEv @ 575 NONAME
	_ZNK21QMediaServiceProvider18supportedMimeTypesERK10QByteArrayi @ 576 NONAME
	_ZNK21QMediaServiceProvider7devicesERK10QByteArray @ 577 NONAME
	_ZNK21QVideoRendererControl10metaObjectEv @ 578 NONAME
	_ZNK22QMediaPlaylistIOPlugin10metaObjectEv @ 579 NONAME
	_ZNK22QMediaPlaylistProvider10isReadOnlyEv @ 580 NONAME
	_ZNK22QMediaPlaylistProvider10metaObjectEv @ 581 NONAME
	_ZNK23QMediaPlaylistNavigator10metaObjectEv @ 582 NONAME
	_ZNK23QMediaPlaylistNavigator11currentItemEv @ 583 NONAME
	_ZNK23QMediaPlaylistNavigator12currentIndexEv @ 584 NONAME
	_ZNK23QMediaPlaylistNavigator12playbackModeEv @ 585 NONAME
	_ZNK23QMediaPlaylistNavigator12previousItemEi @ 586 NONAME
	_ZNK23QMediaPlaylistNavigator13previousIndexEi @ 587 NONAME
	_ZNK23QMediaPlaylistNavigator6itemAtEi @ 588 NONAME
	_ZNK23QMediaPlaylistNavigator8nextItemEi @ 589 NONAME
	_ZNK23QMediaPlaylistNavigator8playlistEv @ 590 NONAME
	_ZNK23QMediaPlaylistNavigator9nextIndexEi @ 591 NONAME
	_ZNK25QMediaServiceProviderHint4typeEv @ 592 NONAME
	_ZNK25QMediaServiceProviderHint6codecsEv @ 593 NONAME
	_ZNK25QMediaServiceProviderHint6deviceEv @ 594 NONAME
	_ZNK25QMediaServiceProviderHint6isNullEv @ 595 NONAME
	_ZNK25QMediaServiceProviderHint8featuresEv @ 596 NONAME
	_ZNK25QMediaServiceProviderHint8mimeTypeEv @ 597 NONAME
	_ZNK25QMediaServiceProviderHinteqERKS_ @ 598 NONAME
	_ZNK25QMediaServiceProviderHintneERKS_ @ 599 NONAME
	_ZNK27QLocalMediaPlaylistProvider10isReadOnlyEv @ 600 NONAME
	_ZNK27QLocalMediaPlaylistProvider10mediaCountEv @ 601 NONAME
	_ZNK27QLocalMediaPlaylistProvider10metaObjectEv @ 602 NONAME
	_ZNK27QLocalMediaPlaylistProvider5mediaEi @ 603 NONAME
	_ZNK27QMediaServiceProviderPlugin10metaObjectEv @ 604 NONAME
	_ZTI12QMediaObject @ 605 NONAME
	_ZTI12QMediaPlayer @ 606 NONAME
	_ZTI12QSoundEffect @ 607 NONAME
	_ZTI12QVideoWidget @ 608 NONAME
	_ZTI13QMediaControl @ 609 NONAME
	_ZTI13QMediaService @ 610 NONAME
	_ZTI14QMediaPlaylist @ 611 NONAME
	_ZTI16QMetaDataControl @ 612 NONAME
	_ZTI18QGraphicsVideoItem @ 613 NONAME
	_ZTI19QMediaPlayerControl @ 614 NONAME
	_ZTI19QVideoDeviceControl @ 615 NONAME
	_ZTI19QVideoOutputControl @ 616 NONAME
	_ZTI19QVideoWidgetControl @ 617 NONAME
	_ZTI19QVideoWindowControl @ 618 NONAME
	_ZTI20QMediaPlaylistReader @ 619 NONAME
	_ZTI20QMediaPlaylistWriter @ 620 NONAME
	_ZTI20QPainterVideoSurface @ 621 NONAME
	_ZTI21QMediaPlaylistControl @ 622 NONAME
	_ZTI21QMediaServiceProvider @ 623 NONAME
	_ZTI21QVideoRendererControl @ 624 NONAME
	_ZTI22QMediaPlaylistIOPlugin @ 625 NONAME
	_ZTI22QMediaPlaylistProvider @ 626 NONAME
	_ZTI23QMediaPlaylistNavigator @ 627 NONAME
	_ZTI25QMediaPlaylistIOInterface @ 628 NONAME
	_ZTI27QLocalMediaPlaylistProvider @ 629 NONAME
	_ZTI27QMediaServiceProviderPlugin @ 630 NONAME
	_ZTI37QMediaServiceProviderFactoryInterface @ 631 NONAME
	_ZTV12QMediaObject @ 632 NONAME
	_ZTV12QMediaPlayer @ 633 NONAME
	_ZTV12QSoundEffect @ 634 NONAME
	_ZTV12QVideoWidget @ 635 NONAME
	_ZTV13QMediaControl @ 636 NONAME
	_ZTV13QMediaService @ 637 NONAME
	_ZTV14QMediaPlaylist @ 638 NONAME
	_ZTV16QMetaDataControl @ 639 NONAME
	_ZTV18QGraphicsVideoItem @ 640 NONAME
	_ZTV19QMediaPlayerControl @ 641 NONAME
	_ZTV19QVideoDeviceControl @ 642 NONAME
	_ZTV19QVideoOutputControl @ 643 NONAME
	_ZTV19QVideoWidgetControl @ 644 NONAME
	_ZTV19QVideoWindowControl @ 645 NONAME
	_ZTV20QMediaPlaylistReader @ 646 NONAME
	_ZTV20QMediaPlaylistWriter @ 647 NONAME
	_ZTV20QPainterVideoSurface @ 648 NONAME
	_ZTV21QMediaPlaylistControl @ 649 NONAME
	_ZTV21QMediaServiceProvider @ 650 NONAME
	_ZTV21QVideoRendererControl @ 651 NONAME
	_ZTV22QMediaPlaylistIOPlugin @ 652 NONAME
	_ZTV22QMediaPlaylistProvider @ 653 NONAME
	_ZTV23QMediaPlaylistNavigator @ 654 NONAME
	_ZTV27QLocalMediaPlaylistProvider @ 655 NONAME
	_ZTV27QMediaServiceProviderPlugin @ 656 NONAME
	_ZThn8_N12QVideoWidgetD0Ev @ 657 NONAME
	_ZThn8_N12QVideoWidgetD1Ev @ 658 NONAME
	_ZThn8_N18QGraphicsVideoItem10itemChangeEN13QGraphicsItem18GraphicsItemChangeERK8QVariant @ 659 NONAME
	_ZThn8_N18QGraphicsVideoItem10sceneEventEP6QEvent @ 660 NONAME
	_ZThn8_N18QGraphicsVideoItem5paintEP8QPainterPK24QStyleOptionGraphicsItemP7QWidget @ 661 NONAME
	_ZThn8_N18QGraphicsVideoItemD0Ev @ 662 NONAME
	_ZThn8_N18QGraphicsVideoItemD1Ev @ 663 NONAME
	_ZThn8_N22QMediaPlaylistIOPluginD0Ev @ 664 NONAME
	_ZThn8_N22QMediaPlaylistIOPluginD1Ev @ 665 NONAME
	_ZThn8_NK18QGraphicsVideoItem12boundingRectEv @ 666 NONAME
	_ZeqRK15QMediaTimeRangeS1_ @ 667 NONAME
	_ZeqRK18QMediaTimeIntervalS1_ @ 668 NONAME
	_ZmiRK15QMediaTimeRangeS1_ @ 669 NONAME
	_ZneRK15QMediaTimeRangeS1_ @ 670 NONAME
	_ZneRK18QMediaTimeIntervalS1_ @ 671 NONAME
	_ZplRK15QMediaTimeRangeS1_ @ 672 NONAME

