EXPORTS
	_Z5qHashRK12QHostAddress @ 1 NONAME
	_ZN10QSslCipherC1ERK7QStringN4QSsl11SslProtocolE @ 2 NONAME
	_ZN10QSslCipherC1ERKS_ @ 3 NONAME
	_ZN10QSslCipherC1Ev @ 4 NONAME
	_ZN10QSslCipherC2ERK7QStringN4QSsl11SslProtocolE @ 5 NONAME
	_ZN10QSslCipherC2ERKS_ @ 6 NONAME
	_ZN10QSslCipherC2Ev @ 7 NONAME
	_ZN10QSslCipherD1Ev @ 8 NONAME
	_ZN10QSslCipherD2Ev @ 9 NONAME
	_ZN10QSslCipheraSERKS_ @ 10 NONAME
	_ZN10QSslSocket10setCiphersERK5QListI10QSslCipherE @ 11 NONAME
	_ZN10QSslSocket10setCiphersERK7QString @ 12 NONAME
	_ZN10QSslSocket11modeChangedENS_7SslModeE @ 13 NONAME
	_ZN10QSslSocket11qt_metacallEN11QMetaObject4CallEiPPv @ 14 NONAME
	_ZN10QSslSocket11qt_metacastEPKc @ 15 NONAME
	_ZN10QSslSocket11setProtocolEN4QSsl11SslProtocolE @ 16 NONAME
	_ZN10QSslSocket11supportsSslEv @ 17 NONAME
	_ZN10QSslSocket13setPrivateKeyERK7QSslKey @ 18 NONAME
	_ZN10QSslSocket13setPrivateKeyERK7QStringN4QSsl12KeyAlgorithmENS3_14EncodingFormatERK10QByteArray @ 19 NONAME
	_ZN10QSslSocket14defaultCiphersEv @ 20 NONAME
	_ZN10QSslSocket15ignoreSslErrorsEv @ 21 NONAME
	_ZN10QSslSocket15peerVerifyErrorERK9QSslError @ 22 NONAME
	_ZN10QSslSocket16addCaCertificateERK15QSslCertificate @ 23 NONAME
	_ZN10QSslSocket16staticMetaObjectE @ 24 NONAME DATA 16
	_ZN10QSslSocket16supportedCiphersEv @ 25 NONAME
	_ZN10QSslSocket16waitForConnectedEi @ 26 NONAME
	_ZN10QSslSocket16waitForEncryptedEi @ 27 NONAME
	_ZN10QSslSocket16waitForReadyReadEi @ 28 NONAME
	_ZN10QSslSocket17addCaCertificatesERK5QListI15QSslCertificateE @ 29 NONAME
	_ZN10QSslSocket17addCaCertificatesERK7QStringN4QSsl14EncodingFormatEN7QRegExp13PatternSyntaxE @ 30 NONAME
	_ZN10QSslSocket17setCaCertificatesERK5QListI15QSslCertificateE @ 31 NONAME
	_ZN10QSslSocket17setDefaultCiphersERK5QListI10QSslCipherE @ 32 NONAME
	_ZN10QSslSocket17setPeerVerifyModeENS_14PeerVerifyModeE @ 33 NONAME
	_ZN10QSslSocket17setReadBufferSizeEx @ 34 NONAME
	_ZN10QSslSocket18setPeerVerifyDepthEi @ 35 NONAME
	_ZN10QSslSocket19setLocalCertificateERK15QSslCertificate @ 36 NONAME
	_ZN10QSslSocket19setLocalCertificateERK7QStringN4QSsl14EncodingFormatE @ 37 NONAME
	_ZN10QSslSocket19setSocketDescriptorEiN15QAbstractSocket11SocketStateE6QFlagsIN9QIODevice12OpenModeFlagEE @ 38 NONAME
	_ZN10QSslSocket19setSslConfigurationERK17QSslConfiguration @ 39 NONAME
	_ZN10QSslSocket19waitForBytesWrittenEi @ 40 NONAME
	_ZN10QSslSocket19waitForDisconnectedEi @ 41 NONAME
	_ZN10QSslSocket20systemCaCertificatesEv @ 42 NONAME
	_ZN10QSslSocket21defaultCaCertificatesEv @ 43 NONAME
	_ZN10QSslSocket21encryptedBytesWrittenEx @ 44 NONAME
	_ZN10QSslSocket21startClientEncryptionEv @ 45 NONAME
	_ZN10QSslSocket21startServerEncryptionEv @ 46 NONAME
	_ZN10QSslSocket22connectToHostEncryptedERK7QStringt6QFlagsIN9QIODevice12OpenModeFlagEE @ 47 NONAME
	_ZN10QSslSocket23addDefaultCaCertificateERK15QSslCertificate @ 48 NONAME
	_ZN10QSslSocket24addDefaultCaCertificatesERK5QListI15QSslCertificateE @ 49 NONAME
	_ZN10QSslSocket24addDefaultCaCertificatesERK7QStringN4QSsl14EncodingFormatEN7QRegExp13PatternSyntaxE @ 50 NONAME
	_ZN10QSslSocket24setDefaultCaCertificatesERK5QListI15QSslCertificateE @ 51 NONAME
	_ZN10QSslSocket27connectToHostImplementationERK7QStringt6QFlagsIN9QIODevice12OpenModeFlagEE @ 52 NONAME
	_ZN10QSslSocket32disconnectFromHostImplementationEv @ 53 NONAME
	_ZN10QSslSocket5abortEv @ 54 NONAME
	_ZN10QSslSocket5closeEv @ 55 NONAME
	_ZN10QSslSocket5flushEv @ 56 NONAME
	_ZN10QSslSocket8readDataEPcx @ 57 NONAME
	_ZN10QSslSocket9encryptedEv @ 58 NONAME
	_ZN10QSslSocket9sslErrorsERK5QListI9QSslErrorE @ 59 NONAME
	_ZN10QSslSocket9writeDataEPKcx @ 60 NONAME
	_ZN10QSslSocketC1EP7QObject @ 61 NONAME
	_ZN10QSslSocketC2EP7QObject @ 62 NONAME
	_ZN10QSslSocketD0Ev @ 63 NONAME
	_ZN10QSslSocketD1Ev @ 64 NONAME
	_ZN10QSslSocketD2Ev @ 65 NONAME
	_ZN10QTcpServer11qt_metacallEN11QMetaObject4CallEiPPv @ 66 NONAME
	_ZN10QTcpServer11qt_metacastEPKc @ 67 NONAME
	_ZN10QTcpServer13newConnectionEv @ 68 NONAME
	_ZN10QTcpServer16staticMetaObjectE @ 69 NONAME DATA 16
	_ZN10QTcpServer18incomingConnectionEi @ 70 NONAME
	_ZN10QTcpServer19setSocketDescriptorEi @ 71 NONAME
	_ZN10QTcpServer20waitForNewConnectionEiPb @ 72 NONAME
	_ZN10QTcpServer21nextPendingConnectionEv @ 73 NONAME
	_ZN10QTcpServer24setMaxPendingConnectionsEi @ 74 NONAME
	_ZN10QTcpServer5closeEv @ 75 NONAME
	_ZN10QTcpServer6listenERK12QHostAddresst @ 76 NONAME
	_ZN10QTcpServer8setProxyERK13QNetworkProxy @ 77 NONAME
	_ZN10QTcpServerC1EP7QObject @ 78 NONAME
	_ZN10QTcpServerC2EP7QObject @ 79 NONAME
	_ZN10QTcpServerD0Ev @ 80 NONAME
	_ZN10QTcpServerD1Ev @ 81 NONAME
	_ZN10QTcpServerD2Ev @ 82 NONAME
	_ZN10QTcpSocket11qt_metacallEN11QMetaObject4CallEiPPv @ 83 NONAME
	_ZN10QTcpSocket11qt_metacastEPKc @ 84 NONAME
	_ZN10QTcpSocket16staticMetaObjectE @ 85 NONAME DATA 16
	_ZN10QTcpSocketC1EP7QObject @ 86 NONAME
	_ZN10QTcpSocketC1ER17QTcpSocketPrivateP7QObject @ 87 NONAME
	_ZN10QTcpSocketC2EP7QObject @ 88 NONAME
	_ZN10QTcpSocketC2ER17QTcpSocketPrivateP7QObject @ 89 NONAME
	_ZN10QTcpSocketD0Ev @ 90 NONAME
	_ZN10QTcpSocketD1Ev @ 91 NONAME
	_ZN10QTcpSocketD2Ev @ 92 NONAME
	_ZN10QUdpSocket11qt_metacallEN11QMetaObject4CallEiPPv @ 93 NONAME
	_ZN10QUdpSocket11qt_metacastEPKc @ 94 NONAME
	_ZN10QUdpSocket12readDatagramEPcxP12QHostAddressPt @ 95 NONAME
	_ZN10QUdpSocket13writeDatagramEPKcxRK12QHostAddresst @ 96 NONAME
	_ZN10QUdpSocket16staticMetaObjectE @ 97 NONAME DATA 16
	_ZN10QUdpSocket4bindERK12QHostAddresst @ 98 NONAME
	_ZN10QUdpSocket4bindERK12QHostAddresst6QFlagsINS_8BindFlagEE @ 99 NONAME
	_ZN10QUdpSocket4bindEt @ 100 NONAME
	_ZN10QUdpSocket4bindEt6QFlagsINS_8BindFlagEE @ 101 NONAME
	_ZN10QUdpSocketC1EP7QObject @ 102 NONAME
	_ZN10QUdpSocketC2EP7QObject @ 103 NONAME
	_ZN10QUdpSocketD0Ev @ 104 NONAME
	_ZN10QUdpSocketD1Ev @ 105 NONAME
	_ZN10QUdpSocketD2Ev @ 106 NONAME
	_ZN11QHttpHeader11removeValueERK7QString @ 107 NONAME
	_ZN11QHttpHeader14setContentTypeERK7QString @ 108 NONAME
	_ZN11QHttpHeader15removeAllValuesERK7QString @ 109 NONAME
	_ZN11QHttpHeader16setContentLengthEi @ 110 NONAME
	_ZN11QHttpHeader5parseERK7QString @ 111 NONAME
	_ZN11QHttpHeader8addValueERK7QStringS2_ @ 112 NONAME
	_ZN11QHttpHeader8setValidEb @ 113 NONAME
	_ZN11QHttpHeader8setValueERK7QStringS2_ @ 114 NONAME
	_ZN11QHttpHeader9parseLineERK7QStringi @ 115 NONAME
	_ZN11QHttpHeader9setValuesERK5QListI5QPairI7QStringS2_EE @ 116 NONAME
	_ZN11QHttpHeaderC2ER18QHttpHeaderPrivateRK7QString @ 117 NONAME
	_ZN11QHttpHeaderC2ER18QHttpHeaderPrivateRKS_ @ 118 NONAME
	_ZN11QHttpHeaderC2ERK7QString @ 119 NONAME
	_ZN11QHttpHeaderC2ERKS_ @ 120 NONAME
	_ZN11QHttpHeaderC2Ev @ 121 NONAME
	_ZN11QHttpHeaderD0Ev @ 122 NONAME
	_ZN11QHttpHeaderD1Ev @ 123 NONAME
	_ZN11QHttpHeaderD2Ev @ 124 NONAME
	_ZN11QHttpHeaderaSERKS_ @ 125 NONAME
	_ZN12QHostAddress10setAddressEPK8sockaddr @ 126 NONAME
	_ZN12QHostAddress10setAddressEPh @ 127 NONAME
	_ZN12QHostAddress10setAddressERK12QIPv6Address @ 128 NONAME
	_ZN12QHostAddress10setAddressERK7QString @ 129 NONAME
	_ZN12QHostAddress10setAddressEj @ 130 NONAME
	_ZN12QHostAddress10setScopeIdERK7QString @ 131 NONAME
	_ZN12QHostAddress11parseSubnetERK7QString @ 132 NONAME
	_ZN12QHostAddress5clearEv @ 133 NONAME
	_ZN12QHostAddressC1ENS_14SpecialAddressE @ 134 NONAME
	_ZN12QHostAddressC1EPK8sockaddr @ 135 NONAME
	_ZN12QHostAddressC1EPh @ 136 NONAME
	_ZN12QHostAddressC1ERK12QIPv6Address @ 137 NONAME
	_ZN12QHostAddressC1ERK7QString @ 138 NONAME
	_ZN12QHostAddressC1ERKS_ @ 139 NONAME
	_ZN12QHostAddressC1Ej @ 140 NONAME
	_ZN12QHostAddressC1Ev @ 141 NONAME
	_ZN12QHostAddressC2ENS_14SpecialAddressE @ 142 NONAME
	_ZN12QHostAddressC2EPK8sockaddr @ 143 NONAME
	_ZN12QHostAddressC2EPh @ 144 NONAME
	_ZN12QHostAddressC2ERK12QIPv6Address @ 145 NONAME
	_ZN12QHostAddressC2ERK7QString @ 146 NONAME
	_ZN12QHostAddressC2ERKS_ @ 147 NONAME
	_ZN12QHostAddressC2Ej @ 148 NONAME
	_ZN12QHostAddressC2Ev @ 149 NONAME
	_ZN12QHostAddressD1Ev @ 150 NONAME
	_ZN12QHostAddressD2Ev @ 151 NONAME
	_ZN12QHostAddressaSERK7QString @ 152 NONAME
	_ZN12QHostAddressaSERKS_ @ 153 NONAME
	_ZN12QLocalServer11qt_metacallEN11QMetaObject4CallEiPPv @ 154 NONAME
	_ZN12QLocalServer11qt_metacastEPKc @ 155 NONAME
	_ZN12QLocalServer12removeServerERK7QString @ 156 NONAME
	_ZN12QLocalServer13newConnectionEv @ 157 NONAME
	_ZN12QLocalServer16staticMetaObjectE @ 158 NONAME DATA 16
	_ZN12QLocalServer18incomingConnectionEj @ 159 NONAME
	_ZN12QLocalServer20waitForNewConnectionEiPb @ 160 NONAME
	_ZN12QLocalServer21nextPendingConnectionEv @ 161 NONAME
	_ZN12QLocalServer24setMaxPendingConnectionsEi @ 162 NONAME
	_ZN12QLocalServer5closeEv @ 163 NONAME
	_ZN12QLocalServer6listenERK7QString @ 164 NONAME
	_ZN12QLocalServerC1EP7QObject @ 165 NONAME
	_ZN12QLocalServerC2EP7QObject @ 166 NONAME
	_ZN12QLocalServerD0Ev @ 167 NONAME
	_ZN12QLocalServerD1Ev @ 168 NONAME
	_ZN12QLocalServerD2Ev @ 169 NONAME
	_ZN12QLocalSocket11qt_metacallEN11QMetaObject4CallEiPPv @ 170 NONAME
	_ZN12QLocalSocket11qt_metacastEPKc @ 171 NONAME
	_ZN12QLocalSocket12disconnectedEv @ 172 NONAME
	_ZN12QLocalSocket12stateChangedENS_16LocalSocketStateE @ 173 NONAME
	_ZN12QLocalSocket15connectToServerERK7QString6QFlagsIN9QIODevice12OpenModeFlagEE @ 174 NONAME
	_ZN12QLocalSocket16staticMetaObjectE @ 175 NONAME DATA 16
	_ZN12QLocalSocket16waitForConnectedEi @ 176 NONAME
	_ZN12QLocalSocket16waitForReadyReadEi @ 177 NONAME
	_ZN12QLocalSocket17setReadBufferSizeEx @ 178 NONAME
	_ZN12QLocalSocket19setSocketDescriptorEjNS_16LocalSocketStateE6QFlagsIN9QIODevice12OpenModeFlagEE @ 179 NONAME
	_ZN12QLocalSocket19waitForBytesWrittenEi @ 180 NONAME
	_ZN12QLocalSocket19waitForDisconnectedEi @ 181 NONAME
	_ZN12QLocalSocket20disconnectFromServerEv @ 182 NONAME
	_ZN12QLocalSocket5abortEv @ 183 NONAME
	_ZN12QLocalSocket5closeEv @ 184 NONAME
	_ZN12QLocalSocket5errorENS_16LocalSocketErrorE @ 185 NONAME
	_ZN12QLocalSocket5flushEv @ 186 NONAME
	_ZN12QLocalSocket8readDataEPcx @ 187 NONAME
	_ZN12QLocalSocket9connectedEv @ 188 NONAME
	_ZN12QLocalSocket9writeDataEPKcx @ 189 NONAME
	_ZN12QLocalSocketC1EP7QObject @ 190 NONAME
	_ZN12QLocalSocketC2EP7QObject @ 191 NONAME
	_ZN12QLocalSocketD0Ev @ 192 NONAME
	_ZN12QLocalSocketD1Ev @ 193 NONAME
	_ZN12QLocalSocketD2Ev @ 194 NONAME
	_ZN13QNetworkProxy11setHostNameERK7QString @ 195 NONAME
	_ZN13QNetworkProxy11setPasswordERK7QString @ 196 NONAME
	_ZN13QNetworkProxy15setCapabilitiesE6QFlagsINS_10CapabilityEE @ 197 NONAME
	_ZN13QNetworkProxy16applicationProxyEv @ 198 NONAME
	_ZN13QNetworkProxy19setApplicationProxyERKS_ @ 199 NONAME
	_ZN13QNetworkProxy7setPortEt @ 200 NONAME
	_ZN13QNetworkProxy7setTypeENS_9ProxyTypeE @ 201 NONAME
	_ZN13QNetworkProxy7setUserERK7QString @ 202 NONAME
	_ZN13QNetworkProxyC1ENS_9ProxyTypeERK7QStringtS3_S3_ @ 203 NONAME
	_ZN13QNetworkProxyC1ERKS_ @ 204 NONAME
	_ZN13QNetworkProxyC1Ev @ 205 NONAME
	_ZN13QNetworkProxyC2ENS_9ProxyTypeERK7QStringtS3_S3_ @ 206 NONAME
	_ZN13QNetworkProxyC2ERKS_ @ 207 NONAME
	_ZN13QNetworkProxyC2Ev @ 208 NONAME
	_ZN13QNetworkProxyD1Ev @ 209 NONAME
	_ZN13QNetworkProxyD2Ev @ 210 NONAME
	_ZN13QNetworkProxyaSERKS_ @ 211 NONAME
	_ZN13QNetworkReply10setRequestERK15QNetworkRequest @ 212 NONAME
	_ZN13QNetworkReply11qt_metacallEN11QMetaObject4CallEiPPv @ 213 NONAME
	_ZN13QNetworkReply11qt_metacastEPKc @ 214 NONAME
	_ZN13QNetworkReply12setAttributeEN15QNetworkRequest9AttributeERK8QVariant @ 215 NONAME
	_ZN13QNetworkReply12setOperationEN21QNetworkAccessManager9OperationE @ 216 NONAME
	_ZN13QNetworkReply12setRawHeaderERK10QByteArrayS2_ @ 217 NONAME
	_ZN13QNetworkReply14uploadProgressExx @ 218 NONAME
	_ZN13QNetworkReply15ignoreSslErrorsEv @ 219 NONAME
	_ZN13QNetworkReply15metaDataChangedEv @ 220 NONAME
	_ZN13QNetworkReply16downloadProgressExx @ 221 NONAME
	_ZN13QNetworkReply16staticMetaObjectE @ 222 NONAME DATA 16
	_ZN13QNetworkReply17setReadBufferSizeEx @ 223 NONAME
	_ZN13QNetworkReply19setSslConfigurationERK17QSslConfiguration @ 224 NONAME
	_ZN13QNetworkReply5closeEv @ 225 NONAME
	_ZN13QNetworkReply5errorENS_12NetworkErrorE @ 226 NONAME
	_ZN13QNetworkReply6setUrlERK4QUrl @ 227 NONAME
	_ZN13QNetworkReply8finishedEv @ 228 NONAME
	_ZN13QNetworkReply8setErrorENS_12NetworkErrorERK7QString @ 229 NONAME
	_ZN13QNetworkReply9setHeaderEN15QNetworkRequest12KnownHeadersERK8QVariant @ 230 NONAME
	_ZN13QNetworkReply9sslErrorsERK5QListI9QSslErrorE @ 231 NONAME
	_ZN13QNetworkReply9writeDataEPKcx @ 232 NONAME
	_ZN13QNetworkReplyC2EP7QObject @ 233 NONAME
	_ZN13QNetworkReplyC2ER20QNetworkReplyPrivateP7QObject @ 234 NONAME
	_ZN13QNetworkReplyD0Ev @ 235 NONAME
	_ZN13QNetworkReplyD1Ev @ 236 NONAME
	_ZN13QNetworkReplyD2Ev @ 237 NONAME
	_ZN14QAuthenticator11setPasswordERK7QString @ 238 NONAME
	_ZN14QAuthenticator6detachEv @ 239 NONAME
	_ZN14QAuthenticator7setUserERK7QString @ 240 NONAME
	_ZN14QAuthenticatorC1ERKS_ @ 241 NONAME
	_ZN14QAuthenticatorC1Ev @ 242 NONAME
	_ZN14QAuthenticatorC2ERKS_ @ 243 NONAME
	_ZN14QAuthenticatorC2Ev @ 244 NONAME
	_ZN14QAuthenticatorD1Ev @ 245 NONAME
	_ZN14QAuthenticatorD2Ev @ 246 NONAME
	_ZN14QAuthenticatoraSERKS_ @ 247 NONAME
	_ZN14QNetworkCookie11setHttpOnlyEb @ 248 NONAME
	_ZN14QNetworkCookie12parseCookiesERK10QByteArray @ 249 NONAME
	_ZN14QNetworkCookie17setExpirationDateERK9QDateTime @ 250 NONAME
	_ZN14QNetworkCookie7setNameERK10QByteArray @ 251 NONAME
	_ZN14QNetworkCookie7setPathERK7QString @ 252 NONAME
	_ZN14QNetworkCookie8setValueERK10QByteArray @ 253 NONAME
	_ZN14QNetworkCookie9setDomainERK7QString @ 254 NONAME
	_ZN14QNetworkCookie9setSecureEb @ 255 NONAME
	_ZN14QNetworkCookieC1ERK10QByteArray @ 256 NONAME ABSENT
	_ZN14QNetworkCookieC1ERK10QByteArrayS2_ @ 257 NONAME ABSENT
	_ZN14QNetworkCookieC1ERKS_ @ 258 NONAME
	_ZN14QNetworkCookieC1Ev @ 259 NONAME ABSENT
	_ZN14QNetworkCookieC2ERK10QByteArray @ 260 NONAME ABSENT
	_ZN14QNetworkCookieC2ERK10QByteArrayS2_ @ 261 NONAME ABSENT
	_ZN14QNetworkCookieC2ERKS_ @ 262 NONAME
	_ZN14QNetworkCookieC2Ev @ 263 NONAME ABSENT
	_ZN14QNetworkCookieD1Ev @ 264 NONAME
	_ZN14QNetworkCookieD2Ev @ 265 NONAME
	_ZN14QNetworkCookieaSERKS_ @ 266 NONAME
	_ZN15QAbstractSocket11qt_metacallEN11QMetaObject4CallEiPPv @ 267 NONAME
	_ZN15QAbstractSocket11qt_metacastEPKc @ 268 NONAME
	_ZN15QAbstractSocket11setPeerNameERK7QString @ 269 NONAME
	_ZN15QAbstractSocket11setPeerPortEt @ 270 NONAME
	_ZN15QAbstractSocket12disconnectedEv @ 271 NONAME
	_ZN15QAbstractSocket12readLineDataEPcx @ 272 NONAME
	_ZN15QAbstractSocket12setLocalPortEt @ 273 NONAME
	_ZN15QAbstractSocket12stateChangedENS_11SocketStateE @ 274 NONAME
	_ZN15QAbstractSocket13connectToHostERK12QHostAddresst6QFlagsIN9QIODevice12OpenModeFlagEE @ 275 NONAME
	_ZN15QAbstractSocket13connectToHostERK7QStringt6QFlagsIN9QIODevice12OpenModeFlagEE @ 276 NONAME
	_ZN15QAbstractSocket14setPeerAddressERK12QHostAddress @ 277 NONAME
	_ZN15QAbstractSocket14setSocketErrorENS_11SocketErrorE @ 278 NONAME
	_ZN15QAbstractSocket14setSocketStateENS_11SocketStateE @ 279 NONAME
	_ZN15QAbstractSocket15setLocalAddressERK12QHostAddress @ 280 NONAME
	_ZN15QAbstractSocket16staticMetaObjectE @ 281 NONAME DATA 16
	_ZN15QAbstractSocket16waitForConnectedEi @ 282 NONAME
	_ZN15QAbstractSocket16waitForReadyReadEi @ 283 NONAME
	_ZN15QAbstractSocket17setReadBufferSizeEx @ 284 NONAME
	_ZN15QAbstractSocket18disconnectFromHostEv @ 285 NONAME
	_ZN15QAbstractSocket19setSocketDescriptorEiNS_11SocketStateE6QFlagsIN9QIODevice12OpenModeFlagEE @ 286 NONAME
	_ZN15QAbstractSocket19waitForBytesWrittenEi @ 287 NONAME
	_ZN15QAbstractSocket19waitForDisconnectedEi @ 288 NONAME
	_ZN15QAbstractSocket27connectToHostImplementationERK7QStringt6QFlagsIN9QIODevice12OpenModeFlagEE @ 289 NONAME
	_ZN15QAbstractSocket27proxyAuthenticationRequiredERK13QNetworkProxyP14QAuthenticator @ 290 NONAME
	_ZN15QAbstractSocket32disconnectFromHostImplementationEv @ 291 NONAME
	_ZN15QAbstractSocket5abortEv @ 292 NONAME
	_ZN15QAbstractSocket5closeEv @ 293 NONAME
	_ZN15QAbstractSocket5errorENS_11SocketErrorE @ 294 NONAME
	_ZN15QAbstractSocket5flushEv @ 295 NONAME
	_ZN15QAbstractSocket8readDataEPcx @ 296 NONAME
	_ZN15QAbstractSocket8setProxyERK13QNetworkProxy @ 297 NONAME
	_ZN15QAbstractSocket9connectedEv @ 298 NONAME
	_ZN15QAbstractSocket9hostFoundEv @ 299 NONAME
	_ZN15QAbstractSocket9writeDataEPKcx @ 300 NONAME
	_ZN15QAbstractSocketC1ENS_10SocketTypeEP7QObject @ 301 NONAME
	_ZN15QAbstractSocketC1ENS_10SocketTypeER22QAbstractSocketPrivateP7QObject @ 302 NONAME
	_ZN15QAbstractSocketC2ENS_10SocketTypeEP7QObject @ 303 NONAME
	_ZN15QAbstractSocketC2ENS_10SocketTypeER22QAbstractSocketPrivateP7QObject @ 304 NONAME
	_ZN15QAbstractSocketD0Ev @ 305 NONAME
	_ZN15QAbstractSocketD1Ev @ 306 NONAME
	_ZN15QAbstractSocketD2Ev @ 307 NONAME
	_ZN15QNetworkRequest12setAttributeENS_9AttributeERK8QVariant @ 308 NONAME
	_ZN15QNetworkRequest12setRawHeaderERK10QByteArrayS2_ @ 309 NONAME
	_ZN15QNetworkRequest19setSslConfigurationERK17QSslConfiguration @ 310 NONAME
	_ZN15QNetworkRequest6setUrlERK4QUrl @ 311 NONAME
	_ZN15QNetworkRequest9setHeaderENS_12KnownHeadersERK8QVariant @ 312 NONAME
	_ZN15QNetworkRequestC1ERK4QUrl @ 313 NONAME
	_ZN15QNetworkRequestC1ERKS_ @ 314 NONAME
	_ZN15QNetworkRequestC1Ev @ 315 NONAME ABSENT
	_ZN15QNetworkRequestC2ERK4QUrl @ 316 NONAME
	_ZN15QNetworkRequestC2ERKS_ @ 317 NONAME
	_ZN15QNetworkRequestC2Ev @ 318 NONAME ABSENT
	_ZN15QNetworkRequestD1Ev @ 319 NONAME
	_ZN15QNetworkRequestD2Ev @ 320 NONAME
	_ZN15QNetworkRequestaSERKS_ @ 321 NONAME
	_ZN15QSslCertificate10fromDeviceEP9QIODeviceN4QSsl14EncodingFormatE @ 322 NONAME
	_ZN15QSslCertificate5clearEv @ 323 NONAME
	_ZN15QSslCertificate8fromDataERK10QByteArrayN4QSsl14EncodingFormatE @ 324 NONAME
	_ZN15QSslCertificate8fromPathERK7QStringN4QSsl14EncodingFormatEN7QRegExp13PatternSyntaxE @ 325 NONAME
	_ZN15QSslCertificateC1EP9QIODeviceN4QSsl14EncodingFormatE @ 326 NONAME
	_ZN15QSslCertificateC1ERK10QByteArrayN4QSsl14EncodingFormatE @ 327 NONAME
	_ZN15QSslCertificateC1ERKS_ @ 328 NONAME
	_ZN15QSslCertificateC2EP9QIODeviceN4QSsl14EncodingFormatE @ 329 NONAME
	_ZN15QSslCertificateC2ERK10QByteArrayN4QSsl14EncodingFormatE @ 330 NONAME
	_ZN15QSslCertificateC2ERKS_ @ 331 NONAME
	_ZN15QSslCertificateD1Ev @ 332 NONAME
	_ZN15QSslCertificateD2Ev @ 333 NONAME
	_ZN15QSslCertificateaSERKS_ @ 334 NONAME
	_ZN17QHttpNetworkReply10setRequestERK19QHttpNetworkRequest @ 335 NONAME
	_ZN17QHttpNetworkReply11parseHeaderERK10QByteArray @ 336 NONAME
	_ZN17QHttpNetworkReply11qt_metacallEN11QMetaObject4CallEiPPv @ 337 NONAME
	_ZN17QHttpNetworkReply11qt_metacastEPKc @ 338 NONAME
	_ZN17QHttpNetworkReply13headerChangedEv @ 339 NONAME
	_ZN17QHttpNetworkReply13setStatusCodeEi @ 340 NONAME
	_ZN17QHttpNetworkReply14setErrorStringERK7QString @ 341 NONAME
	_ZN17QHttpNetworkReply14setHeaderFieldERK10QByteArrayS2_ @ 342 NONAME
	_ZN17QHttpNetworkReply15ignoreSslErrorsEv @ 343 NONAME
	_ZN17QHttpNetworkReply16dataReadProgressEii @ 344 NONAME
	_ZN17QHttpNetworkReply16dataSendProgressEii @ 345 NONAME ABSENT
	_ZN17QHttpNetworkReply16setContentLengthEx @ 346 NONAME
	_ZN17QHttpNetworkReply16staticMetaObjectE @ 347 NONAME DATA 16
	_ZN17QHttpNetworkReply17finishedWithErrorEN13QNetworkReply12NetworkErrorERK7QString @ 348 NONAME
	_ZN17QHttpNetworkReply19setSslConfigurationERK17QSslConfiguration @ 349 NONAME
	_ZN17QHttpNetworkReply4readEx @ 350 NONAME ABSENT
	_ZN17QHttpNetworkReply6setUrlERK4QUrl @ 351 NONAME
	_ZN17QHttpNetworkReply8finishedEv @ 352 NONAME
	_ZN17QHttpNetworkReply9readyReadEv @ 353 NONAME
	_ZN17QHttpNetworkReply9sslErrorsERK5QListI9QSslErrorE @ 354 NONAME
	_ZN17QHttpNetworkReplyC1ERK4QUrlP7QObject @ 355 NONAME
	_ZN17QHttpNetworkReplyC2ERK4QUrlP7QObject @ 356 NONAME
	_ZN17QHttpNetworkReplyD0Ev @ 357 NONAME
	_ZN17QHttpNetworkReplyD1Ev @ 358 NONAME
	_ZN17QHttpNetworkReplyD2Ev @ 359 NONAME
	_ZN17QHttpSocketEngine10initializeEN15QAbstractSocket10SocketTypeENS0_20NetworkLayerProtocolE @ 360 NONAME
	_ZN17QHttpSocketEngine10initializeEiN15QAbstractSocket11SocketStateE @ 361 NONAME
	_ZN17QHttpSocketEngine11qt_metacallEN11QMetaObject4CallEiPPv @ 362 NONAME
	_ZN17QHttpSocketEngine11qt_metacastEPKc @ 363 NONAME
	_ZN17QHttpSocketEngine11waitForReadEiPb @ 364 NONAME
	_ZN17QHttpSocketEngine12readDatagramEPcxP12QHostAddressPt @ 365 NONAME
	_ZN17QHttpSocketEngine12waitForWriteEiPb @ 366 NONAME
	_ZN17QHttpSocketEngine13connectToHostERK12QHostAddresst @ 367 NONAME
	_ZN17QHttpSocketEngine13writeDatagramEPKcxRK12QHostAddresst @ 368 NONAME
	_ZN17QHttpSocketEngine15connectInternalEv @ 369 NONAME
	_ZN17QHttpSocketEngine15slotSocketErrorEN15QAbstractSocket11SocketErrorE @ 370 NONAME
	_ZN17QHttpSocketEngine16staticMetaObjectE @ 371 NONAME DATA 16
	_ZN17QHttpSocketEngine18waitForReadOrWriteEPbS0_bbiS0_ @ 372 NONAME
	_ZN17QHttpSocketEngine19connectToHostByNameERK7QStringt @ 373 NONAME
	_ZN17QHttpSocketEngine19slotSocketConnectedEv @ 374 NONAME
	_ZN17QHttpSocketEngine20emitReadNotificationEv @ 375 NONAME
	_ZN17QHttpSocketEngine21emitWriteNotificationEv @ 376 NONAME
	_ZN17QHttpSocketEngine22slotSocketBytesWrittenEv @ 377 NONAME
	_ZN17QHttpSocketEngine22slotSocketDisconnectedEv @ 378 NONAME
	_ZN17QHttpSocketEngine22slotSocketStateChangedEN15QAbstractSocket11SocketStateE @ 379 NONAME
	_ZN17QHttpSocketEngine26emitConnectionNotificationEv @ 380 NONAME
	_ZN17QHttpSocketEngine26setReadNotificationEnabledEb @ 381 NONAME
	_ZN17QHttpSocketEngine26slotSocketReadNotificationEv @ 382 NONAME
	_ZN17QHttpSocketEngine27emitPendingReadNotificationEv @ 383 NONAME
	_ZN17QHttpSocketEngine27setWriteNotificationEnabledEb @ 384 NONAME
	_ZN17QHttpSocketEngine28emitPendingWriteNotificationEv @ 385 NONAME
	_ZN17QHttpSocketEngine31setExceptionNotificationEnabledEb @ 386 NONAME
	_ZN17QHttpSocketEngine33emitPendingConnectionNotificationEv @ 387 NONAME
	_ZN17QHttpSocketEngine4bindERK12QHostAddresst @ 388 NONAME
	_ZN17QHttpSocketEngine4readEPcx @ 389 NONAME
	_ZN17QHttpSocketEngine5closeEv @ 390 NONAME
	_ZN17QHttpSocketEngine5writeEPKcx @ 391 NONAME
	_ZN17QHttpSocketEngine6acceptEv @ 392 NONAME
	_ZN17QHttpSocketEngine6listenEv @ 393 NONAME
	_ZN17QHttpSocketEngine8setProxyERK13QNetworkProxy @ 394 NONAME
	_ZN17QHttpSocketEngine9setOptionEN21QAbstractSocketEngine12SocketOptionEi @ 395 NONAME
	_ZN17QHttpSocketEngineC1EP7QObject @ 396 NONAME
	_ZN17QHttpSocketEngineC2EP7QObject @ 397 NONAME
	_ZN17QHttpSocketEngineD0Ev @ 398 NONAME
	_ZN17QHttpSocketEngineD1Ev @ 399 NONAME
	_ZN17QHttpSocketEngineD2Ev @ 400 NONAME
	_ZN17QNetworkCookieJar11qt_metacallEN11QMetaObject4CallEiPPv @ 401 NONAME
	_ZN17QNetworkCookieJar11qt_metacastEPKc @ 402 NONAME
	_ZN17QNetworkCookieJar13setAllCookiesERK5QListI14QNetworkCookieE @ 403 NONAME
	_ZN17QNetworkCookieJar16staticMetaObjectE @ 404 NONAME DATA 16
	_ZN17QNetworkCookieJar17setCookiesFromUrlERK5QListI14QNetworkCookieERK4QUrl @ 405 NONAME
	_ZN17QNetworkCookieJarC1EP7QObject @ 406 NONAME
	_ZN17QNetworkCookieJarC2EP7QObject @ 407 NONAME
	_ZN17QNetworkCookieJarD0Ev @ 408 NONAME
	_ZN17QNetworkCookieJarD1Ev @ 409 NONAME
	_ZN17QNetworkCookieJarD2Ev @ 410 NONAME
	_ZN17QNetworkDiskCache11qt_metacallEN11QMetaObject4CallEiPPv @ 411 NONAME
	_ZN17QNetworkDiskCache11qt_metacastEPKc @ 412 NONAME
	_ZN17QNetworkDiskCache14updateMetaDataERK21QNetworkCacheMetaData @ 413 NONAME
	_ZN17QNetworkDiskCache16staticMetaObjectE @ 414 NONAME DATA 16
	_ZN17QNetworkDiskCache17setCacheDirectoryERK7QString @ 415 NONAME
	_ZN17QNetworkDiskCache19setMaximumCacheSizeEx @ 416 NONAME
	_ZN17QNetworkDiskCache4dataERK4QUrl @ 417 NONAME
	_ZN17QNetworkDiskCache5clearEv @ 418 NONAME
	_ZN17QNetworkDiskCache6expireEv @ 419 NONAME
	_ZN17QNetworkDiskCache6insertEP9QIODevice @ 420 NONAME
	_ZN17QNetworkDiskCache6removeERK4QUrl @ 421 NONAME
	_ZN17QNetworkDiskCache7prepareERK21QNetworkCacheMetaData @ 422 NONAME
	_ZN17QNetworkDiskCache8metaDataERK4QUrl @ 423 NONAME
	_ZN17QNetworkDiskCacheC1EP7QObject @ 424 NONAME
	_ZN17QNetworkDiskCacheC2EP7QObject @ 425 NONAME
	_ZN17QNetworkDiskCacheD0Ev @ 426 NONAME
	_ZN17QNetworkDiskCacheD1Ev @ 427 NONAME
	_ZN17QNetworkDiskCacheD2Ev @ 428 NONAME
	_ZN17QNetworkInterface12allAddressesEv @ 429 NONAME
	_ZN17QNetworkInterface13allInterfacesEv @ 430 NONAME
	_ZN17QNetworkInterface17interfaceFromNameERK7QString @ 431 NONAME
	_ZN17QNetworkInterface18interfaceFromIndexEi @ 432 NONAME
	_ZN17QNetworkInterfaceC1ERKS_ @ 433 NONAME
	_ZN17QNetworkInterfaceC1Ev @ 434 NONAME
	_ZN17QNetworkInterfaceC2ERKS_ @ 435 NONAME
	_ZN17QNetworkInterfaceC2Ev @ 436 NONAME
	_ZN17QNetworkInterfaceD1Ev @ 437 NONAME
	_ZN17QNetworkInterfaceD2Ev @ 438 NONAME
	_ZN17QNetworkInterfaceaSERKS_ @ 439 NONAME
	_ZN17QSslConfiguration10setCiphersERK5QListI10QSslCipherE @ 440 NONAME
	_ZN17QSslConfiguration11setProtocolEN4QSsl11SslProtocolE @ 441 NONAME
	_ZN17QSslConfiguration13setPrivateKeyERK7QSslKey @ 442 NONAME
	_ZN17QSslConfiguration17setCaCertificatesERK5QListI15QSslCertificateE @ 443 NONAME
	_ZN17QSslConfiguration17setPeerVerifyModeEN10QSslSocket14PeerVerifyModeE @ 444 NONAME
	_ZN17QSslConfiguration18setPeerVerifyDepthEi @ 445 NONAME
	_ZN17QSslConfiguration19setLocalCertificateERK15QSslCertificate @ 446 NONAME
	_ZN17QSslConfiguration20defaultConfigurationEv @ 447 NONAME
	_ZN17QSslConfiguration23setDefaultConfigurationERKS_ @ 448 NONAME
	_ZN17QSslConfigurationC1ERKS_ @ 449 NONAME
	_ZN17QSslConfigurationC1Ev @ 450 NONAME
	_ZN17QSslConfigurationC2ERKS_ @ 451 NONAME
	_ZN17QSslConfigurationC2Ev @ 452 NONAME
	_ZN17QSslConfigurationD1Ev @ 453 NONAME
	_ZN17QSslConfigurationD2Ev @ 454 NONAME
	_ZN17QSslConfigurationaSERKS_ @ 455 NONAME
	_ZN18QHttpRequestHeader10setRequestERK7QStringS2_ii @ 456 NONAME
	_ZN18QHttpRequestHeader9parseLineERK7QStringi @ 457 NONAME
	_ZN18QHttpRequestHeaderC1ERK7QString @ 458 NONAME
	_ZN18QHttpRequestHeaderC1ERK7QStringS2_ii @ 459 NONAME
	_ZN18QHttpRequestHeaderC1ERKS_ @ 460 NONAME
	_ZN18QHttpRequestHeaderC1Ev @ 461 NONAME
	_ZN18QHttpRequestHeaderC2ERK7QString @ 462 NONAME
	_ZN18QHttpRequestHeaderC2ERK7QStringS2_ii @ 463 NONAME
	_ZN18QHttpRequestHeaderC2ERKS_ @ 464 NONAME
	_ZN18QHttpRequestHeaderC2Ev @ 465 NONAME
	_ZN18QHttpRequestHeaderaSERKS_ @ 466 NONAME
	_ZN18QNetworkProxyQuery11setPeerPortEi @ 467 NONAME
	_ZN18QNetworkProxyQuery12setLocalPortEi @ 468 NONAME
	_ZN18QNetworkProxyQuery12setQueryTypeENS_9QueryTypeE @ 469 NONAME
	_ZN18QNetworkProxyQuery14setProtocolTagERK7QString @ 470 NONAME
	_ZN18QNetworkProxyQuery15setPeerHostNameERK7QString @ 471 NONAME
	_ZN18QNetworkProxyQuery6setUrlERK4QUrl @ 472 NONAME
	_ZN18QNetworkProxyQueryC1ERK4QUrlNS_9QueryTypeE @ 473 NONAME
	_ZN18QNetworkProxyQueryC1ERK7QStringiS2_NS_9QueryTypeE @ 474 NONAME
	_ZN18QNetworkProxyQueryC1ERKS_ @ 475 NONAME
	_ZN18QNetworkProxyQueryC1EtRK7QStringNS_9QueryTypeE @ 476 NONAME
	_ZN18QNetworkProxyQueryC1Ev @ 477 NONAME
	_ZN18QNetworkProxyQueryC2ERK4QUrlNS_9QueryTypeE @ 478 NONAME
	_ZN18QNetworkProxyQueryC2ERK7QStringiS2_NS_9QueryTypeE @ 479 NONAME
	_ZN18QNetworkProxyQueryC2ERKS_ @ 480 NONAME
	_ZN18QNetworkProxyQueryC2EtRK7QStringNS_9QueryTypeE @ 481 NONAME
	_ZN18QNetworkProxyQueryC2Ev @ 482 NONAME
	_ZN18QNetworkProxyQueryD1Ev @ 483 NONAME
	_ZN18QNetworkProxyQueryD2Ev @ 484 NONAME
	_ZN18QNetworkProxyQueryaSERKS_ @ 485 NONAME
	_ZN19QHttpNetworkRequest11setPriorityENS_8PriorityE @ 486 NONAME
	_ZN19QHttpNetworkRequest12setOperationENS_9OperationE @ 487 NONAME
	_ZN19QHttpNetworkRequest14setHeaderFieldERK10QByteArrayS2_ @ 488 NONAME
	_ZN19QHttpNetworkRequest16setContentLengthEx @ 489 NONAME
	_ZN19QHttpNetworkRequest6setUrlERK4QUrl @ 490 NONAME
	_ZN19QHttpNetworkRequest7setDataEP9QIODevice @ 491 NONAME ABSENT
	_ZN19QHttpNetworkRequestC1ERK4QUrlNS_9OperationENS_8PriorityE @ 492 NONAME
	_ZN19QHttpNetworkRequestC1ERKS_ @ 493 NONAME
	_ZN19QHttpNetworkRequestC2ERK4QUrlNS_9OperationENS_8PriorityE @ 494 NONAME
	_ZN19QHttpNetworkRequestC2ERKS_ @ 495 NONAME
	_ZN19QHttpNetworkRequestD0Ev @ 496 NONAME
	_ZN19QHttpNetworkRequestD1Ev @ 497 NONAME
	_ZN19QHttpNetworkRequestD2Ev @ 498 NONAME
	_ZN19QHttpNetworkRequestaSERKS_ @ 499 NONAME
	_ZN19QHttpResponseHeader13setStatusLineEiRK7QStringii @ 500 NONAME
	_ZN19QHttpResponseHeader9parseLineERK7QStringi @ 501 NONAME
	_ZN19QHttpResponseHeaderC1ERK7QString @ 502 NONAME
	_ZN19QHttpResponseHeaderC1ERKS_ @ 503 NONAME
	_ZN19QHttpResponseHeaderC1EiRK7QStringii @ 504 NONAME
	_ZN19QHttpResponseHeaderC1Ev @ 505 NONAME
	_ZN19QHttpResponseHeaderC2ERK7QString @ 506 NONAME
	_ZN19QHttpResponseHeaderC2ERKS_ @ 507 NONAME
	_ZN19QHttpResponseHeaderC2EiRK7QStringii @ 508 NONAME
	_ZN19QHttpResponseHeaderC2Ev @ 509 NONAME
	_ZN19QHttpResponseHeaderaSERKS_ @ 510 NONAME
	_ZN19QNativeSocketEngine10initializeEN15QAbstractSocket10SocketTypeENS0_20NetworkLayerProtocolE @ 511 NONAME
	_ZN19QNativeSocketEngine10initializeEiN15QAbstractSocket11SocketStateE @ 512 NONAME
	_ZN19QNativeSocketEngine11qt_metacallEN11QMetaObject4CallEiPPv @ 513 NONAME
	_ZN19QNativeSocketEngine11qt_metacastEPKc @ 514 NONAME
	_ZN19QNativeSocketEngine11waitForReadEiPb @ 515 NONAME
	_ZN19QNativeSocketEngine12readDatagramEPcxP12QHostAddressPt @ 516 NONAME
	_ZN19QNativeSocketEngine12waitForWriteEiPb @ 517 NONAME
	_ZN19QNativeSocketEngine13connectToHostERK12QHostAddresst @ 518 NONAME
	_ZN19QNativeSocketEngine13writeDatagramEPKcxRK12QHostAddresst @ 519 NONAME
	_ZN19QNativeSocketEngine16staticMetaObjectE @ 520 NONAME DATA 16
	_ZN19QNativeSocketEngine17setSendBufferSizeEx @ 521 NONAME
	_ZN19QNativeSocketEngine18waitForReadOrWriteEPbS0_bbiS0_ @ 522 NONAME
	_ZN19QNativeSocketEngine19connectToHostByNameERK7QStringt @ 523 NONAME
	_ZN19QNativeSocketEngine20setReceiveBufferSizeEx @ 524 NONAME
	_ZN19QNativeSocketEngine22connectionNotificationEv @ 525 NONAME
	_ZN19QNativeSocketEngine26setReadNotificationEnabledEb @ 526 NONAME
	_ZN19QNativeSocketEngine27setWriteNotificationEnabledEb @ 527 NONAME
	_ZN19QNativeSocketEngine31setExceptionNotificationEnabledEb @ 528 NONAME
	_ZN19QNativeSocketEngine4bindERK12QHostAddresst @ 529 NONAME
	_ZN19QNativeSocketEngine4readEPcx @ 530 NONAME
	_ZN19QNativeSocketEngine5closeEv @ 531 NONAME
	_ZN19QNativeSocketEngine5writeEPKcx @ 532 NONAME
	_ZN19QNativeSocketEngine6acceptEv @ 533 NONAME
	_ZN19QNativeSocketEngine6listenEv @ 534 NONAME
	_ZN19QNativeSocketEngine9setOptionEN21QAbstractSocketEngine12SocketOptionEi @ 535 NONAME
	_ZN19QNativeSocketEngineC1EP7QObject @ 536 NONAME
	_ZN19QNativeSocketEngineC2EP7QObject @ 537 NONAME
	_ZN19QNativeSocketEngineD0Ev @ 538 NONAME
	_ZN19QNativeSocketEngineD1Ev @ 539 NONAME
	_ZN19QNativeSocketEngineD2Ev @ 540 NONAME
	_ZN19QSocks5SocketEngine10initializeEN15QAbstractSocket10SocketTypeENS0_20NetworkLayerProtocolE @ 541 NONAME
	_ZN19QSocks5SocketEngine10initializeEiN15QAbstractSocket11SocketStateE @ 542 NONAME
	_ZN19QSocks5SocketEngine11qt_metacallEN11QMetaObject4CallEiPPv @ 543 NONAME
	_ZN19QSocks5SocketEngine11qt_metacastEPKc @ 544 NONAME
	_ZN19QSocks5SocketEngine11waitForReadEiPb @ 545 NONAME
	_ZN19QSocks5SocketEngine12readDatagramEPcxP12QHostAddressPt @ 546 NONAME
	_ZN19QSocks5SocketEngine12waitForWriteEiPb @ 547 NONAME
	_ZN19QSocks5SocketEngine13connectToHostERK12QHostAddresst @ 548 NONAME
	_ZN19QSocks5SocketEngine13writeDatagramEPKcxRK12QHostAddresst @ 549 NONAME
	_ZN19QSocks5SocketEngine15connectInternalEv @ 550 NONAME
	_ZN19QSocks5SocketEngine16staticMetaObjectE @ 551 NONAME DATA 16
	_ZN19QSocks5SocketEngine18waitForReadOrWriteEPbS0_bbiS0_ @ 552 NONAME
	_ZN19QSocks5SocketEngine19connectToHostByNameERK7QStringt @ 553 NONAME
	_ZN19QSocks5SocketEngine26setReadNotificationEnabledEb @ 554 NONAME
	_ZN19QSocks5SocketEngine27setWriteNotificationEnabledEb @ 555 NONAME
	_ZN19QSocks5SocketEngine31setExceptionNotificationEnabledEb @ 556 NONAME
	_ZN19QSocks5SocketEngine4bindERK12QHostAddresst @ 557 NONAME
	_ZN19QSocks5SocketEngine4readEPcx @ 558 NONAME
	_ZN19QSocks5SocketEngine5closeEv @ 559 NONAME
	_ZN19QSocks5SocketEngine5writeEPKcx @ 560 NONAME
	_ZN19QSocks5SocketEngine6acceptEv @ 561 NONAME
	_ZN19QSocks5SocketEngine6listenEv @ 562 NONAME
	_ZN19QSocks5SocketEngine8setProxyERK13QNetworkProxy @ 563 NONAME
	_ZN19QSocks5SocketEngine9setOptionEN21QAbstractSocketEngine12SocketOptionEi @ 564 NONAME
	_ZN19QSocks5SocketEngineC1EP7QObject @ 565 NONAME
	_ZN19QSocks5SocketEngineC2EP7QObject @ 566 NONAME
	_ZN19QSocks5SocketEngineD0Ev @ 567 NONAME
	_ZN19QSocks5SocketEngineD1Ev @ 568 NONAME
	_ZN19QSocks5SocketEngineD2Ev @ 569 NONAME
	_ZN20QNetworkAddressEntry10setNetmaskERK12QHostAddress @ 570 NONAME
	_ZN20QNetworkAddressEntry12setBroadcastERK12QHostAddress @ 571 NONAME
	_ZN20QNetworkAddressEntry15setPrefixLengthEi @ 572 NONAME
	_ZN20QNetworkAddressEntry5setIpERK12QHostAddress @ 573 NONAME
	_ZN20QNetworkAddressEntryC1ERKS_ @ 574 NONAME
	_ZN20QNetworkAddressEntryC1Ev @ 575 NONAME
	_ZN20QNetworkAddressEntryC2ERKS_ @ 576 NONAME
	_ZN20QNetworkAddressEntryC2Ev @ 577 NONAME
	_ZN20QNetworkAddressEntryD1Ev @ 578 NONAME
	_ZN20QNetworkAddressEntryD2Ev @ 579 NONAME
	_ZN20QNetworkAddressEntryaSERKS_ @ 580 NONAME
	_ZN20QNetworkProxyFactory13proxyForQueryERK18QNetworkProxyQuery @ 581 NONAME
	_ZN20QNetworkProxyFactory19systemProxyForQueryERK18QNetworkProxyQuery @ 582 NONAME
	_ZN20QNetworkProxyFactory26setApplicationProxyFactoryEPS_ @ 583 NONAME
	_ZN20QNetworkProxyFactoryC2Ev @ 584 NONAME
	_ZN20QNetworkProxyFactoryD0Ev @ 585 NONAME
	_ZN20QNetworkProxyFactoryD1Ev @ 586 NONAME
	_ZN20QNetworkProxyFactoryD2Ev @ 587 NONAME
	_ZN20QSocketEngineHandlerC2Ev @ 588 NONAME
	_ZN20QSocketEngineHandlerD0Ev @ 589 NONAME
	_ZN20QSocketEngineHandlerD1Ev @ 590 NONAME
	_ZN20QSocketEngineHandlerD2Ev @ 591 NONAME
	_ZN21QAbstractNetworkCache11qt_metacallEN11QMetaObject4CallEiPPv @ 592 NONAME
	_ZN21QAbstractNetworkCache11qt_metacastEPKc @ 593 NONAME
	_ZN21QAbstractNetworkCache16staticMetaObjectE @ 594 NONAME DATA 16
	_ZN21QAbstractNetworkCacheC2EP7QObject @ 595 NONAME
	_ZN21QAbstractNetworkCacheC2ER28QAbstractNetworkCachePrivateP7QObject @ 596 NONAME
	_ZN21QAbstractNetworkCacheD0Ev @ 597 NONAME
	_ZN21QAbstractNetworkCacheD1Ev @ 598 NONAME
	_ZN21QAbstractNetworkCacheD2Ev @ 599 NONAME
	_ZN21QAbstractSocketEngine11qt_metacallEN11QMetaObject4CallEiPPv @ 600 NONAME
	_ZN21QAbstractSocketEngine11qt_metacastEPKc @ 601 NONAME
	_ZN21QAbstractSocketEngine11setPeerPortEt @ 602 NONAME
	_ZN21QAbstractSocketEngine11setProtocolEN15QAbstractSocket20NetworkLayerProtocolE @ 603 NONAME
	_ZN21QAbstractSocketEngine11setReceiverEP29QAbstractSocketEngineReceiver @ 604 NONAME
	_ZN21QAbstractSocketEngine12setLocalPortEt @ 605 NONAME
	_ZN21QAbstractSocketEngine13setSocketTypeEN15QAbstractSocket10SocketTypeE @ 606 NONAME
	_ZN21QAbstractSocketEngine14setPeerAddressERK12QHostAddress @ 607 NONAME
	_ZN21QAbstractSocketEngine15setLocalAddressERK12QHostAddress @ 608 NONAME
	_ZN21QAbstractSocketEngine16readNotificationEv @ 609 NONAME
	_ZN21QAbstractSocketEngine16staticMetaObjectE @ 610 NONAME DATA 16
	_ZN21QAbstractSocketEngine17writeNotificationEv @ 611 NONAME
	_ZN21QAbstractSocketEngine18createSocketEngineEN15QAbstractSocket10SocketTypeERK13QNetworkProxyP7QObject @ 612 NONAME
	_ZN21QAbstractSocketEngine18createSocketEngineEiP7QObject @ 613 NONAME
	_ZN21QAbstractSocketEngine21exceptionNotificationEv @ 614 NONAME
	_ZN21QAbstractSocketEngine22connectionNotificationEv @ 615 NONAME
	_ZN21QAbstractSocketEngine27proxyAuthenticationRequiredERK13QNetworkProxyP14QAuthenticator @ 616 NONAME
	_ZN21QAbstractSocketEngine8setStateEN15QAbstractSocket11SocketStateE @ 617 NONAME
	_ZN21QAbstractSocketEngineC2EP7QObject @ 618 NONAME
	_ZN21QAbstractSocketEngineC2ER28QAbstractSocketEnginePrivateP7QObject @ 619 NONAME
	_ZN21QNetworkAccessManager11qt_metacallEN11QMetaObject4CallEiPPv @ 620 NONAME
	_ZN21QNetworkAccessManager11qt_metacastEPKc @ 621 NONAME
	_ZN21QNetworkAccessManager12setCookieJarEP17QNetworkCookieJar @ 622 NONAME
	_ZN21QNetworkAccessManager13createRequestENS_9OperationERK15QNetworkRequestP9QIODevice @ 623 NONAME
	_ZN21QNetworkAccessManager15setProxyFactoryEP20QNetworkProxyFactory @ 624 NONAME
	_ZN21QNetworkAccessManager16staticMetaObjectE @ 625 NONAME DATA 16
	_ZN21QNetworkAccessManager22authenticationRequiredEP13QNetworkReplyP14QAuthenticator @ 626 NONAME
	_ZN21QNetworkAccessManager27proxyAuthenticationRequiredERK13QNetworkProxyP14QAuthenticator @ 627 NONAME
	_ZN21QNetworkAccessManager3getERK15QNetworkRequest @ 628 NONAME
	_ZN21QNetworkAccessManager3putERK15QNetworkRequestP9QIODevice @ 629 NONAME
	_ZN21QNetworkAccessManager3putERK15QNetworkRequestRK10QByteArray @ 630 NONAME
	_ZN21QNetworkAccessManager4headERK15QNetworkRequest @ 631 NONAME
	_ZN21QNetworkAccessManager4postERK15QNetworkRequestP9QIODevice @ 632 NONAME
	_ZN21QNetworkAccessManager4postERK15QNetworkRequestRK10QByteArray @ 633 NONAME
	_ZN21QNetworkAccessManager8finishedEP13QNetworkReply @ 634 NONAME
	_ZN21QNetworkAccessManager8setCacheEP21QAbstractNetworkCache @ 635 NONAME
	_ZN21QNetworkAccessManager8setProxyERK13QNetworkProxy @ 636 NONAME
	_ZN21QNetworkAccessManager9sslErrorsEP13QNetworkReplyRK5QListI9QSslErrorE @ 637 NONAME
	_ZN21QNetworkAccessManagerC1EP7QObject @ 638 NONAME
	_ZN21QNetworkAccessManagerC2EP7QObject @ 639 NONAME
	_ZN21QNetworkAccessManagerD0Ev @ 640 NONAME
	_ZN21QNetworkAccessManagerD1Ev @ 641 NONAME
	_ZN21QNetworkAccessManagerD2Ev @ 642 NONAME
	_ZN21QNetworkCacheMetaData13setAttributesERK5QHashIN15QNetworkRequest9AttributeE8QVariantE @ 643 NONAME
	_ZN21QNetworkCacheMetaData13setRawHeadersERK5QListI5QPairI10QByteArrayS2_EE @ 644 NONAME
	_ZN21QNetworkCacheMetaData13setSaveToDiskEb @ 645 NONAME
	_ZN21QNetworkCacheMetaData15setLastModifiedERK9QDateTime @ 646 NONAME
	_ZN21QNetworkCacheMetaData17setExpirationDateERK9QDateTime @ 647 NONAME
	_ZN21QNetworkCacheMetaData6setUrlERK4QUrl @ 648 NONAME
	_ZN21QNetworkCacheMetaDataC1ERKS_ @ 649 NONAME
	_ZN21QNetworkCacheMetaDataC1Ev @ 650 NONAME
	_ZN21QNetworkCacheMetaDataC2ERKS_ @ 651 NONAME
	_ZN21QNetworkCacheMetaDataC2Ev @ 652 NONAME
	_ZN21QNetworkCacheMetaDataD1Ev @ 653 NONAME
	_ZN21QNetworkCacheMetaDataD2Ev @ 654 NONAME
	_ZN21QNetworkCacheMetaDataaSERKS_ @ 655 NONAME
	_ZN22QHttpNetworkConnection11qt_metacallEN11QMetaObject4CallEiPPv @ 656 NONAME
	_ZN22QHttpNetworkConnection11qt_metacastEPKc @ 657 NONAME
	_ZN22QHttpNetworkConnection11sendRequestERK19QHttpNetworkRequest @ 658 NONAME
	_ZN22QHttpNetworkConnection13setCacheProxyERK13QNetworkProxy @ 659 NONAME
	_ZN22QHttpNetworkConnection15ignoreSslErrorsEi @ 660 NONAME
	_ZN22QHttpNetworkConnection16enableEncryptionEv @ 661 NONAME
	_ZN22QHttpNetworkConnection16staticMetaObjectE @ 662 NONAME DATA 16
	_ZN22QHttpNetworkConnection17setAuthenticationERK7QStringP14QAuthenticator @ 663 NONAME
	_ZN22QHttpNetworkConnection19setSslConfigurationERK17QSslConfiguration @ 664 NONAME
	_ZN22QHttpNetworkConnection19setTransparentProxyERK13QNetworkProxy @ 665 NONAME
	_ZN22QHttpNetworkConnection22authenticationRequiredERK19QHttpNetworkRequestP14QAuthenticatorPKS_ @ 666 NONAME
	_ZN22QHttpNetworkConnection22setProxyAuthenticationEP14QAuthenticator @ 667 NONAME
	_ZN22QHttpNetworkConnection27proxyAuthenticationRequiredERK13QNetworkProxyP14QAuthenticatorPKS_ @ 668 NONAME
	_ZN22QHttpNetworkConnection5errorEN13QNetworkReply12NetworkErrorERK7QString @ 669 NONAME
	_ZN22QHttpNetworkConnection9sslErrorsERK5QListI9QSslErrorE @ 670 NONAME
	_ZN22QHttpNetworkConnectionC1ERK7QStringtbP7QObject @ 671 NONAME
	_ZN22QHttpNetworkConnectionC2ERK7QStringtbP7QObject @ 672 NONAME
	_ZN22QHttpNetworkConnectionD0Ev @ 673 NONAME
	_ZN22QHttpNetworkConnectionD1Ev @ 674 NONAME
	_ZN22QHttpNetworkConnectionD2Ev @ 675 NONAME
	_ZN24QHttpSocketEngineHandler18createSocketEngineEN15QAbstractSocket10SocketTypeERK13QNetworkProxyP7QObject @ 676 NONAME
	_ZN24QHttpSocketEngineHandler18createSocketEngineEiP7QObject @ 677 NONAME
	_ZN26QSocks5SocketEngineHandler18createSocketEngineEN15QAbstractSocket10SocketTypeERK13QNetworkProxyP7QObject @ 678 NONAME
	_ZN26QSocks5SocketEngineHandler18createSocketEngineEiP7QObject @ 679 NONAME
	_ZN28QNetworkAccessManagerPrivate10clearCacheEP21QNetworkAccessManager @ 680 NONAME
	_ZN4QFtp10rawCommandERK7QString @ 681 NONAME
	_ZN4QFtp11qt_metacallEN11QMetaObject4CallEiPPv @ 682 NONAME
	_ZN4QFtp11qt_metacastEPKc @ 683 NONAME
	_ZN4QFtp12stateChangedEi @ 684 NONAME
	_ZN4QFtp13connectToHostERK7QStringt @ 685 NONAME
	_ZN4QFtp14commandStartedEi @ 686 NONAME
	_ZN4QFtp15commandFinishedEib @ 687 NONAME
	_ZN4QFtp15rawCommandReplyEiRK7QString @ 688 NONAME
	_ZN4QFtp15setTransferModeENS_12TransferModeE @ 689 NONAME
	_ZN4QFtp16staticMetaObjectE @ 690 NONAME DATA 16
	_ZN4QFtp20clearPendingCommandsEv @ 691 NONAME
	_ZN4QFtp20dataTransferProgressExx @ 692 NONAME
	_ZN4QFtp2cdERK7QString @ 693 NONAME
	_ZN4QFtp3getERK7QStringP9QIODeviceNS_12TransferTypeE @ 694 NONAME
	_ZN4QFtp3putEP9QIODeviceRK7QStringNS_12TransferTypeE @ 695 NONAME
	_ZN4QFtp3putERK10QByteArrayRK7QStringNS_12TransferTypeE @ 696 NONAME
	_ZN4QFtp4doneEb @ 697 NONAME
	_ZN4QFtp4listERK7QString @ 698 NONAME
	_ZN4QFtp4readEPcx @ 699 NONAME
	_ZN4QFtp5abortEv @ 700 NONAME
	_ZN4QFtp5closeEv @ 701 NONAME
	_ZN4QFtp5loginERK7QStringS2_ @ 702 NONAME
	_ZN4QFtp5mkdirERK7QString @ 703 NONAME
	_ZN4QFtp5rmdirERK7QString @ 704 NONAME
	_ZN4QFtp6removeERK7QString @ 705 NONAME
	_ZN4QFtp6renameERK7QStringS2_ @ 706 NONAME
	_ZN4QFtp7readAllEv @ 707 NONAME
	_ZN4QFtp8listInfoERK8QUrlInfo @ 708 NONAME
	_ZN4QFtp8setProxyERK7QStringt @ 709 NONAME
	_ZN4QFtp9readyReadEv @ 710 NONAME
	_ZN4QFtpC1EP7QObject @ 711 NONAME
	_ZN4QFtpC2EP7QObject @ 712 NONAME
	_ZN4QFtpD0Ev @ 713 NONAME
	_ZN4QFtpD1Ev @ 714 NONAME
	_ZN4QFtpD2Ev @ 715 NONAME
	_ZN5QHttp11qt_metacallEN11QMetaObject4CallEiPPv @ 716 NONAME
	_ZN5QHttp11qt_metacastEPKc @ 717 NONAME
	_ZN5QHttp12stateChangedEi @ 718 NONAME
	_ZN5QHttp14requestStartedEi @ 719 NONAME
	_ZN5QHttp15closeConnectionEv @ 720 NONAME
	_ZN5QHttp15ignoreSslErrorsEv @ 721 NONAME
	_ZN5QHttp15requestFinishedEib @ 722 NONAME
	_ZN5QHttp16dataReadProgressEii @ 723 NONAME
	_ZN5QHttp16dataSendProgressEii @ 724 NONAME
	_ZN5QHttp16staticMetaObjectE @ 725 NONAME DATA 16
	_ZN5QHttp20clearPendingRequestsEv @ 726 NONAME
	_ZN5QHttp22authenticationRequiredERK7QStringtP14QAuthenticator @ 727 NONAME
	_ZN5QHttp22responseHeaderReceivedERK19QHttpResponseHeader @ 728 NONAME
	_ZN5QHttp27proxyAuthenticationRequiredERK13QNetworkProxyP14QAuthenticator @ 729 NONAME
	_ZN5QHttp3getERK7QStringP9QIODevice @ 730 NONAME
	_ZN5QHttp4doneEb @ 731 NONAME
	_ZN5QHttp4headERK7QString @ 732 NONAME
	_ZN5QHttp4postERK7QStringP9QIODeviceS4_ @ 733 NONAME
	_ZN5QHttp4postERK7QStringRK10QByteArrayP9QIODevice @ 734 NONAME
	_ZN5QHttp4readEPcx @ 735 NONAME
	_ZN5QHttp5abortEv @ 736 NONAME
	_ZN5QHttp5closeEv @ 737 NONAME
	_ZN5QHttp7readAllEv @ 738 NONAME
	_ZN5QHttp7requestERK18QHttpRequestHeaderP9QIODeviceS4_ @ 739 NONAME
	_ZN5QHttp7requestERK18QHttpRequestHeaderRK10QByteArrayP9QIODevice @ 740 NONAME
	_ZN5QHttp7setHostERK7QStringNS_14ConnectionModeEt @ 741 NONAME
	_ZN5QHttp7setHostERK7QStringt @ 742 NONAME
	_ZN5QHttp7setUserERK7QStringS2_ @ 743 NONAME
	_ZN5QHttp8setProxyERK13QNetworkProxy @ 744 NONAME
	_ZN5QHttp8setProxyERK7QStringiS2_S2_ @ 745 NONAME
	_ZN5QHttp9readyReadERK19QHttpResponseHeader @ 746 NONAME
	_ZN5QHttp9setSocketEP10QTcpSocket @ 747 NONAME
	_ZN5QHttp9sslErrorsERK5QListI9QSslErrorE @ 748 NONAME
	_ZN5QHttpC1EP7QObject @ 749 NONAME
	_ZN5QHttpC1ERK7QStringNS_14ConnectionModeEtP7QObject @ 750 NONAME
	_ZN5QHttpC1ERK7QStringtP7QObject @ 751 NONAME
	_ZN5QHttpC2EP7QObject @ 752 NONAME
	_ZN5QHttpC2ERK7QStringNS_14ConnectionModeEtP7QObject @ 753 NONAME
	_ZN5QHttpC2ERK7QStringtP7QObject @ 754 NONAME
	_ZN5QHttpD0Ev @ 755 NONAME
	_ZN5QHttpD1Ev @ 756 NONAME
	_ZN5QHttpD2Ev @ 757 NONAME
	_ZN7QSslKey5clearEv @ 758 NONAME
	_ZN7QSslKeyC1EP9QIODeviceN4QSsl12KeyAlgorithmENS2_14EncodingFormatENS2_7KeyTypeERK10QByteArray @ 759 NONAME
	_ZN7QSslKeyC1ERK10QByteArrayN4QSsl12KeyAlgorithmENS3_14EncodingFormatENS3_7KeyTypeES2_ @ 760 NONAME
	_ZN7QSslKeyC1ERKS_ @ 761 NONAME
	_ZN7QSslKeyC1Ev @ 762 NONAME
	_ZN7QSslKeyC2EP9QIODeviceN4QSsl12KeyAlgorithmENS2_14EncodingFormatENS2_7KeyTypeERK10QByteArray @ 763 NONAME
	_ZN7QSslKeyC2ERK10QByteArrayN4QSsl12KeyAlgorithmENS3_14EncodingFormatENS3_7KeyTypeES2_ @ 764 NONAME
	_ZN7QSslKeyC2ERKS_ @ 765 NONAME
	_ZN7QSslKeyC2Ev @ 766 NONAME
	_ZN7QSslKeyD1Ev @ 767 NONAME
	_ZN7QSslKeyD2Ev @ 768 NONAME
	_ZN7QSslKeyaSERKS_ @ 769 NONAME
	_ZN8QUrlInfo10setSymLinkEb @ 770 NONAME
	_ZN8QUrlInfo11greaterThanERKS_S1_i @ 771 NONAME
	_ZN8QUrlInfo11setLastReadERK9QDateTime @ 772 NONAME
	_ZN8QUrlInfo11setReadableEb @ 773 NONAME
	_ZN8QUrlInfo11setWritableEb @ 774 NONAME
	_ZN8QUrlInfo14setPermissionsEi @ 775 NONAME
	_ZN8QUrlInfo15setLastModifiedERK9QDateTime @ 776 NONAME
	_ZN8QUrlInfo5equalERKS_S1_i @ 777 NONAME
	_ZN8QUrlInfo6setDirEb @ 778 NONAME
	_ZN8QUrlInfo7setFileEb @ 779 NONAME
	_ZN8QUrlInfo7setNameERK7QString @ 780 NONAME
	_ZN8QUrlInfo7setSizeEx @ 781 NONAME
	_ZN8QUrlInfo8lessThanERKS_S1_i @ 782 NONAME
	_ZN8QUrlInfo8setGroupERK7QString @ 783 NONAME
	_ZN8QUrlInfo8setOwnerERK7QString @ 784 NONAME
	_ZN8QUrlInfoC1ERK4QUrliRK7QStringS5_xRK9QDateTimeS8_bbbbbb @ 785 NONAME
	_ZN8QUrlInfoC1ERK7QStringiS2_S2_xRK9QDateTimeS5_bbbbbb @ 786 NONAME
	_ZN8QUrlInfoC1ERKS_ @ 787 NONAME
	_ZN8QUrlInfoC1Ev @ 788 NONAME
	_ZN8QUrlInfoC2ERK4QUrliRK7QStringS5_xRK9QDateTimeS8_bbbbbb @ 789 NONAME
	_ZN8QUrlInfoC2ERK7QStringiS2_S2_xRK9QDateTimeS5_bbbbbb @ 790 NONAME
	_ZN8QUrlInfoC2ERKS_ @ 791 NONAME
	_ZN8QUrlInfoC2Ev @ 792 NONAME
	_ZN8QUrlInfoD0Ev @ 793 NONAME
	_ZN8QUrlInfoD1Ev @ 794 NONAME
	_ZN8QUrlInfoD2Ev @ 795 NONAME
	_ZN8QUrlInfoaSERKS_ @ 796 NONAME
	_ZN9QHostInfo10lookupHostERK7QStringP7QObjectPKc @ 797 NONAME
	_ZN9QHostInfo11setHostNameERK7QString @ 798 NONAME
	_ZN9QHostInfo11setLookupIdEi @ 799 NONAME
	_ZN9QHostInfo12setAddressesERK5QListI12QHostAddressE @ 800 NONAME
	_ZN9QHostInfo13localHostNameEv @ 801 NONAME
	_ZN9QHostInfo14setErrorStringERK7QString @ 802 NONAME
	_ZN9QHostInfo15abortHostLookupEi @ 803 NONAME
	_ZN9QHostInfo15localDomainNameEv @ 804 NONAME
	_ZN9QHostInfo8fromNameERK7QString @ 805 NONAME
	_ZN9QHostInfo8setErrorENS_13HostInfoErrorE @ 806 NONAME
	_ZN9QHostInfoC1ERKS_ @ 807 NONAME
	_ZN9QHostInfoC1Ei @ 808 NONAME
	_ZN9QHostInfoC2ERKS_ @ 809 NONAME
	_ZN9QHostInfoC2Ei @ 810 NONAME
	_ZN9QHostInfoD1Ev @ 811 NONAME
	_ZN9QHostInfoD2Ev @ 812 NONAME
	_ZN9QHostInfoaSERKS_ @ 813 NONAME
	_ZN9QSslErrorC1ENS_8SslErrorE @ 814 NONAME
	_ZN9QSslErrorC1ENS_8SslErrorERK15QSslCertificate @ 815 NONAME
	_ZN9QSslErrorC1ERKS_ @ 816 NONAME
	_ZN9QSslErrorC1Ev @ 817 NONAME
	_ZN9QSslErrorC2ENS_8SslErrorE @ 818 NONAME
	_ZN9QSslErrorC2ENS_8SslErrorERK15QSslCertificate @ 819 NONAME
	_ZN9QSslErrorC2ERKS_ @ 820 NONAME
	_ZN9QSslErrorC2Ev @ 821 NONAME
	_ZN9QSslErrorD1Ev @ 822 NONAME
	_ZN9QSslErrorD2Ev @ 823 NONAME
	_ZN9QSslErroraSERKS_ @ 824 NONAME
	_ZNK10QSslCipher13supportedBitsEv @ 825 NONAME
	_ZNK10QSslCipher14protocolStringEv @ 826 NONAME
	_ZNK10QSslCipher16encryptionMethodEv @ 827 NONAME
	_ZNK10QSslCipher17keyExchangeMethodEv @ 828 NONAME
	_ZNK10QSslCipher20authenticationMethodEv @ 829 NONAME
	_ZNK10QSslCipher4nameEv @ 830 NONAME
	_ZNK10QSslCipher6isNullEv @ 831 NONAME
	_ZNK10QSslCipher8protocolEv @ 832 NONAME
	_ZNK10QSslCipher8usedBitsEv @ 833 NONAME
	_ZNK10QSslCiphereqERKS_ @ 834 NONAME
	_ZNK10QSslSocket10metaObjectEv @ 835 NONAME
	_ZNK10QSslSocket10privateKeyEv @ 836 NONAME
	_ZNK10QSslSocket11canReadLineEv @ 837 NONAME
	_ZNK10QSslSocket11isEncryptedEv @ 838 NONAME
	_ZNK10QSslSocket12bytesToWriteEv @ 839 NONAME
	_ZNK10QSslSocket13sessionCipherEv @ 840 NONAME
	_ZNK10QSslSocket14bytesAvailableEv @ 841 NONAME
	_ZNK10QSslSocket14caCertificatesEv @ 842 NONAME
	_ZNK10QSslSocket14peerVerifyModeEv @ 843 NONAME
	_ZNK10QSslSocket15peerCertificateEv @ 844 NONAME
	_ZNK10QSslSocket15peerVerifyDepthEv @ 845 NONAME
	_ZNK10QSslSocket16localCertificateEv @ 846 NONAME
	_ZNK10QSslSocket16sslConfigurationEv @ 847 NONAME
	_ZNK10QSslSocket20peerCertificateChainEv @ 848 NONAME
	_ZNK10QSslSocket21encryptedBytesToWriteEv @ 849 NONAME
	_ZNK10QSslSocket23encryptedBytesAvailableEv @ 850 NONAME
	_ZNK10QSslSocket4modeEv @ 851 NONAME
	_ZNK10QSslSocket5atEndEv @ 852 NONAME
	_ZNK10QSslSocket7ciphersEv @ 853 NONAME
	_ZNK10QSslSocket8protocolEv @ 854 NONAME
	_ZNK10QSslSocket9sslErrorsEv @ 855 NONAME
	_ZNK10QTcpServer10metaObjectEv @ 856 NONAME
	_ZNK10QTcpServer10serverPortEv @ 857 NONAME
	_ZNK10QTcpServer11errorStringEv @ 858 NONAME
	_ZNK10QTcpServer11isListeningEv @ 859 NONAME
	_ZNK10QTcpServer11serverErrorEv @ 860 NONAME
	_ZNK10QTcpServer13serverAddressEv @ 861 NONAME
	_ZNK10QTcpServer16socketDescriptorEv @ 862 NONAME
	_ZNK10QTcpServer21hasPendingConnectionsEv @ 863 NONAME
	_ZNK10QTcpServer21maxPendingConnectionsEv @ 864 NONAME
	_ZNK10QTcpServer5proxyEv @ 865 NONAME
	_ZNK10QTcpSocket10metaObjectEv @ 866 NONAME
	_ZNK10QUdpSocket10metaObjectEv @ 867 NONAME
	_ZNK10QUdpSocket19hasPendingDatagramsEv @ 868 NONAME
	_ZNK10QUdpSocket19pendingDatagramSizeEv @ 869 NONAME
	_ZNK11QHttpHeader11contentTypeEv @ 870 NONAME
	_ZNK11QHttpHeader13contentLengthEv @ 871 NONAME
	_ZNK11QHttpHeader14hasContentTypeEv @ 872 NONAME
	_ZNK11QHttpHeader16hasContentLengthEv @ 873 NONAME
	_ZNK11QHttpHeader4keysEv @ 874 NONAME
	_ZNK11QHttpHeader5valueERK7QString @ 875 NONAME
	_ZNK11QHttpHeader6hasKeyERK7QString @ 876 NONAME
	_ZNK11QHttpHeader6valuesEv @ 877 NONAME
	_ZNK11QHttpHeader7isValidEv @ 878 NONAME
	_ZNK11QHttpHeader8toStringEv @ 879 NONAME
	_ZNK11QHttpHeader9allValuesERK7QString @ 880 NONAME
	_ZNK12QHostAddress10isInSubnetERK5QPairIS_iE @ 881 NONAME
	_ZNK12QHostAddress10isInSubnetERKS_i @ 882 NONAME
	_ZNK12QHostAddress13toIPv4AddressEv @ 883 NONAME
	_ZNK12QHostAddress13toIPv6AddressEv @ 884 NONAME
	_ZNK12QHostAddress6isNullEv @ 885 NONAME
	_ZNK12QHostAddress7scopeIdEv @ 886 NONAME
	_ZNK12QHostAddress8protocolEv @ 887 NONAME
	_ZNK12QHostAddress8toStringEv @ 888 NONAME
	_ZNK12QHostAddresseqENS_14SpecialAddressE @ 889 NONAME
	_ZNK12QHostAddresseqERKS_ @ 890 NONAME
	_ZNK12QLocalServer10metaObjectEv @ 891 NONAME
	_ZNK12QLocalServer10serverNameEv @ 892 NONAME
	_ZNK12QLocalServer11errorStringEv @ 893 NONAME
	_ZNK12QLocalServer11isListeningEv @ 894 NONAME
	_ZNK12QLocalServer11serverErrorEv @ 895 NONAME
	_ZNK12QLocalServer14fullServerNameEv @ 896 NONAME
	_ZNK12QLocalServer21hasPendingConnectionsEv @ 897 NONAME
	_ZNK12QLocalServer21maxPendingConnectionsEv @ 898 NONAME
	_ZNK12QLocalSocket10metaObjectEv @ 899 NONAME
	_ZNK12QLocalSocket10serverNameEv @ 900 NONAME
	_ZNK12QLocalSocket11canReadLineEv @ 901 NONAME
	_ZNK12QLocalSocket12bytesToWriteEv @ 902 NONAME
	_ZNK12QLocalSocket12isSequentialEv @ 903 NONAME
	_ZNK12QLocalSocket14bytesAvailableEv @ 904 NONAME
	_ZNK12QLocalSocket14fullServerNameEv @ 905 NONAME
	_ZNK12QLocalSocket14readBufferSizeEv @ 906 NONAME
	_ZNK12QLocalSocket16socketDescriptorEv @ 907 NONAME
	_ZNK12QLocalSocket5errorEv @ 908 NONAME
	_ZNK12QLocalSocket5stateEv @ 909 NONAME
	_ZNK12QLocalSocket7isValidEv @ 910 NONAME
	_ZNK13QNetworkProxy12capabilitiesEv @ 911 NONAME
	_ZNK13QNetworkProxy14isCachingProxyEv @ 912 NONAME
	_ZNK13QNetworkProxy18isTransparentProxyEv @ 913 NONAME
	_ZNK13QNetworkProxy4portEv @ 914 NONAME
	_ZNK13QNetworkProxy4typeEv @ 915 NONAME
	_ZNK13QNetworkProxy4userEv @ 916 NONAME
	_ZNK13QNetworkProxy8hostNameEv @ 917 NONAME
	_ZNK13QNetworkProxy8passwordEv @ 918 NONAME
	_ZNK13QNetworkProxyeqERKS_ @ 919 NONAME
	_ZNK13QNetworkReply10metaObjectEv @ 920 NONAME
	_ZNK13QNetworkReply12hasRawHeaderERK10QByteArray @ 921 NONAME
	_ZNK13QNetworkReply12isSequentialEv @ 922 NONAME
	_ZNK13QNetworkReply13rawHeaderListEv @ 923 NONAME
	_ZNK13QNetworkReply14readBufferSizeEv @ 924 NONAME
	_ZNK13QNetworkReply16sslConfigurationEv @ 925 NONAME
	_ZNK13QNetworkReply3urlEv @ 926 NONAME
	_ZNK13QNetworkReply5errorEv @ 927 NONAME
	_ZNK13QNetworkReply6headerEN15QNetworkRequest12KnownHeadersE @ 928 NONAME
	_ZNK13QNetworkReply7managerEv @ 929 NONAME
	_ZNK13QNetworkReply7requestEv @ 930 NONAME
	_ZNK13QNetworkReply9attributeEN15QNetworkRequest9AttributeE @ 931 NONAME
	_ZNK13QNetworkReply9operationEv @ 932 NONAME
	_ZNK13QNetworkReply9rawHeaderERK10QByteArray @ 933 NONAME
	_ZNK14QAuthenticator4userEv @ 934 NONAME
	_ZNK14QAuthenticator5realmEv @ 935 NONAME
	_ZNK14QAuthenticator6isNullEv @ 936 NONAME
	_ZNK14QAuthenticator8passwordEv @ 937 NONAME
	_ZNK14QAuthenticatoreqERKS_ @ 938 NONAME
	_ZNK14QNetworkCookie10isHttpOnlyEv @ 939 NONAME
	_ZNK14QNetworkCookie14expirationDateEv @ 940 NONAME
	_ZNK14QNetworkCookie15isSessionCookieEv @ 941 NONAME
	_ZNK14QNetworkCookie4nameEv @ 942 NONAME
	_ZNK14QNetworkCookie4pathEv @ 943 NONAME
	_ZNK14QNetworkCookie5valueEv @ 944 NONAME
	_ZNK14QNetworkCookie6domainEv @ 945 NONAME
	_ZNK14QNetworkCookie8isSecureEv @ 946 NONAME
	_ZNK14QNetworkCookie9toRawFormENS_7RawFormE @ 947 NONAME
	_ZNK14QNetworkCookieeqERKS_ @ 948 NONAME
	_ZNK15QAbstractSocket10metaObjectEv @ 949 NONAME
	_ZNK15QAbstractSocket10socketTypeEv @ 950 NONAME
	_ZNK15QAbstractSocket11canReadLineEv @ 951 NONAME
	_ZNK15QAbstractSocket11peerAddressEv @ 952 NONAME
	_ZNK15QAbstractSocket12bytesToWriteEv @ 953 NONAME
	_ZNK15QAbstractSocket12isSequentialEv @ 954 NONAME
	_ZNK15QAbstractSocket12localAddressEv @ 955 NONAME
	_ZNK15QAbstractSocket14bytesAvailableEv @ 956 NONAME
	_ZNK15QAbstractSocket14readBufferSizeEv @ 957 NONAME
	_ZNK15QAbstractSocket16socketDescriptorEv @ 958 NONAME
	_ZNK15QAbstractSocket5atEndEv @ 959 NONAME
	_ZNK15QAbstractSocket5errorEv @ 960 NONAME
	_ZNK15QAbstractSocket5proxyEv @ 961 NONAME
	_ZNK15QAbstractSocket5stateEv @ 962 NONAME
	_ZNK15QAbstractSocket7isValidEv @ 963 NONAME
	_ZNK15QAbstractSocket8peerNameEv @ 964 NONAME
	_ZNK15QAbstractSocket8peerPortEv @ 965 NONAME
	_ZNK15QAbstractSocket9localPortEv @ 966 NONAME
	_ZNK15QNetworkRequest12hasRawHeaderERK10QByteArray @ 967 NONAME
	_ZNK15QNetworkRequest13rawHeaderListEv @ 968 NONAME
	_ZNK15QNetworkRequest16sslConfigurationEv @ 969 NONAME
	_ZNK15QNetworkRequest3urlEv @ 970 NONAME
	_ZNK15QNetworkRequest6headerENS_12KnownHeadersE @ 971 NONAME
	_ZNK15QNetworkRequest9attributeENS_9AttributeERK8QVariant @ 972 NONAME
	_ZNK15QNetworkRequest9rawHeaderERK10QByteArray @ 973 NONAME
	_ZNK15QNetworkRequesteqERKS_ @ 974 NONAME
	_ZNK15QSslCertificate10expiryDateEv @ 975 NONAME
	_ZNK15QSslCertificate10issuerInfoENS_11SubjectInfoE @ 976 NONAME
	_ZNK15QSslCertificate10issuerInfoERK10QByteArray @ 977 NONAME
	_ZNK15QSslCertificate11subjectInfoENS_11SubjectInfoE @ 978 NONAME
	_ZNK15QSslCertificate11subjectInfoERK10QByteArray @ 979 NONAME
	_ZNK15QSslCertificate12serialNumberEv @ 980 NONAME
	_ZNK15QSslCertificate13effectiveDateEv @ 981 NONAME
	_ZNK15QSslCertificate21alternateSubjectNamesEv @ 982 NONAME
	_ZNK15QSslCertificate5toDerEv @ 983 NONAME
	_ZNK15QSslCertificate5toPemEv @ 984 NONAME
	_ZNK15QSslCertificate6digestEN18QCryptographicHash9AlgorithmE @ 985 NONAME
	_ZNK15QSslCertificate6handleEv @ 986 NONAME
	_ZNK15QSslCertificate6isNullEv @ 987 NONAME
	_ZNK15QSslCertificate7isValidEv @ 988 NONAME
	_ZNK15QSslCertificate7versionEv @ 989 NONAME
	_ZNK15QSslCertificate9publicKeyEv @ 990 NONAME
	_ZNK15QSslCertificateeqERKS_ @ 991 NONAME
	_ZNK17QHttpNetworkReply10isFinishedEv @ 992 NONAME
	_ZNK17QHttpNetworkReply10metaObjectEv @ 993 NONAME
	_ZNK17QHttpNetworkReply10statusCodeEv @ 994 NONAME
	_ZNK17QHttpNetworkReply11errorStringEv @ 995 NONAME
	_ZNK17QHttpNetworkReply11headerFieldERK10QByteArrayS2_ @ 996 NONAME
	_ZNK17QHttpNetworkReply12majorVersionEv @ 997 NONAME
	_ZNK17QHttpNetworkReply12minorVersionEv @ 998 NONAME
	_ZNK17QHttpNetworkReply12reasonPhraseEv @ 999 NONAME
	_ZNK17QHttpNetworkReply13contentLengthEv @ 1000 NONAME
	_ZNK17QHttpNetworkReply14bytesAvailableEv @ 1001 NONAME
	_ZNK17QHttpNetworkReply16sslConfigurationEv @ 1002 NONAME
	_ZNK17QHttpNetworkReply3urlEv @ 1003 NONAME
	_ZNK17QHttpNetworkReply6headerEv @ 1004 NONAME
	_ZNK17QHttpNetworkReply7requestEv @ 1005 NONAME
	_ZNK17QHttpSocketEngine10metaObjectEv @ 1006 NONAME
	_ZNK17QHttpSocketEngine14bytesAvailableEv @ 1007 NONAME
	_ZNK17QHttpSocketEngine16socketDescriptorEv @ 1008 NONAME
	_ZNK17QHttpSocketEngine19hasPendingDatagramsEv @ 1009 NONAME
	_ZNK17QHttpSocketEngine19pendingDatagramSizeEv @ 1010 NONAME
	_ZNK17QHttpSocketEngine25isReadNotificationEnabledEv @ 1011 NONAME
	_ZNK17QHttpSocketEngine26isWriteNotificationEnabledEv @ 1012 NONAME
	_ZNK17QHttpSocketEngine30isExceptionNotificationEnabledEv @ 1013 NONAME
	_ZNK17QHttpSocketEngine6optionEN21QAbstractSocketEngine12SocketOptionE @ 1014 NONAME
	_ZNK17QHttpSocketEngine7isValidEv @ 1015 NONAME
	_ZNK17QNetworkCookieJar10allCookiesEv @ 1016 NONAME
	_ZNK17QNetworkCookieJar10metaObjectEv @ 1017 NONAME
	_ZNK17QNetworkCookieJar13cookiesForUrlERK4QUrl @ 1018 NONAME
	_ZNK17QNetworkDiskCache10metaObjectEv @ 1019 NONAME
	_ZNK17QNetworkDiskCache12fileMetaDataERK7QString @ 1020 NONAME
	_ZNK17QNetworkDiskCache14cacheDirectoryEv @ 1021 NONAME
	_ZNK17QNetworkDiskCache16maximumCacheSizeEv @ 1022 NONAME
	_ZNK17QNetworkDiskCache9cacheSizeEv @ 1023 NONAME
	_ZNK17QNetworkInterface14addressEntriesEv @ 1024 NONAME
	_ZNK17QNetworkInterface15hardwareAddressEv @ 1025 NONAME
	_ZNK17QNetworkInterface17humanReadableNameEv @ 1026 NONAME
	_ZNK17QNetworkInterface4nameEv @ 1027 NONAME
	_ZNK17QNetworkInterface5flagsEv @ 1028 NONAME
	_ZNK17QNetworkInterface5indexEv @ 1029 NONAME
	_ZNK17QNetworkInterface7isValidEv @ 1030 NONAME
	_ZNK17QSslConfiguration10privateKeyEv @ 1031 NONAME
	_ZNK17QSslConfiguration13sessionCipherEv @ 1032 NONAME
	_ZNK17QSslConfiguration14caCertificatesEv @ 1033 NONAME
	_ZNK17QSslConfiguration14peerVerifyModeEv @ 1034 NONAME
	_ZNK17QSslConfiguration15peerCertificateEv @ 1035 NONAME
	_ZNK17QSslConfiguration15peerVerifyDepthEv @ 1036 NONAME
	_ZNK17QSslConfiguration16localCertificateEv @ 1037 NONAME
	_ZNK17QSslConfiguration20peerCertificateChainEv @ 1038 NONAME
	_ZNK17QSslConfiguration6isNullEv @ 1039 NONAME
	_ZNK17QSslConfiguration7ciphersEv @ 1040 NONAME
	_ZNK17QSslConfiguration8protocolEv @ 1041 NONAME
	_ZNK17QSslConfigurationeqERKS_ @ 1042 NONAME
	_ZNK18QHttpRequestHeader12majorVersionEv @ 1043 NONAME
	_ZNK18QHttpRequestHeader12minorVersionEv @ 1044 NONAME
	_ZNK18QHttpRequestHeader4pathEv @ 1045 NONAME
	_ZNK18QHttpRequestHeader6methodEv @ 1046 NONAME
	_ZNK18QHttpRequestHeader8toStringEv @ 1047 NONAME
	_ZNK18QNetworkProxyQuery11protocolTagEv @ 1048 NONAME
	_ZNK18QNetworkProxyQuery12peerHostNameEv @ 1049 NONAME
	_ZNK18QNetworkProxyQuery3urlEv @ 1050 NONAME
	_ZNK18QNetworkProxyQuery8peerPortEv @ 1051 NONAME
	_ZNK18QNetworkProxyQuery9localPortEv @ 1052 NONAME
	_ZNK18QNetworkProxyQuery9queryTypeEv @ 1053 NONAME
	_ZNK18QNetworkProxyQueryeqERKS_ @ 1054 NONAME
	_ZNK19QHttpNetworkRequest11headerFieldERK10QByteArrayS2_ @ 1055 NONAME
	_ZNK19QHttpNetworkRequest12majorVersionEv @ 1056 NONAME
	_ZNK19QHttpNetworkRequest12minorVersionEv @ 1057 NONAME
	_ZNK19QHttpNetworkRequest13contentLengthEv @ 1058 NONAME
	_ZNK19QHttpNetworkRequest3urlEv @ 1059 NONAME
	_ZNK19QHttpNetworkRequest4dataEv @ 1060 NONAME ABSENT
	_ZNK19QHttpNetworkRequest6headerEv @ 1061 NONAME
	_ZNK19QHttpNetworkRequest8priorityEv @ 1062 NONAME
	_ZNK19QHttpNetworkRequest9operationEv @ 1063 NONAME
	_ZNK19QHttpNetworkRequesteqERKS_ @ 1064 NONAME
	_ZNK19QHttpResponseHeader10statusCodeEv @ 1065 NONAME
	_ZNK19QHttpResponseHeader12majorVersionEv @ 1066 NONAME
	_ZNK19QHttpResponseHeader12minorVersionEv @ 1067 NONAME
	_ZNK19QHttpResponseHeader12reasonPhraseEv @ 1068 NONAME
	_ZNK19QHttpResponseHeader8toStringEv @ 1069 NONAME
	_ZNK19QNativeSocketEngine10metaObjectEv @ 1070 NONAME
	_ZNK19QNativeSocketEngine14bytesAvailableEv @ 1071 NONAME
	_ZNK19QNativeSocketEngine14sendBufferSizeEv @ 1072 NONAME
	_ZNK19QNativeSocketEngine16socketDescriptorEv @ 1073 NONAME
	_ZNK19QNativeSocketEngine17receiveBufferSizeEv @ 1074 NONAME
	_ZNK19QNativeSocketEngine19hasPendingDatagramsEv @ 1075 NONAME
	_ZNK19QNativeSocketEngine19pendingDatagramSizeEv @ 1076 NONAME
	_ZNK19QNativeSocketEngine25isReadNotificationEnabledEv @ 1077 NONAME
	_ZNK19QNativeSocketEngine26isWriteNotificationEnabledEv @ 1078 NONAME
	_ZNK19QNativeSocketEngine30isExceptionNotificationEnabledEv @ 1079 NONAME
	_ZNK19QNativeSocketEngine6optionEN21QAbstractSocketEngine12SocketOptionE @ 1080 NONAME
	_ZNK19QNativeSocketEngine7isValidEv @ 1081 NONAME
	_ZNK19QSocks5SocketEngine10metaObjectEv @ 1082 NONAME
	_ZNK19QSocks5SocketEngine14bytesAvailableEv @ 1083 NONAME
	_ZNK19QSocks5SocketEngine16socketDescriptorEv @ 1084 NONAME
	_ZNK19QSocks5SocketEngine19hasPendingDatagramsEv @ 1085 NONAME
	_ZNK19QSocks5SocketEngine19pendingDatagramSizeEv @ 1086 NONAME
	_ZNK19QSocks5SocketEngine25isReadNotificationEnabledEv @ 1087 NONAME
	_ZNK19QSocks5SocketEngine26isWriteNotificationEnabledEv @ 1088 NONAME
	_ZNK19QSocks5SocketEngine30isExceptionNotificationEnabledEv @ 1089 NONAME
	_ZNK19QSocks5SocketEngine6optionEN21QAbstractSocketEngine12SocketOptionE @ 1090 NONAME
	_ZNK19QSocks5SocketEngine7isValidEv @ 1091 NONAME
	_ZNK20QNetworkAddressEntry12prefixLengthEv @ 1092 NONAME
	_ZNK20QNetworkAddressEntry2ipEv @ 1093 NONAME
	_ZNK20QNetworkAddressEntry7netmaskEv @ 1094 NONAME
	_ZNK20QNetworkAddressEntry9broadcastEv @ 1095 NONAME
	_ZNK20QNetworkAddressEntryeqERKS_ @ 1096 NONAME
	_ZNK21QAbstractNetworkCache10metaObjectEv @ 1097 NONAME
	_ZNK21QAbstractSocketEngine10metaObjectEv @ 1098 NONAME
	_ZNK21QAbstractSocketEngine10socketTypeEv @ 1099 NONAME
	_ZNK21QAbstractSocketEngine11errorStringEv @ 1100 NONAME
	_ZNK21QAbstractSocketEngine11peerAddressEv @ 1101 NONAME
	_ZNK21QAbstractSocketEngine12localAddressEv @ 1102 NONAME
	_ZNK21QAbstractSocketEngine5errorEv @ 1103 NONAME
	_ZNK21QAbstractSocketEngine5stateEv @ 1104 NONAME
	_ZNK21QAbstractSocketEngine8peerPortEv @ 1105 NONAME
	_ZNK21QAbstractSocketEngine8protocolEv @ 1106 NONAME
	_ZNK21QAbstractSocketEngine8setErrorEN15QAbstractSocket11SocketErrorERK7QString @ 1107 NONAME
	_ZNK21QAbstractSocketEngine9localPortEv @ 1108 NONAME
	_ZNK21QNetworkAccessManager10metaObjectEv @ 1109 NONAME
	_ZNK21QNetworkAccessManager12proxyFactoryEv @ 1110 NONAME
	_ZNK21QNetworkAccessManager5cacheEv @ 1111 NONAME
	_ZNK21QNetworkAccessManager5proxyEv @ 1112 NONAME
	_ZNK21QNetworkAccessManager9cookieJarEv @ 1113 NONAME
	_ZNK21QNetworkCacheMetaData10attributesEv @ 1114 NONAME
	_ZNK21QNetworkCacheMetaData10rawHeadersEv @ 1115 NONAME
	_ZNK21QNetworkCacheMetaData10saveToDiskEv @ 1116 NONAME
	_ZNK21QNetworkCacheMetaData12lastModifiedEv @ 1117 NONAME
	_ZNK21QNetworkCacheMetaData14expirationDateEv @ 1118 NONAME
	_ZNK21QNetworkCacheMetaData3urlEv @ 1119 NONAME
	_ZNK21QNetworkCacheMetaData7isValidEv @ 1120 NONAME
	_ZNK21QNetworkCacheMetaDataeqERKS_ @ 1121 NONAME
	_ZNK22QHttpNetworkConnection10cacheProxyEv @ 1122 NONAME
	_ZNK22QHttpNetworkConnection10metaObjectEv @ 1123 NONAME
	_ZNK22QHttpNetworkConnection11isEncryptedEv @ 1124 NONAME
	_ZNK22QHttpNetworkConnection16transparentProxyEv @ 1125 NONAME
	_ZNK22QHttpNetworkConnection4portEv @ 1126 NONAME
	_ZNK22QHttpNetworkConnection8hostNameEv @ 1127 NONAME
	_ZNK4QFtp10metaObjectEv @ 1128 NONAME
	_ZNK4QFtp11errorStringEv @ 1129 NONAME
	_ZNK4QFtp13currentDeviceEv @ 1130 NONAME
	_ZNK4QFtp14bytesAvailableEv @ 1131 NONAME
	_ZNK4QFtp14currentCommandEv @ 1132 NONAME
	_ZNK4QFtp18hasPendingCommandsEv @ 1133 NONAME
	_ZNK4QFtp5errorEv @ 1134 NONAME
	_ZNK4QFtp5stateEv @ 1135 NONAME
	_ZNK4QFtp9currentIdEv @ 1136 NONAME
	_ZNK5QHttp10metaObjectEv @ 1137 NONAME
	_ZNK5QHttp11errorStringEv @ 1138 NONAME
	_ZNK5QHttp12lastResponseEv @ 1139 NONAME
	_ZNK5QHttp14bytesAvailableEv @ 1140 NONAME
	_ZNK5QHttp14currentRequestEv @ 1141 NONAME
	_ZNK5QHttp18hasPendingRequestsEv @ 1142 NONAME
	_ZNK5QHttp19currentSourceDeviceEv @ 1143 NONAME
	_ZNK5QHttp24currentDestinationDeviceEv @ 1144 NONAME
	_ZNK5QHttp5errorEv @ 1145 NONAME
	_ZNK5QHttp5stateEv @ 1146 NONAME
	_ZNK5QHttp9currentIdEv @ 1147 NONAME
	_ZNK7QSslKey4typeEv @ 1148 NONAME
	_ZNK7QSslKey5toDerERK10QByteArray @ 1149 NONAME
	_ZNK7QSslKey5toPemERK10QByteArray @ 1150 NONAME
	_ZNK7QSslKey6handleEv @ 1151 NONAME
	_ZNK7QSslKey6isNullEv @ 1152 NONAME
	_ZNK7QSslKey6lengthEv @ 1153 NONAME
	_ZNK7QSslKey9algorithmEv @ 1154 NONAME
	_ZNK7QSslKeyeqERKS_ @ 1155 NONAME
	_ZNK8QUrlInfo10isReadableEv @ 1156 NONAME
	_ZNK8QUrlInfo10isWritableEv @ 1157 NONAME
	_ZNK8QUrlInfo11permissionsEv @ 1158 NONAME
	_ZNK8QUrlInfo12isExecutableEv @ 1159 NONAME
	_ZNK8QUrlInfo12lastModifiedEv @ 1160 NONAME
	_ZNK8QUrlInfo4nameEv @ 1161 NONAME
	_ZNK8QUrlInfo4sizeEv @ 1162 NONAME
	_ZNK8QUrlInfo5groupEv @ 1163 NONAME
	_ZNK8QUrlInfo5isDirEv @ 1164 NONAME
	_ZNK8QUrlInfo5ownerEv @ 1165 NONAME
	_ZNK8QUrlInfo6isFileEv @ 1166 NONAME
	_ZNK8QUrlInfo7isValidEv @ 1167 NONAME
	_ZNK8QUrlInfo8lastReadEv @ 1168 NONAME
	_ZNK8QUrlInfo9isSymLinkEv @ 1169 NONAME
	_ZNK8QUrlInfoeqERKS_ @ 1170 NONAME
	_ZNK9QHostInfo11errorStringEv @ 1171 NONAME
	_ZNK9QHostInfo5errorEv @ 1172 NONAME
	_ZNK9QHostInfo8hostNameEv @ 1173 NONAME
	_ZNK9QHostInfo8lookupIdEv @ 1174 NONAME
	_ZNK9QHostInfo9addressesEv @ 1175 NONAME
	_ZNK9QSslError11certificateEv @ 1176 NONAME
	_ZNK9QSslError11errorStringEv @ 1177 NONAME
	_ZNK9QSslError5errorEv @ 1178 NONAME
	_ZNK9QSslErroreqERKS_ @ 1179 NONAME
	_ZTI10QSslSocket @ 1180 NONAME
	_ZTI10QTcpServer @ 1181 NONAME
	_ZTI10QTcpSocket @ 1182 NONAME
	_ZTI10QUdpSocket @ 1183 NONAME
	_ZTI11QHttpHeader @ 1184 NONAME
	_ZTI12QHttpRequest @ 1185 NONAME ABSENT
	_ZTI12QLocalServer @ 1186 NONAME
	_ZTI12QLocalSocket @ 1187 NONAME
	_ZTI13QNetworkReply @ 1188 NONAME
	_ZTI13QReadNotifier @ 1189 NONAME ABSENT
	_ZTI14QHostInfoAgent @ 1190 NONAME ABSENT
	_ZTI14QWriteNotifier @ 1191 NONAME ABSENT
	_ZTI15QAbstractSocket @ 1192 NONAME
	_ZTI15QHostInfoResult @ 1193 NONAME ABSENT
	_ZTI15QHttpPGHRequest @ 1194 NONAME ABSENT
	_ZTI16QSocks5BindStore @ 1195 NONAME ABSENT
	_ZTI17QHttpCloseRequest @ 1196 NONAME ABSENT
	_ZTI17QHttpNetworkReply @ 1197 NONAME
	_ZTI17QHttpSocketEngine @ 1198 NONAME
	_ZTI17QNetworkCookieJar @ 1199 NONAME
	_ZTI17QNetworkDiskCache @ 1200 NONAME
	_ZTI17QNetworkReplyImpl @ 1201 NONAME ABSENT
	_ZTI17QSslSocketPrivate @ 1202 NONAME ABSENT
	_ZTI17QTcpServerPrivate @ 1203 NONAME ABSENT
	_ZTI18QExceptionNotifier @ 1204 NONAME ABSENT
	_ZTI18QHttpNetworkHeader @ 1205 NONAME
	_ZTI18QHttpNormalRequest @ 1206 NONAME ABSENT
	_ZTI18QHttpRequestHeader @ 1207 NONAME
	_ZTI19QHttpNetworkRequest @ 1208 NONAME
	_ZTI19QHttpResponseHeader @ 1209 NONAME
	_ZTI19QHttpSetHostRequest @ 1210 NONAME ABSENT
	_ZTI19QHttpSetUserRequest @ 1211 NONAME ABSENT
	_ZTI19QNativeSocketEngine @ 1212 NONAME
	_ZTI19QNetworkAccessCache @ 1213 NONAME ABSENT
	_ZTI19QSocks5SocketEngine @ 1214 NONAME
	_ZTI20QNetworkProxyFactory @ 1215 NONAME
	_ZTI20QSocketEngineHandler @ 1216 NONAME
	_ZTI20QSocks5Authenticator @ 1217 NONAME ABSENT
	_ZTI21QAbstractNetworkCache @ 1218 NONAME
	_ZTI21QAbstractSocketEngine @ 1219 NONAME
	_ZTI21QHttpSetSocketRequest @ 1220 NONAME ABSENT
	_ZTI21QNetworkAccessBackend @ 1221 NONAME ABSENT
	_ZTI21QNetworkAccessManager @ 1222 NONAME
	_ZTI22QAbstractSocketPrivate @ 1223 NONAME ABSENT
	_ZTI22QHttpNetworkConnection @ 1224 NONAME
	_ZTI24QHttpNetworkReplyPrivate @ 1225 NONAME ABSENT
	_ZTI24QHttpSocketEngineHandler @ 1226 NONAME
	_ZTI24QHttpSocketEnginePrivate @ 1227 NONAME ABSENT
	_ZTI24QNetworkAccessFtpBackend @ 1228 NONAME ABSENT
	_ZTI24QSslSocketBackendPrivate @ 1229 NONAME ABSENT
	_ZTI25QNetworkAccessDataBackend @ 1230 NONAME ABSENT
	_ZTI25QNetworkAccessFileBackend @ 1231 NONAME ABSENT
	_ZTI25QNetworkAccessHttpBackend @ 1232 NONAME ABSENT
	_ZTI26QNativeSocketEnginePrivate @ 1233 NONAME ABSENT
	_ZTI26QNetworkAccessCacheBackend @ 1234 NONAME ABSENT
	_ZTI26QSocks5SocketEngineHandler @ 1235 NONAME
	_ZTI26QSocks5SocketEnginePrivate @ 1236 NONAME ABSENT
	_ZTI28QNetworkAccessBackendFactory @ 1237 NONAME ABSENT
	_ZTI28QSocks5PasswordAuthenticator @ 1238 NONAME ABSENT
	_ZTI29QHttpNetworkConnectionPrivate @ 1239 NONAME ABSENT
	_ZTI30QNetworkAccessDebugPipeBackend @ 1240 NONAME ABSENT
	_ZTI31QNetworkAccessFtpBackendFactory @ 1241 NONAME ABSENT
	_ZTI32QNetworkAccessDataBackendFactory @ 1242 NONAME ABSENT
	_ZTI32QNetworkAccessFileBackendFactory @ 1243 NONAME ABSENT
	_ZTI32QNetworkAccessHttpBackendFactory @ 1244 NONAME ABSENT
	_ZTI37QNetworkAccessDebugPipeBackendFactory @ 1245 NONAME ABSENT
	_ZTI4QFtp @ 1246 NONAME
	_ZTI5QHttp @ 1247 NONAME
	_ZTI6QFtpPI @ 1248 NONAME ABSENT
	_ZTI7QFtpDTP @ 1249 NONAME ABSENT
	_ZTI8QUrlInfo @ 1250 NONAME
	_ZTIN19QNetworkAccessCache15CacheableObjectE @ 1251 NONAME ABSENT
	_ZTV10QSslSocket @ 1252 NONAME
	_ZTV10QTcpServer @ 1253 NONAME
	_ZTV10QTcpSocket @ 1254 NONAME
	_ZTV10QUdpSocket @ 1255 NONAME
	_ZTV11QHttpHeader @ 1256 NONAME
	_ZTV12QHttpRequest @ 1257 NONAME ABSENT
	_ZTV12QLocalServer @ 1258 NONAME
	_ZTV12QLocalSocket @ 1259 NONAME
	_ZTV13QNetworkReply @ 1260 NONAME
	_ZTV13QReadNotifier @ 1261 NONAME ABSENT
	_ZTV14QHostInfoAgent @ 1262 NONAME ABSENT
	_ZTV14QWriteNotifier @ 1263 NONAME ABSENT
	_ZTV15QAbstractSocket @ 1264 NONAME
	_ZTV15QHostInfoResult @ 1265 NONAME ABSENT
	_ZTV15QHttpPGHRequest @ 1266 NONAME ABSENT
	_ZTV16QSocks5BindStore @ 1267 NONAME ABSENT
	_ZTV17QHttpCloseRequest @ 1268 NONAME ABSENT
	_ZTV17QHttpNetworkReply @ 1269 NONAME
	_ZTV17QHttpSocketEngine @ 1270 NONAME
	_ZTV17QNetworkCookieJar @ 1271 NONAME
	_ZTV17QNetworkDiskCache @ 1272 NONAME
	_ZTV17QNetworkReplyImpl @ 1273 NONAME ABSENT
	_ZTV17QSslSocketPrivate @ 1274 NONAME ABSENT
	_ZTV17QTcpServerPrivate @ 1275 NONAME ABSENT
	_ZTV18QExceptionNotifier @ 1276 NONAME ABSENT
	_ZTV18QHttpNormalRequest @ 1277 NONAME ABSENT
	_ZTV18QHttpRequestHeader @ 1278 NONAME
	_ZTV19QHttpNetworkRequest @ 1279 NONAME
	_ZTV19QHttpResponseHeader @ 1280 NONAME
	_ZTV19QHttpSetHostRequest @ 1281 NONAME ABSENT
	_ZTV19QHttpSetUserRequest @ 1282 NONAME ABSENT
	_ZTV19QNativeSocketEngine @ 1283 NONAME
	_ZTV19QNetworkAccessCache @ 1284 NONAME ABSENT
	_ZTV19QSocks5SocketEngine @ 1285 NONAME
	_ZTV20QNetworkProxyFactory @ 1286 NONAME
	_ZTV20QSocketEngineHandler @ 1287 NONAME
	_ZTV20QSocks5Authenticator @ 1288 NONAME ABSENT
	_ZTV21QAbstractNetworkCache @ 1289 NONAME
	_ZTV21QAbstractSocketEngine @ 1290 NONAME
	_ZTV21QHttpSetSocketRequest @ 1291 NONAME ABSENT
	_ZTV21QNetworkAccessBackend @ 1292 NONAME ABSENT
	_ZTV21QNetworkAccessManager @ 1293 NONAME
	_ZTV22QAbstractSocketPrivate @ 1294 NONAME ABSENT
	_ZTV22QHttpNetworkConnection @ 1295 NONAME
	_ZTV24QHttpNetworkReplyPrivate @ 1296 NONAME ABSENT
	_ZTV24QHttpSocketEngineHandler @ 1297 NONAME
	_ZTV24QHttpSocketEnginePrivate @ 1298 NONAME ABSENT
	_ZTV24QNetworkAccessFtpBackend @ 1299 NONAME ABSENT
	_ZTV24QSslSocketBackendPrivate @ 1300 NONAME ABSENT
	_ZTV25QNetworkAccessDataBackend @ 1301 NONAME ABSENT
	_ZTV25QNetworkAccessFileBackend @ 1302 NONAME ABSENT
	_ZTV25QNetworkAccessHttpBackend @ 1303 NONAME ABSENT
	_ZTV26QNativeSocketEnginePrivate @ 1304 NONAME ABSENT
	_ZTV26QNetworkAccessCacheBackend @ 1305 NONAME ABSENT
	_ZTV26QSocks5SocketEngineHandler @ 1306 NONAME
	_ZTV26QSocks5SocketEnginePrivate @ 1307 NONAME ABSENT
	_ZTV28QNetworkAccessBackendFactory @ 1308 NONAME ABSENT
	_ZTV28QSocks5PasswordAuthenticator @ 1309 NONAME ABSENT
	_ZTV29QHttpNetworkConnectionPrivate @ 1310 NONAME ABSENT
	_ZTV30QNetworkAccessDebugPipeBackend @ 1311 NONAME ABSENT
	_ZTV31QNetworkAccessFtpBackendFactory @ 1312 NONAME ABSENT
	_ZTV32QNetworkAccessDataBackendFactory @ 1313 NONAME ABSENT
	_ZTV32QNetworkAccessFileBackendFactory @ 1314 NONAME ABSENT
	_ZTV32QNetworkAccessHttpBackendFactory @ 1315 NONAME ABSENT
	_ZTV37QNetworkAccessDebugPipeBackendFactory @ 1316 NONAME ABSENT
	_ZTV4QFtp @ 1317 NONAME
	_ZTV5QHttp @ 1318 NONAME
	_ZTV6QFtpPI @ 1319 NONAME ABSENT
	_ZTV7QFtpDTP @ 1320 NONAME ABSENT
	_ZTV8QUrlInfo @ 1321 NONAME
	_ZTVN19QNetworkAccessCache15CacheableObjectE @ 1322 NONAME ABSENT
	_ZThn8_N17QHttpNetworkReply14setHeaderFieldERK10QByteArrayS2_ @ 1323 NONAME
	_ZThn8_N17QHttpNetworkReply16setContentLengthEx @ 1324 NONAME
	_ZThn8_N17QHttpNetworkReply6setUrlERK4QUrl @ 1325 NONAME
	_ZThn8_N17QHttpNetworkReplyD0Ev @ 1326 NONAME
	_ZThn8_N17QHttpNetworkReplyD1Ev @ 1327 NONAME
	_ZThn8_NK17QHttpNetworkReply11headerFieldERK10QByteArrayS2_ @ 1328 NONAME
	_ZThn8_NK17QHttpNetworkReply12majorVersionEv @ 1329 NONAME
	_ZThn8_NK17QHttpNetworkReply12minorVersionEv @ 1330 NONAME
	_ZThn8_NK17QHttpNetworkReply13contentLengthEv @ 1331 NONAME
	_ZThn8_NK17QHttpNetworkReply3urlEv @ 1332 NONAME
	_ZThn8_NK17QHttpNetworkReply6headerEv @ 1333 NONAME
	_Zls6QDebugN12QLocalSocket16LocalSocketErrorE @ 1334 NONAME
	_Zls6QDebugN12QLocalSocket16LocalSocketStateE @ 1335 NONAME
	_Zls6QDebugN15QAbstractSocket11SocketErrorE @ 1336 NONAME
	_Zls6QDebugN15QAbstractSocket11SocketStateE @ 1337 NONAME
	_Zls6QDebugN15QSslCertificate11SubjectInfoE @ 1338 NONAME
	_Zls6QDebugRK10QSslCipher @ 1339 NONAME
	_Zls6QDebugRK12QHostAddress @ 1340 NONAME
	_Zls6QDebugRK14QNetworkCookie @ 1341 NONAME
	_Zls6QDebugRK15QSslCertificate @ 1342 NONAME
	_Zls6QDebugRK17QNetworkInterface @ 1343 NONAME
	_Zls6QDebugRK7QSslKey @ 1344 NONAME
	_Zls6QDebugRK9QSslError @ 1345 NONAME
	_Zls6QDebugRKN9QSslError8SslErrorE @ 1346 NONAME
	_ZlsR11QDataStreamRK12QHostAddress @ 1347 NONAME
	_ZlsR11QDataStreamRK21QNetworkCacheMetaData @ 1348 NONAME
	_ZrsR11QDataStreamR12QHostAddress @ 1349 NONAME
	_ZrsR11QDataStreamR21QNetworkCacheMetaData @ 1350 NONAME
	_ZN10QSslSocket15ignoreSslErrorsERK5QListI9QSslErrorE @ 1351 NONAME
	_ZN10QSslSocket22connectToHostEncryptedERK7QStringtS2_6QFlagsIN9QIODevice12OpenModeFlagEE @ 1352 NONAME
	_ZN13QNetworkReply15ignoreSslErrorsERK5QListI9QSslErrorE @ 1353 NONAME
	_ZN15QAbstractSocket12socketOptionENS_12SocketOptionE @ 1354 NONAME
	_ZN15QAbstractSocket15setSocketOptionENS_12SocketOptionE8QVariant @ 1355 NONAME
	_ZN17QHttpNetworkReply15ignoreSslErrorsERK5QListI9QSslErrorE @ 1356 NONAME
	_ZN17QHttpNetworkReply16dataSendProgressExx @ 1357 NONAME
	_ZN17QHttpNetworkReply7readAnyEv @ 1358 NONAME
	_ZN19QHttpNetworkRequest19setUploadByteDeviceEP24QNonContiguousByteDevice @ 1359 NONAME
	_ZN21QNetworkAccessManager14deleteResourceERK15QNetworkRequest @ 1360 NONAME
	_ZN22QHttpNetworkConnection15ignoreSslErrorsERK5QListI9QSslErrorEi @ 1361 NONAME
	_ZNK13QNetworkReply10isFinishedEv @ 1362 NONAME
	_ZNK13QNetworkReply9isRunningEv @ 1363 NONAME
	_ZNK17QHttpNetworkReply23bytesAvailableNextBlockEv @ 1364 NONAME
	_ZNK19QHttpNetworkRequest16uploadByteDeviceEv @ 1365 NONAME

