EXPORTS
	_Z14qScriptConnectP7QObjectPKcRK12QScriptValueS5_ @ 1 NONAME
	_Z14qt_scriptToXmlRK7QStringi @ 2 NONAME
	_Z17qScriptDisconnectP7QObjectPKcRK12QScriptValueS5_ @ 3 NONAME
	_ZN11QScriptableC1Ev @ 4 NONAME
	_ZN11QScriptableC2Ev @ 5 NONAME
	_ZN11QScriptableD1Ev @ 6 NONAME
	_ZN11QScriptableD2Ev @ 7 NONAME
	_ZN12QScriptClass11newIteratorERK12QScriptValue @ 8 NONAME
	_ZN12QScriptClass11setPropertyER12QScriptValueRK13QScriptStringjRKS0_ @ 9 NONAME
	_ZN12QScriptClass13propertyFlagsERK12QScriptValueRK13QScriptStringj @ 10 NONAME
	_ZN12QScriptClass13queryPropertyERK12QScriptValueRK13QScriptString6QFlagsINS_9QueryFlagEEPj @ 11 NONAME
	_ZN12QScriptClass8propertyERK12QScriptValueRK13QScriptStringj @ 12 NONAME
	_ZN12QScriptClass9extensionENS_9ExtensionERK8QVariant @ 13 NONAME
	_ZN12QScriptClassC1EP13QScriptEngine @ 14 NONAME
	_ZN12QScriptClassC1EP13QScriptEngineR19QScriptClassPrivate @ 15 NONAME
	_ZN12QScriptClassC2EP13QScriptEngine @ 16 NONAME
	_ZN12QScriptClassC2EP13QScriptEngineR19QScriptClassPrivate @ 17 NONAME
	_ZN12QScriptClassD0Ev @ 18 NONAME
	_ZN12QScriptClassD1Ev @ 19 NONAME
	_ZN12QScriptClassD2Ev @ 20 NONAME
	_ZN12QScriptValue11setPropertyERK13QScriptStringRKS_RK6QFlagsINS_12PropertyFlagEE @ 21 NONAME
	_ZN12QScriptValue11setPropertyERK7QStringRKS_RK6QFlagsINS_12PropertyFlagEE @ 22 NONAME
	_ZN12QScriptValue11setPropertyEjRKS_RK6QFlagsINS_12PropertyFlagEE @ 23 NONAME
	_ZN12QScriptValue12setPrototypeERKS_ @ 24 NONAME
	_ZN12QScriptValue14setScriptClassEP12QScriptClass @ 25 NONAME
	_ZN12QScriptValue4callERKS_RK5QListIS_E @ 26 NONAME
	_ZN12QScriptValue4callERKS_S1_ @ 27 NONAME
	_ZN12QScriptValue7setDataERKS_ @ 28 NONAME
	_ZN12QScriptValue8setScopeERKS_ @ 29 NONAME
	_ZN12QScriptValue9constructERK5QListIS_E @ 30 NONAME
	_ZN12QScriptValue9constructERKS_ @ 31 NONAME
	_ZN12QScriptValueC1ENS_12SpecialValueE @ 32 NONAME
	_ZN12QScriptValueC1EP13QScriptEngineNS_12SpecialValueE @ 33 NONAME
	_ZN12QScriptValueC1EP13QScriptEnginePKc @ 34 NONAME
	_ZN12QScriptValueC1EP13QScriptEngineRK7QString @ 35 NONAME
	_ZN12QScriptValueC1EP13QScriptEngineb @ 36 NONAME
	_ZN12QScriptValueC1EP13QScriptEngined @ 37 NONAME
	_ZN12QScriptValueC1EP13QScriptEnginei @ 38 NONAME
	_ZN12QScriptValueC1EP13QScriptEnginej @ 39 NONAME
	_ZN12QScriptValueC1EPKc @ 40 NONAME
	_ZN12QScriptValueC1ERK13QLatin1String @ 41 NONAME
	_ZN12QScriptValueC1ERK7QString @ 42 NONAME
	_ZN12QScriptValueC1ERKS_ @ 43 NONAME
	_ZN12QScriptValueC1Eb @ 44 NONAME
	_ZN12QScriptValueC1Ed @ 45 NONAME
	_ZN12QScriptValueC1Ei @ 46 NONAME
	_ZN12QScriptValueC1Ej @ 47 NONAME
	_ZN12QScriptValueC1Ev @ 48 NONAME
	_ZN12QScriptValueC2ENS_12SpecialValueE @ 49 NONAME
	_ZN12QScriptValueC2EP13QScriptEngineNS_12SpecialValueE @ 50 NONAME
	_ZN12QScriptValueC2EP13QScriptEnginePKc @ 51 NONAME
	_ZN12QScriptValueC2EP13QScriptEngineRK7QString @ 52 NONAME
	_ZN12QScriptValueC2EP13QScriptEngineb @ 53 NONAME
	_ZN12QScriptValueC2EP13QScriptEngined @ 54 NONAME
	_ZN12QScriptValueC2EP13QScriptEnginei @ 55 NONAME
	_ZN12QScriptValueC2EP13QScriptEnginej @ 56 NONAME
	_ZN12QScriptValueC2EPKc @ 57 NONAME
	_ZN12QScriptValueC2ERK13QLatin1String @ 58 NONAME
	_ZN12QScriptValueC2ERK7QString @ 59 NONAME
	_ZN12QScriptValueC2ERKS_ @ 60 NONAME
	_ZN12QScriptValueC2Eb @ 61 NONAME
	_ZN12QScriptValueC2Ed @ 62 NONAME
	_ZN12QScriptValueC2Ei @ 63 NONAME
	_ZN12QScriptValueC2Ej @ 64 NONAME
	_ZN12QScriptValueC2Ev @ 65 NONAME
	_ZN12QScriptValueD1Ev @ 66 NONAME
	_ZN12QScriptValueD2Ev @ 67 NONAME
	_ZN12QScriptValueaSERKS_ @ 68 NONAME
	_ZN13QScriptEngine10newQObjectEP7QObjectNS_14ValueOwnershipERK6QFlagsINS_17QObjectWrapOptionEE @ 69 NONAME
	_ZN13QScriptEngine10newQObjectERK12QScriptValueP7QObjectNS_14ValueOwnershipERK6QFlagsINS_17QObjectWrapOptionEE @ 70 NONAME
	_ZN13QScriptEngine10newVariantERK12QScriptValueRK8QVariant @ 71 NONAME
	_ZN13QScriptEngine10newVariantERK8QVariant @ 72 NONAME
	_ZN13QScriptEngine10popContextEv @ 73 NONAME
	_ZN13QScriptEngine11checkSyntaxERK7QString @ 74 NONAME
	_ZN13QScriptEngine11newFunctionEPF12QScriptValueP14QScriptContextPS_ERKS0_i @ 75 NONAME
	_ZN13QScriptEngine11newFunctionEPF12QScriptValueP14QScriptContextPS_Ei @ 76 NONAME
	_ZN13QScriptEngine11newFunctionEPF12QScriptValueP14QScriptContextPS_PvES4_ @ 77 NONAME
	_ZN13QScriptEngine11pushContextEv @ 78 NONAME
	_ZN13QScriptEngine11qt_metacallEN11QMetaObject4CallEiPPv @ 79 NONAME
	_ZN13QScriptEngine11qt_metacastEPKc @ 80 NONAME
	_ZN13QScriptEngine14collectGarbageEv @ 81 NONAME
	_ZN13QScriptEngine14newQMetaObjectEPK11QMetaObjectRK12QScriptValue @ 82 NONAME
	_ZN13QScriptEngine14toStringHandleERK7QString @ 83 NONAME
	_ZN13QScriptEngine14undefinedValueEv @ 84 NONAME
	_ZN13QScriptEngine15abortEvaluationERK12QScriptValue @ 85 NONAME
	_ZN13QScriptEngine15clearExceptionsEv @ 86 NONAME
	_ZN13QScriptEngine15importExtensionERK7QString @ 87 NONAME
	_ZN13QScriptEngine15setGlobalObjectERK12QScriptValue @ 88 NONAME
	_ZN13QScriptEngine16staticMetaObjectE @ 89 NONAME DATA 16
	_ZN13QScriptEngine18registerCustomTypeEiPF12QScriptValuePS_PKvEPFvRKS0_PvES7_ @ 90 NONAME
	_ZN13QScriptEngine19newActivationObjectEv @ 91 NONAME
	_ZN13QScriptEngine19setDefaultPrototypeEiRK12QScriptValue @ 92 NONAME
	_ZN13QScriptEngine22signalHandlerExceptionERK12QScriptValue @ 93 NONAME
	_ZN13QScriptEngine24setProcessEventsIntervalEi @ 94 NONAME
	_ZN13QScriptEngine26installTranslatorFunctionsERK12QScriptValue @ 95 NONAME
	_ZN13QScriptEngine6createEiPKv @ 96 NONAME
	_ZN13QScriptEngine7convertERK12QScriptValueiPv @ 97 NONAME
	_ZN13QScriptEngine7newDateERK9QDateTime @ 98 NONAME
	_ZN13QScriptEngine7newDateEd @ 99 NONAME
	_ZN13QScriptEngine8evaluateERK7QStringS2_i @ 100 NONAME
	_ZN13QScriptEngine8newArrayEj @ 101 NONAME
	_ZN13QScriptEngine8setAgentEP18QScriptEngineAgent @ 102 NONAME
	_ZN13QScriptEngine8toObjectERK12QScriptValue @ 103 NONAME
	_ZN13QScriptEngine9convertV2ERK12QScriptValueiPv @ 104 NONAME
	_ZN13QScriptEngine9newObjectEP12QScriptClassRK12QScriptValue @ 105 NONAME
	_ZN13QScriptEngine9newObjectEv @ 106 NONAME
	_ZN13QScriptEngine9newRegExpERK7QRegExp @ 107 NONAME
	_ZN13QScriptEngine9newRegExpERK7QStringS2_ @ 108 NONAME
	_ZN13QScriptEngine9nullValueEv @ 109 NONAME
	_ZN13QScriptEngineC1EP7QObject @ 110 NONAME
	_ZN13QScriptEngineC1ER20QScriptEnginePrivateP7QObject @ 111 NONAME
	_ZN13QScriptEngineC1Ev @ 112 NONAME
	_ZN13QScriptEngineC2EP7QObject @ 113 NONAME
	_ZN13QScriptEngineC2ER20QScriptEnginePrivateP7QObject @ 114 NONAME
	_ZN13QScriptEngineC2Ev @ 115 NONAME
	_ZN13QScriptEngineD0Ev @ 116 NONAME
	_ZN13QScriptEngineD1Ev @ 117 NONAME
	_ZN13QScriptEngineD2Ev @ 118 NONAME
	_ZN13QScriptStringC1ERKS_ @ 119 NONAME
	_ZN13QScriptStringC1Ev @ 120 NONAME
	_ZN13QScriptStringC2ERKS_ @ 121 NONAME
	_ZN13QScriptStringC2Ev @ 122 NONAME
	_ZN13QScriptStringD1Ev @ 123 NONAME
	_ZN13QScriptStringD2Ev @ 124 NONAME
	_ZN13QScriptStringaSERKS_ @ 125 NONAME
	_ZN14QScriptContext10throwErrorENS_5ErrorERK7QString @ 126 NONAME
	_ZN14QScriptContext10throwErrorERK7QString @ 127 NONAME
	_ZN14QScriptContext10throwValueERK12QScriptValue @ 128 NONAME
	_ZN14QScriptContext13setThisObjectERK12QScriptValue @ 129 NONAME
	_ZN14QScriptContext14setReturnValueERK12QScriptValue @ 130 NONAME
	_ZN14QScriptContext19setActivationObjectERK12QScriptValue @ 131 NONAME
	_ZN14QScriptContext8popScopeEv @ 132 NONAME
	_ZN14QScriptContext9pushScopeERK12QScriptValue @ 133 NONAME
	_ZN14QScriptContextC1Ev @ 134 NONAME
	_ZN14QScriptContextC2Ev @ 135 NONAME
	_ZN14QScriptContextD1Ev @ 136 NONAME
	_ZN14QScriptContextD2Ev @ 137 NONAME
	_ZN18QScriptContextInfoC1EPK14QScriptContext @ 138 NONAME
	_ZN18QScriptContextInfoC1ERKS_ @ 139 NONAME
	_ZN18QScriptContextInfoC1Ev @ 140 NONAME
	_ZN18QScriptContextInfoC2EPK14QScriptContext @ 141 NONAME
	_ZN18QScriptContextInfoC2ERKS_ @ 142 NONAME
	_ZN18QScriptContextInfoC2Ev @ 143 NONAME
	_ZN18QScriptContextInfoD1Ev @ 144 NONAME
	_ZN18QScriptContextInfoD2Ev @ 145 NONAME
	_ZN18QScriptContextInfoaSERKS_ @ 146 NONAME
	_ZN18QScriptEngineAgent10contextPopEv @ 147 NONAME
	_ZN18QScriptEngineAgent10scriptLoadExRK7QStringS2_i @ 148 NONAME
	_ZN18QScriptEngineAgent11contextPushEv @ 149 NONAME
	_ZN18QScriptEngineAgent12functionExitExRK12QScriptValue @ 150 NONAME
	_ZN18QScriptEngineAgent12scriptUnloadEx @ 151 NONAME
	_ZN18QScriptEngineAgent13functionEntryEx @ 152 NONAME
	_ZN18QScriptEngineAgent14exceptionCatchExRK12QScriptValue @ 153 NONAME
	_ZN18QScriptEngineAgent14exceptionThrowExRK12QScriptValueb @ 154 NONAME
	_ZN18QScriptEngineAgent14positionChangeExii @ 155 NONAME
	_ZN18QScriptEngineAgent9extensionENS_9ExtensionERK8QVariant @ 156 NONAME
	_ZN18QScriptEngineAgentC1EP13QScriptEngine @ 157 NONAME
	_ZN18QScriptEngineAgentC1ER25QScriptEngineAgentPrivateP13QScriptEngine @ 158 NONAME
	_ZN18QScriptEngineAgentC2EP13QScriptEngine @ 159 NONAME
	_ZN18QScriptEngineAgentC2ER25QScriptEngineAgentPrivateP13QScriptEngine @ 160 NONAME
	_ZN18QScriptEngineAgentD0Ev @ 161 NONAME
	_ZN18QScriptEngineAgentD1Ev @ 162 NONAME
	_ZN18QScriptEngineAgentD2Ev @ 163 NONAME
	_ZN20QScriptValueIterator4nextEv @ 164 NONAME
	_ZN20QScriptValueIterator6removeEv @ 165 NONAME
	_ZN20QScriptValueIterator6toBackEv @ 166 NONAME
	_ZN20QScriptValueIterator7toFrontEv @ 167 NONAME
	_ZN20QScriptValueIterator8previousEv @ 168 NONAME
	_ZN20QScriptValueIterator8setValueERK12QScriptValue @ 169 NONAME
	_ZN20QScriptValueIteratorC1ERK12QScriptValue @ 170 NONAME
	_ZN20QScriptValueIteratorC2ERK12QScriptValue @ 171 NONAME
	_ZN20QScriptValueIteratorD1Ev @ 172 NONAME
	_ZN20QScriptValueIteratorD2Ev @ 173 NONAME
	_ZN20QScriptValueIteratoraSER12QScriptValue @ 174 NONAME
	_ZN22QScriptExtensionPlugin11qt_metacallEN11QMetaObject4CallEiPPv @ 175 NONAME
	_ZN22QScriptExtensionPlugin11qt_metacastEPKc @ 176 NONAME
	_ZN22QScriptExtensionPlugin16staticMetaObjectE @ 177 NONAME DATA 16
	_ZN22QScriptExtensionPluginC2EP7QObject @ 178 NONAME
	_ZN22QScriptExtensionPluginD0Ev @ 179 NONAME
	_ZN22QScriptExtensionPluginD1Ev @ 180 NONAME
	_ZN22QScriptExtensionPluginD2Ev @ 181 NONAME
	_ZN24QScriptSyntaxCheckResultC1EP31QScriptSyntaxCheckResultPrivate @ 182 NONAME
	_ZN24QScriptSyntaxCheckResultC1ERKS_ @ 183 NONAME
	_ZN24QScriptSyntaxCheckResultC1Ev @ 184 NONAME
	_ZN24QScriptSyntaxCheckResultC2EP31QScriptSyntaxCheckResultPrivate @ 185 NONAME
	_ZN24QScriptSyntaxCheckResultC2ERKS_ @ 186 NONAME
	_ZN24QScriptSyntaxCheckResultC2Ev @ 187 NONAME
	_ZN24QScriptSyntaxCheckResultD1Ev @ 188 NONAME
	_ZN24QScriptSyntaxCheckResultD2Ev @ 189 NONAME
	_ZN24QScriptSyntaxCheckResultaSERKS_ @ 190 NONAME
	_ZN25QScriptEngineAgentPrivateC1Ev @ 191 NONAME
	_ZN25QScriptEngineAgentPrivateC2Ev @ 192 NONAME
	_ZN25QScriptEngineAgentPrivateD0Ev @ 193 NONAME
	_ZN25QScriptEngineAgentPrivateD1Ev @ 194 NONAME
	_ZN25QScriptEngineAgentPrivateD2Ev @ 195 NONAME
	_ZN28QScriptClassPropertyIteratorC2ERK12QScriptValue @ 196 NONAME
	_ZN28QScriptClassPropertyIteratorC2ERK12QScriptValueR35QScriptClassPropertyIteratorPrivate @ 197 NONAME
	_ZN28QScriptClassPropertyIteratorD0Ev @ 198 NONAME
	_ZN28QScriptClassPropertyIteratorD1Ev @ 199 NONAME
	_ZN28QScriptClassPropertyIteratorD2Ev @ 200 NONAME
	_ZNK11QScriptable10thisObjectEv @ 201 NONAME
	_ZNK11QScriptable13argumentCountEv @ 202 NONAME
	_ZNK11QScriptable6engineEv @ 203 NONAME
	_ZNK11QScriptable7contextEv @ 204 NONAME
	_ZNK11QScriptable8argumentEi @ 205 NONAME
	_ZNK12QScriptClass17supportsExtensionENS_9ExtensionE @ 206 NONAME
	_ZNK12QScriptClass4nameEv @ 207 NONAME
	_ZNK12QScriptClass6engineEv @ 208 NONAME
	_ZNK12QScriptClass9prototypeEv @ 209 NONAME
	_ZNK12QScriptValue10instanceOfERKS_ @ 210 NONAME
	_ZNK12QScriptValue10isFunctionEv @ 211 NONAME
	_ZNK12QScriptValue10toDateTimeEv @ 212 NONAME
	_ZNK12QScriptValue11isUndefinedEv @ 213 NONAME
	_ZNK12QScriptValue11scriptClassEv @ 214 NONAME
	_ZNK12QScriptValue13isQMetaObjectEv @ 215 NONAME
	_ZNK12QScriptValue13propertyFlagsERK13QScriptStringRK6QFlagsINS_11ResolveFlagEE @ 216 NONAME
	_ZNK12QScriptValue13propertyFlagsERK7QStringRK6QFlagsINS_11ResolveFlagEE @ 217 NONAME
	_ZNK12QScriptValue13toQMetaObjectEv @ 218 NONAME
	_ZNK12QScriptValue14strictlyEqualsERKS_ @ 219 NONAME
	_ZNK12QScriptValue4dataEv @ 220 NONAME
	_ZNK12QScriptValue5scopeEv @ 221 NONAME
	_ZNK12QScriptValue6engineEv @ 222 NONAME
	_ZNK12QScriptValue6equalsERKS_ @ 223 NONAME
	_ZNK12QScriptValue6isBoolEv @ 224 NONAME
	_ZNK12QScriptValue6isDateEv @ 225 NONAME
	_ZNK12QScriptValue6isNullEv @ 226 NONAME
	_ZNK12QScriptValue6toBoolEv @ 227 NONAME
	_ZNK12QScriptValue7isArrayEv @ 228 NONAME
	_ZNK12QScriptValue7isErrorEv @ 229 NONAME
	_ZNK12QScriptValue7isValidEv @ 230 NONAME
	_ZNK12QScriptValue7toInt32Ev @ 231 NONAME
	_ZNK12QScriptValue8isNumberEv @ 232 NONAME
	_ZNK12QScriptValue8isObjectEv @ 233 NONAME
	_ZNK12QScriptValue8isRegExpEv @ 234 NONAME
	_ZNK12QScriptValue8isStringEv @ 235 NONAME
	_ZNK12QScriptValue8lessThanERKS_ @ 236 NONAME
	_ZNK12QScriptValue8objectIdEv @ 237 NONAME
	_ZNK12QScriptValue8propertyERK13QScriptStringRK6QFlagsINS_11ResolveFlagEE @ 238 NONAME
	_ZNK12QScriptValue8propertyERK7QStringRK6QFlagsINS_11ResolveFlagEE @ 239 NONAME
	_ZNK12QScriptValue8propertyEjRK6QFlagsINS_11ResolveFlagEE @ 240 NONAME
	_ZNK12QScriptValue8toNumberEv @ 241 NONAME
	_ZNK12QScriptValue8toObjectEv @ 242 NONAME
	_ZNK12QScriptValue8toRegExpEv @ 243 NONAME
	_ZNK12QScriptValue8toStringEv @ 244 NONAME
	_ZNK12QScriptValue8toUInt16Ev @ 245 NONAME
	_ZNK12QScriptValue8toUInt32Ev @ 246 NONAME
	_ZNK12QScriptValue9isBooleanEv @ 247 NONAME
	_ZNK12QScriptValue9isQObjectEv @ 248 NONAME
	_ZNK12QScriptValue9isVariantEv @ 249 NONAME
	_ZNK12QScriptValue9prototypeEv @ 250 NONAME
	_ZNK12QScriptValue9toBooleanEv @ 251 NONAME
	_ZNK12QScriptValue9toIntegerEv @ 252 NONAME
	_ZNK12QScriptValue9toQObjectEv @ 253 NONAME
	_ZNK12QScriptValue9toVariantEv @ 254 NONAME
	_ZNK13QScriptEngine10metaObjectEv @ 255 NONAME
	_ZNK13QScriptEngine10objectByIdEx @ 256 NONAME
	_ZNK13QScriptEngine11canEvaluateERK7QString @ 257 NONAME
	_ZNK13QScriptEngine12globalObjectEv @ 258 NONAME
	_ZNK13QScriptEngine12isEvaluatingEv @ 259 NONAME
	_ZNK13QScriptEngine14currentContextEv @ 260 NONAME
	_ZNK13QScriptEngine16defaultPrototypeEi @ 261 NONAME
	_ZNK13QScriptEngine17uncaughtExceptionEv @ 262 NONAME
	_ZNK13QScriptEngine18importedExtensionsEv @ 263 NONAME
	_ZNK13QScriptEngine19availableExtensionsEv @ 264 NONAME
	_ZNK13QScriptEngine20hasUncaughtExceptionEv @ 265 NONAME
	_ZNK13QScriptEngine21processEventsIntervalEv @ 266 NONAME
	_ZNK13QScriptEngine26uncaughtExceptionBacktraceEv @ 267 NONAME
	_ZNK13QScriptEngine27uncaughtExceptionLineNumberEv @ 268 NONAME
	_ZNK13QScriptEngine5agentEv @ 269 NONAME
	_ZNK13QScriptString7isValidEv @ 270 NONAME
	_ZNK13QScriptString8toStringEv @ 271 NONAME
	_ZNK13QScriptStringcv7QStringEv @ 272 NONAME
	_ZNK13QScriptStringeqERKS_ @ 273 NONAME
	_ZNK13QScriptStringneERKS_ @ 274 NONAME
	_ZNK14QScriptContext10scopeChainEv @ 275 NONAME
	_ZNK14QScriptContext10thisObjectEv @ 276 NONAME
	_ZNK14QScriptContext11returnValueEv @ 277 NONAME
	_ZNK14QScriptContext13argumentCountEv @ 278 NONAME
	_ZNK14QScriptContext13parentContextEv @ 279 NONAME
	_ZNK14QScriptContext15argumentsObjectEv @ 280 NONAME
	_ZNK14QScriptContext16activationObjectEv @ 281 NONAME
	_ZNK14QScriptContext21isCalledAsConstructorEv @ 282 NONAME
	_ZNK14QScriptContext5stateEv @ 283 NONAME
	_ZNK14QScriptContext6calleeEv @ 284 NONAME
	_ZNK14QScriptContext6engineEv @ 285 NONAME
	_ZNK14QScriptContext8argumentEi @ 286 NONAME
	_ZNK14QScriptContext8toStringEv @ 287 NONAME
	_ZNK14QScriptContext9backtraceEv @ 288 NONAME
	_ZNK18QScriptContextInfo10lineNumberEv @ 289 NONAME
	_ZNK18QScriptContextInfo12columnNumberEv @ 290 NONAME
	_ZNK18QScriptContextInfo12functionNameEv @ 291 NONAME
	_ZNK18QScriptContextInfo12functionTypeEv @ 292 NONAME
	_ZNK18QScriptContextInfo17functionMetaIndexEv @ 293 NONAME
	_ZNK18QScriptContextInfo21functionEndLineNumberEv @ 294 NONAME
	_ZNK18QScriptContextInfo22functionParameterNamesEv @ 295 NONAME
	_ZNK18QScriptContextInfo23functionStartLineNumberEv @ 296 NONAME
	_ZNK18QScriptContextInfo6isNullEv @ 297 NONAME
	_ZNK18QScriptContextInfo8fileNameEv @ 298 NONAME
	_ZNK18QScriptContextInfo8scriptIdEv @ 299 NONAME
	_ZNK18QScriptContextInfoeqERKS_ @ 300 NONAME
	_ZNK18QScriptContextInfoneERKS_ @ 301 NONAME
	_ZNK18QScriptEngineAgent17supportsExtensionENS_9ExtensionE @ 302 NONAME
	_ZNK18QScriptEngineAgent6engineEv @ 303 NONAME
	_ZNK20QScriptValueIterator10scriptNameEv @ 304 NONAME
	_ZNK20QScriptValueIterator11hasPreviousEv @ 305 NONAME
	_ZNK20QScriptValueIterator4nameEv @ 306 NONAME
	_ZNK20QScriptValueIterator5flagsEv @ 307 NONAME
	_ZNK20QScriptValueIterator5valueEv @ 308 NONAME
	_ZNK20QScriptValueIterator7hasNextEv @ 309 NONAME
	_ZNK22QScriptExtensionPlugin10metaObjectEv @ 310 NONAME
	_ZNK22QScriptExtensionPlugin12setupPackageERK7QStringP13QScriptEngine @ 311 NONAME
	_ZNK24QScriptSyntaxCheckResult12errorMessageEv @ 312 NONAME
	_ZNK24QScriptSyntaxCheckResult15errorLineNumberEv @ 313 NONAME
	_ZNK24QScriptSyntaxCheckResult17errorColumnNumberEv @ 314 NONAME
	_ZNK24QScriptSyntaxCheckResult5stateEv @ 315 NONAME
	_ZNK28QScriptClassPropertyIterator2idEv @ 316 NONAME
	_ZNK28QScriptClassPropertyIterator5flagsEv @ 317 NONAME
	_ZNK28QScriptClassPropertyIterator6objectEv @ 318 NONAME
	_ZTI12QScriptClass @ 319 NONAME
	_ZTI13QScriptEngine @ 320 NONAME
	_ZTI15QScriptFunction @ 321 NONAME ABSENT
	_ZTI16QScriptClassData @ 322 NONAME ABSENT
	_ZTI18QScriptEngineAgent @ 323 NONAME
	_ZTI19QScriptClassPrivate @ 324 NONAME ABSENT
	_ZTI20QScriptEnginePrivate @ 325 NONAME ABSENT
	_ZTI22QScriptCustomClassData @ 326 NONAME ABSENT
	_ZTI22QScriptExtensionPlugin @ 327 NONAME
	_ZTI24QScriptClassDataIterator @ 328 NONAME ABSENT
	_ZTI25QScriptEngineAgentPrivate @ 329 NONAME
	_ZTI25QScriptExtensionInterface @ 330 NONAME
	_ZTI28QScriptClassPropertyIterator @ 331 NONAME
	_ZTI30QScriptCustomClassDataIterator @ 332 NONAME ABSENT
	_ZTI35QScriptClassPropertyIteratorPrivate @ 333 NONAME ABSENT
	_ZTIN7QScript10C2FunctionE @ 334 NONAME ABSENT
	_ZTIN7QScript10C3FunctionE @ 335 NONAME ABSENT
	_ZTIN7QScript10ExtQObject8InstanceE @ 336 NONAME ABSENT
	_ZTIN7QScript10ExtQObjectE @ 337 NONAME ABSENT
	_ZTIN7QScript10QtFunctionE @ 338 NONAME ABSENT
	_ZTIN7QScript12PrettyPrettyE @ 339 NONAME ABSENT
	_ZTIN7QScript12XmlGeneratorE @ 340 NONAME ABSENT
	_ZTIN7QScript14ExtQMetaObject8InstanceE @ 341 NONAME ABSENT
	_ZTIN7QScript14ExtQMetaObjectE @ 342 NONAME ABSENT
	_ZTIN7QScript14ScriptFunctionE @ 343 NONAME ABSENT
	_ZTIN7QScript16QObjectPrototypeE @ 344 NONAME ABSENT
	_ZTIN7QScript18ArgumentsClassDataE @ 345 NONAME ABSENT
	_ZTIN7QScript18ExtQMetaObjectDataE @ 346 NONAME ABSENT
	_ZTIN7QScript18QtPropertyFunctionE @ 347 NONAME ABSENT
	_ZTIN7QScript22ExtQObjectDataIteratorE @ 348 NONAME ABSENT
	_ZTIN7QScript24QObjectConnectionManagerE @ 349 NONAME ABSENT
	_ZTIN7QScript26ArgumentsClassDataIteratorE @ 350 NONAME ABSENT
	_ZTIN7QScript3AST10CaseClauseE @ 351 NONAME ABSENT
	_ZTIN7QScript3AST10ExpressionE @ 352 NONAME ABSENT
	_ZTIN7QScript3AST11CaseClausesE @ 353 NONAME ABSENT
	_ZTIN7QScript3AST11ElementListE @ 354 NONAME ABSENT
	_ZTIN7QScript3AST11IfStatementE @ 355 NONAME ABSENT
	_ZTIN7QScript3AST11TrueLiteralE @ 356 NONAME ABSENT
	_ZTIN7QScript3AST12ArgumentListE @ 357 NONAME ABSENT
	_ZTIN7QScript3AST12ArrayLiteralE @ 358 NONAME ABSENT
	_ZTIN7QScript3AST12FalseLiteralE @ 359 NONAME ABSENT
	_ZTIN7QScript3AST12ForStatementE @ 360 NONAME ABSENT
	_ZTIN7QScript3AST12FunctionBodyE @ 361 NONAME ABSENT
	_ZTIN7QScript3AST12TryStatementE @ 362 NONAME ABSENT
	_ZTIN7QScript3AST13DefaultClauseE @ 363 NONAME ABSENT
	_ZTIN7QScript3AST13NewExpressionE @ 364 NONAME ABSENT
	_ZTIN7QScript3AST13NotExpressionE @ 365 NONAME ABSENT
	_ZTIN7QScript3AST13ObjectLiteralE @ 366 NONAME ABSENT
	_ZTIN7QScript3AST13RegExpLiteralE @ 367 NONAME ABSENT
	_ZTIN7QScript3AST13StatementListE @ 368 NONAME ABSENT
	_ZTIN7QScript3AST13StringLiteralE @ 369 NONAME ABSENT
	_ZTIN7QScript3AST13WithStatementE @ 370 NONAME ABSENT
	_ZTIN7QScript3AST14BreakStatementE @ 371 NONAME ABSENT
	_ZTIN7QScript3AST14CallExpressionE @ 372 NONAME ABSENT
	_ZTIN7QScript3AST14EmptyStatementE @ 373 NONAME ABSENT
	_ZTIN7QScript3AST14ExpressionNodeE @ 374 NONAME ABSENT
	_ZTIN7QScript3AST14NullExpressionE @ 375 NONAME ABSENT
	_ZTIN7QScript3AST14NumericLiteralE @ 376 NONAME ABSENT
	_ZTIN7QScript3AST14SourceElementsE @ 377 NONAME ABSENT
	_ZTIN7QScript3AST14ThisExpressionE @ 378 NONAME ABSENT
	_ZTIN7QScript3AST14ThrowStatementE @ 379 NONAME ABSENT
	_ZTIN7QScript3AST14VoidExpressionE @ 380 NONAME ABSENT
	_ZTIN7QScript3AST14WhileStatementE @ 381 NONAME ABSENT
	_ZTIN7QScript3AST15ReturnStatementE @ 382 NONAME ABSENT
	_ZTIN7QScript3AST15SwitchStatementE @ 383 NONAME ABSENT
	_ZTIN7QScript3AST15TildeExpressionE @ 384 NONAME ABSENT
	_ZTIN7QScript3AST16BinaryExpressionE @ 385 NONAME ABSENT
	_ZTIN7QScript3AST16DeleteExpressionE @ 386 NONAME ABSENT
	_ZTIN7QScript3AST16DoWhileStatementE @ 387 NONAME ABSENT
	_ZTIN7QScript3AST16ForEachStatementE @ 388 NONAME ABSENT
	_ZTIN7QScript3AST16TypeOfExpressionE @ 389 NONAME ABSENT
	_ZTIN7QScript3AST17ContinueStatementE @ 390 NONAME ABSENT
	_ZTIN7QScript3AST17DebuggerStatementE @ 391 NONAME ABSENT
	_ZTIN7QScript3AST17LabelledStatementE @ 392 NONAME ABSENT
	_ZTIN7QScript3AST17LocalForStatementE @ 393 NONAME ABSENT
	_ZTIN7QScript3AST17VariableStatementE @ 394 NONAME ABSENT
	_ZTIN7QScript3AST18FunctionExpressionE @ 395 NONAME ABSENT
	_ZTIN7QScript3AST19ExpressionStatementE @ 396 NONAME ABSENT
	_ZTIN7QScript3AST19FormalParameterListE @ 397 NONAME ABSENT
	_ZTIN7QScript3AST19FunctionDeclarationE @ 398 NONAME ABSENT
	_ZTIN7QScript3AST19NewMemberExpressionE @ 399 NONAME ABSENT
	_ZTIN7QScript3AST19UnaryPlusExpressionE @ 400 NONAME ABSENT
	_ZTIN7QScript3AST19VariableDeclarationE @ 401 NONAME ABSENT
	_ZTIN7QScript3AST20IdentifierExpressionE @ 402 NONAME ABSENT
	_ZTIN7QScript3AST20UnaryMinusExpressionE @ 403 NONAME ABSENT
	_ZTIN7QScript3AST21ArrayMemberExpressionE @ 404 NONAME ABSENT
	_ZTIN7QScript3AST21ConditionalExpressionE @ 405 NONAME ABSENT
	_ZTIN7QScript3AST21FieldMemberExpressionE @ 406 NONAME ABSENT
	_ZTIN7QScript3AST21FunctionSourceElementE @ 407 NONAME ABSENT
	_ZTIN7QScript3AST21LocalForEachStatementE @ 408 NONAME ABSENT
	_ZTIN7QScript3AST22IdentifierPropertyNameE @ 409 NONAME ABSENT
	_ZTIN7QScript3AST22PreDecrementExpressionE @ 410 NONAME ABSENT
	_ZTIN7QScript3AST22PreIncrementExpressionE @ 411 NONAME ABSENT
	_ZTIN7QScript3AST22StatementSourceElementE @ 412 NONAME ABSENT
	_ZTIN7QScript3AST23PostDecrementExpressionE @ 413 NONAME ABSENT
	_ZTIN7QScript3AST23PostIncrementExpressionE @ 414 NONAME ABSENT
	_ZTIN7QScript3AST23VariableDeclarationListE @ 415 NONAME ABSENT
	_ZTIN7QScript3AST24PropertyNameAndValueListE @ 416 NONAME ABSENT
	_ZTIN7QScript3AST25StringLiteralPropertyNameE @ 417 NONAME ABSENT
	_ZTIN7QScript3AST26NumericLiteralPropertyNameE @ 418 NONAME ABSENT
	_ZTIN7QScript3AST4NodeE @ 419 NONAME ABSENT
	_ZTIN7QScript3AST5BlockE @ 420 NONAME ABSENT
	_ZTIN7QScript3AST5CatchE @ 421 NONAME ABSENT
	_ZTIN7QScript3AST7ElisionE @ 422 NONAME ABSENT
	_ZTIN7QScript3AST7FinallyE @ 423 NONAME ABSENT
	_ZTIN7QScript3AST7ProgramE @ 424 NONAME ABSENT
	_ZTIN7QScript3AST7VisitorE @ 425 NONAME ABSENT
	_ZTIN7QScript3AST9CaseBlockE @ 426 NONAME ABSENT
	_ZTIN7QScript3AST9StatementE @ 427 NONAME ABSENT
	_ZTIN7QScript3Ext11Enumeration8InstanceE @ 428 NONAME ABSENT
	_ZTIN7QScript3Ext11EnumerationE @ 429 NONAME ABSENT
	_ZTIN7QScript3Ext20EnumerationClassDataE @ 430 NONAME ABSENT
	_ZTIN7QScript3Ext7VariantE @ 431 NONAME ABSENT
	_ZTIN7QScript4Ecma14ArrayClassDataE @ 432 NONAME ABSENT
	_ZTIN7QScript4Ecma15StringClassDataE @ 433 NONAME ABSENT
	_ZTIN7QScript4Ecma17FunctionClassDataE @ 434 NONAME ABSENT
	_ZTIN7QScript4Ecma22ArrayClassDataIteratorE @ 435 NONAME ABSENT
	_ZTIN7QScript4Ecma23StringClassDataIteratorE @ 436 NONAME ABSENT
	_ZTIN7QScript4Ecma4CoreE @ 437 NONAME ABSENT
	_ZTIN7QScript4Ecma4DateE @ 438 NONAME ABSENT
	_ZTIN7QScript4Ecma4MathE @ 439 NONAME ABSENT
	_ZTIN7QScript4Ecma5ArrayE @ 440 NONAME ABSENT
	_ZTIN7QScript4Ecma5ErrorE @ 441 NONAME ABSENT
	_ZTIN7QScript4Ecma6GlobalE @ 442 NONAME ABSENT
	_ZTIN7QScript4Ecma6NumberE @ 443 NONAME ABSENT
	_ZTIN7QScript4Ecma6ObjectE @ 444 NONAME ABSENT
	_ZTIN7QScript4Ecma6RegExpE @ 445 NONAME ABSENT
	_ZTIN7QScript4Ecma6StringE @ 446 NONAME ABSENT
	_ZTIN7QScript4Ecma7BooleanE @ 447 NONAME ABSENT
	_ZTIN7QScript4Ecma8FunctionE @ 448 NONAME ABSENT
	_ZTIN7QScript8CompilerE @ 449 NONAME ABSENT
	_ZTIN7QScript8NodePoolE @ 450 NONAME ABSENT
	_ZTIN7QScript9CFunctionE @ 451 NONAME ABSENT
	_ZTV12QScriptClass @ 452 NONAME
	_ZTV13QScriptEngine @ 453 NONAME
	_ZTV15QScriptFunction @ 454 NONAME ABSENT
	_ZTV16QScriptClassData @ 455 NONAME ABSENT
	_ZTV18QScriptEngineAgent @ 456 NONAME
	_ZTV19QScriptClassPrivate @ 457 NONAME ABSENT
	_ZTV20QScriptEnginePrivate @ 458 NONAME ABSENT
	_ZTV22QScriptCustomClassData @ 459 NONAME ABSENT
	_ZTV22QScriptExtensionPlugin @ 460 NONAME
	_ZTV24QScriptClassDataIterator @ 461 NONAME ABSENT
	_ZTV25QScriptEngineAgentPrivate @ 462 NONAME
	_ZTV28QScriptClassPropertyIterator @ 463 NONAME
	_ZTV30QScriptCustomClassDataIterator @ 464 NONAME ABSENT
	_ZTV35QScriptClassPropertyIteratorPrivate @ 465 NONAME ABSENT
	_ZTVN7QScript10C2FunctionE @ 466 NONAME ABSENT
	_ZTVN7QScript10C3FunctionE @ 467 NONAME ABSENT
	_ZTVN7QScript10ExtQObject8InstanceE @ 468 NONAME ABSENT
	_ZTVN7QScript10ExtQObjectE @ 469 NONAME ABSENT
	_ZTVN7QScript10QtFunctionE @ 470 NONAME ABSENT
	_ZTVN7QScript12PrettyPrettyE @ 471 NONAME ABSENT
	_ZTVN7QScript12XmlGeneratorE @ 472 NONAME ABSENT
	_ZTVN7QScript14ExtQMetaObject8InstanceE @ 473 NONAME ABSENT
	_ZTVN7QScript14ExtQMetaObjectE @ 474 NONAME ABSENT
	_ZTVN7QScript14ScriptFunctionE @ 475 NONAME ABSENT
	_ZTVN7QScript16QObjectPrototypeE @ 476 NONAME ABSENT
	_ZTVN7QScript18ArgumentsClassDataE @ 477 NONAME ABSENT
	_ZTVN7QScript18ExtQMetaObjectDataE @ 478 NONAME ABSENT
	_ZTVN7QScript18QtPropertyFunctionE @ 479 NONAME ABSENT
	_ZTVN7QScript22ExtQObjectDataIteratorE @ 480 NONAME ABSENT
	_ZTVN7QScript24QObjectConnectionManagerE @ 481 NONAME ABSENT
	_ZTVN7QScript26ArgumentsClassDataIteratorE @ 482 NONAME ABSENT
	_ZTVN7QScript3AST10CaseClauseE @ 483 NONAME ABSENT
	_ZTVN7QScript3AST10ExpressionE @ 484 NONAME ABSENT
	_ZTVN7QScript3AST11CaseClausesE @ 485 NONAME ABSENT
	_ZTVN7QScript3AST11ElementListE @ 486 NONAME ABSENT
	_ZTVN7QScript3AST11IfStatementE @ 487 NONAME ABSENT
	_ZTVN7QScript3AST11TrueLiteralE @ 488 NONAME ABSENT
	_ZTVN7QScript3AST12ArgumentListE @ 489 NONAME ABSENT
	_ZTVN7QScript3AST12ArrayLiteralE @ 490 NONAME ABSENT
	_ZTVN7QScript3AST12FalseLiteralE @ 491 NONAME ABSENT
	_ZTVN7QScript3AST12ForStatementE @ 492 NONAME ABSENT
	_ZTVN7QScript3AST12FunctionBodyE @ 493 NONAME ABSENT
	_ZTVN7QScript3AST12TryStatementE @ 494 NONAME ABSENT
	_ZTVN7QScript3AST13DefaultClauseE @ 495 NONAME ABSENT
	_ZTVN7QScript3AST13NewExpressionE @ 496 NONAME ABSENT
	_ZTVN7QScript3AST13NotExpressionE @ 497 NONAME ABSENT
	_ZTVN7QScript3AST13ObjectLiteralE @ 498 NONAME ABSENT
	_ZTVN7QScript3AST13RegExpLiteralE @ 499 NONAME ABSENT
	_ZTVN7QScript3AST13StatementListE @ 500 NONAME ABSENT
	_ZTVN7QScript3AST13StringLiteralE @ 501 NONAME ABSENT
	_ZTVN7QScript3AST13WithStatementE @ 502 NONAME ABSENT
	_ZTVN7QScript3AST14BreakStatementE @ 503 NONAME ABSENT
	_ZTVN7QScript3AST14CallExpressionE @ 504 NONAME ABSENT
	_ZTVN7QScript3AST14EmptyStatementE @ 505 NONAME ABSENT
	_ZTVN7QScript3AST14ExpressionNodeE @ 506 NONAME ABSENT
	_ZTVN7QScript3AST14NullExpressionE @ 507 NONAME ABSENT
	_ZTVN7QScript3AST14NumericLiteralE @ 508 NONAME ABSENT
	_ZTVN7QScript3AST14SourceElementsE @ 509 NONAME ABSENT
	_ZTVN7QScript3AST14ThisExpressionE @ 510 NONAME ABSENT
	_ZTVN7QScript3AST14ThrowStatementE @ 511 NONAME ABSENT
	_ZTVN7QScript3AST14VoidExpressionE @ 512 NONAME ABSENT
	_ZTVN7QScript3AST14WhileStatementE @ 513 NONAME ABSENT
	_ZTVN7QScript3AST15ReturnStatementE @ 514 NONAME ABSENT
	_ZTVN7QScript3AST15SwitchStatementE @ 515 NONAME ABSENT
	_ZTVN7QScript3AST15TildeExpressionE @ 516 NONAME ABSENT
	_ZTVN7QScript3AST16BinaryExpressionE @ 517 NONAME ABSENT
	_ZTVN7QScript3AST16DeleteExpressionE @ 518 NONAME ABSENT
	_ZTVN7QScript3AST16DoWhileStatementE @ 519 NONAME ABSENT
	_ZTVN7QScript3AST16ForEachStatementE @ 520 NONAME ABSENT
	_ZTVN7QScript3AST16TypeOfExpressionE @ 521 NONAME ABSENT
	_ZTVN7QScript3AST17ContinueStatementE @ 522 NONAME ABSENT
	_ZTVN7QScript3AST17DebuggerStatementE @ 523 NONAME ABSENT
	_ZTVN7QScript3AST17LabelledStatementE @ 524 NONAME ABSENT
	_ZTVN7QScript3AST17LocalForStatementE @ 525 NONAME ABSENT
	_ZTVN7QScript3AST17VariableStatementE @ 526 NONAME ABSENT
	_ZTVN7QScript3AST18FunctionExpressionE @ 527 NONAME ABSENT
	_ZTVN7QScript3AST19ExpressionStatementE @ 528 NONAME ABSENT
	_ZTVN7QScript3AST19FormalParameterListE @ 529 NONAME ABSENT
	_ZTVN7QScript3AST19FunctionDeclarationE @ 530 NONAME ABSENT
	_ZTVN7QScript3AST19NewMemberExpressionE @ 531 NONAME ABSENT
	_ZTVN7QScript3AST19UnaryPlusExpressionE @ 532 NONAME ABSENT
	_ZTVN7QScript3AST19VariableDeclarationE @ 533 NONAME ABSENT
	_ZTVN7QScript3AST20IdentifierExpressionE @ 534 NONAME ABSENT
	_ZTVN7QScript3AST20UnaryMinusExpressionE @ 535 NONAME ABSENT
	_ZTVN7QScript3AST21ArrayMemberExpressionE @ 536 NONAME ABSENT
	_ZTVN7QScript3AST21ConditionalExpressionE @ 537 NONAME ABSENT
	_ZTVN7QScript3AST21FieldMemberExpressionE @ 538 NONAME ABSENT
	_ZTVN7QScript3AST21FunctionSourceElementE @ 539 NONAME ABSENT
	_ZTVN7QScript3AST21LocalForEachStatementE @ 540 NONAME ABSENT
	_ZTVN7QScript3AST22IdentifierPropertyNameE @ 541 NONAME ABSENT
	_ZTVN7QScript3AST22PreDecrementExpressionE @ 542 NONAME ABSENT
	_ZTVN7QScript3AST22PreIncrementExpressionE @ 543 NONAME ABSENT
	_ZTVN7QScript3AST22StatementSourceElementE @ 544 NONAME ABSENT
	_ZTVN7QScript3AST23PostDecrementExpressionE @ 545 NONAME ABSENT
	_ZTVN7QScript3AST23PostIncrementExpressionE @ 546 NONAME ABSENT
	_ZTVN7QScript3AST23VariableDeclarationListE @ 547 NONAME ABSENT
	_ZTVN7QScript3AST24PropertyNameAndValueListE @ 548 NONAME ABSENT
	_ZTVN7QScript3AST25StringLiteralPropertyNameE @ 549 NONAME ABSENT
	_ZTVN7QScript3AST26NumericLiteralPropertyNameE @ 550 NONAME ABSENT
	_ZTVN7QScript3AST4NodeE @ 551 NONAME ABSENT
	_ZTVN7QScript3AST5BlockE @ 552 NONAME ABSENT
	_ZTVN7QScript3AST5CatchE @ 553 NONAME ABSENT
	_ZTVN7QScript3AST7ElisionE @ 554 NONAME ABSENT
	_ZTVN7QScript3AST7FinallyE @ 555 NONAME ABSENT
	_ZTVN7QScript3AST7ProgramE @ 556 NONAME ABSENT
	_ZTVN7QScript3AST7VisitorE @ 557 NONAME ABSENT
	_ZTVN7QScript3AST9CaseBlockE @ 558 NONAME ABSENT
	_ZTVN7QScript3AST9StatementE @ 559 NONAME ABSENT
	_ZTVN7QScript3Ext11Enumeration8InstanceE @ 560 NONAME ABSENT
	_ZTVN7QScript3Ext11EnumerationE @ 561 NONAME ABSENT
	_ZTVN7QScript3Ext20EnumerationClassDataE @ 562 NONAME ABSENT
	_ZTVN7QScript3Ext7VariantE @ 563 NONAME ABSENT
	_ZTVN7QScript4Ecma14ArrayClassDataE @ 564 NONAME ABSENT
	_ZTVN7QScript4Ecma15StringClassDataE @ 565 NONAME ABSENT
	_ZTVN7QScript4Ecma17FunctionClassDataE @ 566 NONAME ABSENT
	_ZTVN7QScript4Ecma22ArrayClassDataIteratorE @ 567 NONAME ABSENT
	_ZTVN7QScript4Ecma23StringClassDataIteratorE @ 568 NONAME ABSENT
	_ZTVN7QScript4Ecma4CoreE @ 569 NONAME ABSENT
	_ZTVN7QScript4Ecma4DateE @ 570 NONAME ABSENT
	_ZTVN7QScript4Ecma4MathE @ 571 NONAME ABSENT
	_ZTVN7QScript4Ecma5ArrayE @ 572 NONAME ABSENT
	_ZTVN7QScript4Ecma5ErrorE @ 573 NONAME ABSENT
	_ZTVN7QScript4Ecma6GlobalE @ 574 NONAME ABSENT
	_ZTVN7QScript4Ecma6NumberE @ 575 NONAME ABSENT
	_ZTVN7QScript4Ecma6ObjectE @ 576 NONAME ABSENT
	_ZTVN7QScript4Ecma6RegExpE @ 577 NONAME ABSENT
	_ZTVN7QScript4Ecma6StringE @ 578 NONAME ABSENT
	_ZTVN7QScript4Ecma7BooleanE @ 579 NONAME ABSENT
	_ZTVN7QScript4Ecma8FunctionE @ 580 NONAME ABSENT
	_ZTVN7QScript8CompilerE @ 581 NONAME ABSENT
	_ZTVN7QScript8NodePoolE @ 582 NONAME ABSENT
	_ZTVN7QScript9CFunctionE @ 583 NONAME ABSENT
	_ZThn8_N22QScriptExtensionPluginD0Ev @ 584 NONAME
	_ZThn8_N22QScriptExtensionPluginD1Ev @ 585 NONAME
	_ZlsR11QDataStreamRK18QScriptContextInfo @ 586 NONAME
	_ZrsR11QDataStreamR18QScriptContextInfo @ 587 NONAME

