EXPORTS
	_ZN10QSqlDriver11qt_metacallEN11QMetaObject4CallEiPPv @ 1 NONAME
	_ZN10QSqlDriver11qt_metacastEPKc @ 2 NONAME
	_ZN10QSqlDriver12notificationERK7QString @ 3 NONAME
	_ZN10QSqlDriver12setLastErrorERK9QSqlError @ 4 NONAME
	_ZN10QSqlDriver12setOpenErrorEb @ 5 NONAME
	_ZN10QSqlDriver16beginTransactionEv @ 6 NONAME
	_ZN10QSqlDriver16staticMetaObjectE @ 7 NONAME DATA 16
	_ZN10QSqlDriver17commitTransactionEv @ 8 NONAME
	_ZN10QSqlDriver19rollbackTransactionEv @ 9 NONAME
	_ZN10QSqlDriver23subscribeToNotificationERK7QString @ 10 NONAME
	_ZN10QSqlDriver27unsubscribeFromNotificationERK7QString @ 11 NONAME
	_ZN10QSqlDriver37subscribeToNotificationImplementationERK7QString @ 12 NONAME
	_ZN10QSqlDriver41unsubscribeFromNotificationImplementationERK7QString @ 13 NONAME
	_ZN10QSqlDriver7setOpenEb @ 14 NONAME
	_ZN10QSqlDriverC2EP7QObject @ 15 NONAME
	_ZN10QSqlDriverD0Ev @ 16 NONAME
	_ZN10QSqlDriverD1Ev @ 17 NONAME
	_ZN10QSqlDriverD2Ev @ 18 NONAME
	_ZN10QSqlRecord11clearValuesEv @ 19 NONAME
	_ZN10QSqlRecord12setGeneratedERK7QStringb @ 20 NONAME
	_ZN10QSqlRecord12setGeneratedEib @ 21 NONAME
	_ZN10QSqlRecord5clearEv @ 22 NONAME
	_ZN10QSqlRecord6appendERK9QSqlField @ 23 NONAME
	_ZN10QSqlRecord6detachEv @ 24 NONAME
	_ZN10QSqlRecord6insertEiRK9QSqlField @ 25 NONAME
	_ZN10QSqlRecord6removeEi @ 26 NONAME
	_ZN10QSqlRecord7replaceEiRK9QSqlField @ 27 NONAME
	_ZN10QSqlRecord7setNullERK7QString @ 28 NONAME
	_ZN10QSqlRecord7setNullEi @ 29 NONAME
	_ZN10QSqlRecord8setValueERK7QStringRK8QVariant @ 30 NONAME
	_ZN10QSqlRecord8setValueEiRK8QVariant @ 31 NONAME
	_ZN10QSqlRecordC1ERKS_ @ 32 NONAME
	_ZN10QSqlRecordC1Ev @ 33 NONAME
	_ZN10QSqlRecordC2ERKS_ @ 34 NONAME
	_ZN10QSqlRecordC2Ev @ 35 NONAME
	_ZN10QSqlRecordD1Ev @ 36 NONAME
	_ZN10QSqlRecordD2Ev @ 37 NONAME
	_ZN10QSqlRecordaSERKS_ @ 38 NONAME
	_ZN10QSqlResult10nextResultEv @ 39 NONAME
	_ZN10QSqlResult11savePrepareERK7QString @ 40 NONAME
	_ZN10QSqlResult12addBindValueERK8QVariant6QFlagsIN4QSql13ParamTypeFlagEE @ 41 NONAME
	_ZN10QSqlResult12setLastErrorERK9QSqlError @ 42 NONAME
	_ZN10QSqlResult12virtual_hookEiPv @ 43 NONAME
	_ZN10QSqlResult13fetchPreviousEv @ 44 NONAME
	_ZN10QSqlResult14resetBindCountEv @ 45 NONAME
	_ZN10QSqlResult14setForwardOnlyEb @ 46 NONAME
	_ZN10QSqlResult19detachFromResultSetEv @ 47 NONAME
	_ZN10QSqlResult27setNumericalPrecisionPolicyEN4QSql24NumericalPrecisionPolicyE @ 48 NONAME
	_ZN10QSqlResult4execEv @ 49 NONAME
	_ZN10QSqlResult5clearEv @ 50 NONAME
	_ZN10QSqlResult5setAtEi @ 51 NONAME
	_ZN10QSqlResult7prepareERK7QString @ 52 NONAME
	_ZN10QSqlResult8setQueryERK7QString @ 53 NONAME
	_ZN10QSqlResult9bindValueERK7QStringRK8QVariant6QFlagsIN4QSql13ParamTypeFlagEE @ 54 NONAME
	_ZN10QSqlResult9bindValueEiRK8QVariant6QFlagsIN4QSql13ParamTypeFlagEE @ 55 NONAME
	_ZN10QSqlResult9execBatchEb @ 56 NONAME
	_ZN10QSqlResult9fetchNextEv @ 57 NONAME
	_ZN10QSqlResult9setActiveEb @ 58 NONAME
	_ZN10QSqlResult9setSelectEb @ 59 NONAME
	_ZN10QSqlResultC2EPK10QSqlDriver @ 60 NONAME
	_ZN10QSqlResultD0Ev @ 61 NONAME
	_ZN10QSqlResultD1Ev @ 62 NONAME
	_ZN10QSqlResultD2Ev @ 63 NONAME
	_ZN12QSqlDatabase11addDatabaseEP10QSqlDriverRK7QString @ 64 NONAME
	_ZN12QSqlDatabase11addDatabaseERK7QStringS2_ @ 65 NONAME
	_ZN12QSqlDatabase11setHostNameERK7QString @ 66 NONAME
	_ZN12QSqlDatabase11setPasswordERK7QString @ 67 NONAME
	_ZN12QSqlDatabase11setUserNameERK7QString @ 68 NONAME
	_ZN12QSqlDatabase11transactionEv @ 69 NONAME
	_ZN12QSqlDatabase13cloneDatabaseERKS_RK7QString @ 70 NONAME
	_ZN12QSqlDatabase14removeDatabaseERK7QString @ 71 NONAME
	_ZN12QSqlDatabase15connectionNamesEv @ 72 NONAME
	_ZN12QSqlDatabase15setDatabaseNameERK7QString @ 73 NONAME
	_ZN12QSqlDatabase17defaultConnectionE @ 74 NONAME DATA 4
	_ZN12QSqlDatabase17isDriverAvailableERK7QString @ 75 NONAME
	_ZN12QSqlDatabase17registerSqlDriverERK7QStringP21QSqlDriverCreatorBase @ 76 NONAME
	_ZN12QSqlDatabase17setConnectOptionsERK7QString @ 77 NONAME
	_ZN12QSqlDatabase4openERK7QStringS2_ @ 78 NONAME
	_ZN12QSqlDatabase4openEv @ 79 NONAME
	_ZN12QSqlDatabase5closeEv @ 80 NONAME
	_ZN12QSqlDatabase6commitEv @ 81 NONAME
	_ZN12QSqlDatabase7driversEv @ 82 NONAME
	_ZN12QSqlDatabase7setPortEi @ 83 NONAME
	_ZN12QSqlDatabase8containsERK7QString @ 84 NONAME
	_ZN12QSqlDatabase8databaseERK7QStringb @ 85 NONAME
	_ZN12QSqlDatabase8rollbackEv @ 86 NONAME
	_ZN12QSqlDatabaseC1EP10QSqlDriver @ 87 NONAME
	_ZN12QSqlDatabaseC1ERK7QString @ 88 NONAME
	_ZN12QSqlDatabaseC1ERKS_ @ 89 NONAME
	_ZN12QSqlDatabaseC1Ev @ 90 NONAME
	_ZN12QSqlDatabaseC2EP10QSqlDriver @ 91 NONAME
	_ZN12QSqlDatabaseC2ERK7QString @ 92 NONAME
	_ZN12QSqlDatabaseC2ERKS_ @ 93 NONAME
	_ZN12QSqlDatabaseC2Ev @ 94 NONAME
	_ZN12QSqlDatabaseD1Ev @ 95 NONAME
	_ZN12QSqlDatabaseD2Ev @ 96 NONAME
	_ZN12QSqlDatabaseaSERKS_ @ 97 NONAME
	_ZN13QSQLiteDriver11qt_metacallEN11QMetaObject4CallEiPPv @ 98 NONAME
	_ZN13QSQLiteDriver11qt_metacastEPKc @ 99 NONAME
	_ZN13QSQLiteDriver16beginTransactionEv @ 100 NONAME
	_ZN13QSQLiteDriver16staticMetaObjectE @ 101 NONAME DATA 16
	_ZN13QSQLiteDriver17commitTransactionEv @ 102 NONAME
	_ZN13QSQLiteDriver19rollbackTransactionEv @ 103 NONAME
	_ZN13QSQLiteDriver4openERK7QStringS2_S2_S2_iS2_ @ 104 NONAME
	_ZN13QSQLiteDriver5closeEv @ 105 NONAME
	_ZN13QSQLiteDriverC1EP7QObject @ 106 NONAME
	_ZN13QSQLiteDriverC1EP7sqlite3P7QObject @ 107 NONAME
	_ZN13QSQLiteDriverC2EP7QObject @ 108 NONAME
	_ZN13QSQLiteDriverC2EP7sqlite3P7QObject @ 109 NONAME
	_ZN13QSQLiteDriverD0Ev @ 110 NONAME
	_ZN13QSQLiteDriverD1Ev @ 111 NONAME
	_ZN13QSQLiteDriverD2Ev @ 112 NONAME
	_ZN14QSqlQueryModel11qt_metacallEN11QMetaObject4CallEiPPv @ 113 NONAME
	_ZN14QSqlQueryModel11qt_metacastEPKc @ 114 NONAME
	_ZN14QSqlQueryModel11queryChangeEv @ 115 NONAME
	_ZN14QSqlQueryModel12setLastErrorERK9QSqlError @ 116 NONAME
	_ZN14QSqlQueryModel13insertColumnsEiiRK11QModelIndex @ 117 NONAME
	_ZN14QSqlQueryModel13removeColumnsEiiRK11QModelIndex @ 118 NONAME
	_ZN14QSqlQueryModel13setHeaderDataEiN2Qt11OrientationERK8QVarianti @ 119 NONAME
	_ZN14QSqlQueryModel16staticMetaObjectE @ 120 NONAME DATA 16
	_ZN14QSqlQueryModel5clearEv @ 121 NONAME
	_ZN14QSqlQueryModel8setQueryERK7QStringRK12QSqlDatabase @ 122 NONAME
	_ZN14QSqlQueryModel8setQueryERK9QSqlQuery @ 123 NONAME
	_ZN14QSqlQueryModel9fetchMoreERK11QModelIndex @ 124 NONAME
	_ZN14QSqlQueryModelC1EP7QObject @ 125 NONAME
	_ZN14QSqlQueryModelC1ER21QSqlQueryModelPrivateP7QObject @ 126 NONAME
	_ZN14QSqlQueryModelC2EP7QObject @ 127 NONAME
	_ZN14QSqlQueryModelC2ER21QSqlQueryModelPrivateP7QObject @ 128 NONAME
	_ZN14QSqlQueryModelD0Ev @ 129 NONAME
	_ZN14QSqlQueryModelD1Ev @ 130 NONAME
	_ZN14QSqlQueryModelD2Ev @ 131 NONAME
	_ZN14QSqlTableModel10insertRowsEiiRK11QModelIndex @ 132 NONAME
	_ZN14QSqlTableModel10removeRowsEiiRK11QModelIndex @ 133 NONAME
	_ZN14QSqlTableModel11primeInsertEiR10QSqlRecord @ 134 NONAME
	_ZN14QSqlTableModel11qt_metacallEN11QMetaObject4CallEiPPv @ 135 NONAME
	_ZN14QSqlTableModel11qt_metacastEPKc @ 136 NONAME
	_ZN14QSqlTableModel12beforeDeleteEi @ 137 NONAME
	_ZN14QSqlTableModel12beforeInsertER10QSqlRecord @ 138 NONAME
	_ZN14QSqlTableModel12beforeUpdateEiR10QSqlRecord @ 139 NONAME
	_ZN14QSqlTableModel12insertRecordEiRK10QSqlRecord @ 140 NONAME
	_ZN14QSqlTableModel13removeColumnsEiiRK11QModelIndex @ 141 NONAME
	_ZN14QSqlTableModel13setPrimaryKeyERK9QSqlIndex @ 142 NONAME
	_ZN14QSqlTableModel15setEditStrategyENS_12EditStrategyE @ 143 NONAME
	_ZN14QSqlTableModel16staticMetaObjectE @ 144 NONAME DATA 16
	_ZN14QSqlTableModel16updateRowInTableEiRK10QSqlRecord @ 145 NONAME
	_ZN14QSqlTableModel18deleteRowFromTableEi @ 146 NONAME
	_ZN14QSqlTableModel18insertRowIntoTableERK10QSqlRecord @ 147 NONAME
	_ZN14QSqlTableModel4sortEiN2Qt9SortOrderE @ 148 NONAME
	_ZN14QSqlTableModel5clearEv @ 149 NONAME
	_ZN14QSqlTableModel6revertEv @ 150 NONAME
	_ZN14QSqlTableModel6selectEv @ 151 NONAME
	_ZN14QSqlTableModel6submitEv @ 152 NONAME
	_ZN14QSqlTableModel7setDataERK11QModelIndexRK8QVarianti @ 153 NONAME
	_ZN14QSqlTableModel7setSortEiN2Qt9SortOrderE @ 154 NONAME
	_ZN14QSqlTableModel8setQueryERK9QSqlQuery @ 155 NONAME
	_ZN14QSqlTableModel8setTableERK7QString @ 156 NONAME
	_ZN14QSqlTableModel9revertAllEv @ 157 NONAME
	_ZN14QSqlTableModel9revertRowEi @ 158 NONAME
	_ZN14QSqlTableModel9setFilterERK7QString @ 159 NONAME
	_ZN14QSqlTableModel9setRecordEiRK10QSqlRecord @ 160 NONAME
	_ZN14QSqlTableModel9submitAllEv @ 161 NONAME
	_ZN14QSqlTableModelC1EP7QObject12QSqlDatabase @ 162 NONAME
	_ZN14QSqlTableModelC1ER21QSqlTableModelPrivateP7QObject12QSqlDatabase @ 163 NONAME
	_ZN14QSqlTableModelC2EP7QObject12QSqlDatabase @ 164 NONAME
	_ZN14QSqlTableModelC2ER21QSqlTableModelPrivateP7QObject12QSqlDatabase @ 165 NONAME
	_ZN14QSqlTableModelD0Ev @ 166 NONAME
	_ZN14QSqlTableModelD1Ev @ 167 NONAME
	_ZN14QSqlTableModelD2Ev @ 168 NONAME
	_ZN16QSqlCachedResult10fetchFirstEv @ 169 NONAME
	_ZN16QSqlCachedResult11clearValuesEv @ 170 NONAME
	_ZN16QSqlCachedResult13fetchPreviousEv @ 171 NONAME
	_ZN16QSqlCachedResult4dataEi @ 172 NONAME
	_ZN16QSqlCachedResult4initEi @ 173 NONAME
	_ZN16QSqlCachedResult5cacheEv @ 174 NONAME
	_ZN16QSqlCachedResult5fetchEi @ 175 NONAME
	_ZN16QSqlCachedResult6isNullEi @ 176 NONAME
	_ZN16QSqlCachedResult7cleanupEv @ 177 NONAME
	_ZN16QSqlCachedResult9cacheNextEv @ 178 NONAME
	_ZN16QSqlCachedResult9fetchLastEv @ 179 NONAME
	_ZN16QSqlCachedResult9fetchNextEv @ 180 NONAME
	_ZN16QSqlCachedResultC2EPK10QSqlDriver @ 181 NONAME
	_ZN16QSqlCachedResultD0Ev @ 182 NONAME
	_ZN16QSqlCachedResultD1Ev @ 183 NONAME
	_ZN16QSqlCachedResultD2Ev @ 184 NONAME
	_ZN16QSqlDriverPlugin11qt_metacallEN11QMetaObject4CallEiPPv @ 185 NONAME
	_ZN16QSqlDriverPlugin11qt_metacastEPKc @ 186 NONAME
	_ZN16QSqlDriverPlugin16staticMetaObjectE @ 187 NONAME DATA 16
	_ZN16QSqlDriverPluginC2EP7QObject @ 188 NONAME
	_ZN16QSqlDriverPluginD0Ev @ 189 NONAME
	_ZN16QSqlDriverPluginD1Ev @ 190 NONAME
	_ZN16QSqlDriverPluginD2Ev @ 191 NONAME
	_ZN24QSqlRelationalTableModel11qt_metacallEN11QMetaObject4CallEiPPv @ 192 NONAME
	_ZN24QSqlRelationalTableModel11qt_metacastEPKc @ 193 NONAME
	_ZN24QSqlRelationalTableModel11setRelationEiRK12QSqlRelation @ 194 NONAME
	_ZN24QSqlRelationalTableModel13removeColumnsEiiRK11QModelIndex @ 195 NONAME
	_ZN24QSqlRelationalTableModel16staticMetaObjectE @ 196 NONAME DATA 16
	_ZN24QSqlRelationalTableModel16updateRowInTableEiRK10QSqlRecord @ 197 NONAME
	_ZN24QSqlRelationalTableModel18insertRowIntoTableERK10QSqlRecord @ 198 NONAME
	_ZN24QSqlRelationalTableModel5clearEv @ 199 NONAME
	_ZN24QSqlRelationalTableModel6selectEv @ 200 NONAME
	_ZN24QSqlRelationalTableModel7setDataERK11QModelIndexRK8QVarianti @ 201 NONAME
	_ZN24QSqlRelationalTableModel8setTableERK7QString @ 202 NONAME
	_ZN24QSqlRelationalTableModel9revertRowEi @ 203 NONAME
	_ZN24QSqlRelationalTableModelC1EP7QObject12QSqlDatabase @ 204 NONAME
	_ZN24QSqlRelationalTableModelC2EP7QObject12QSqlDatabase @ 205 NONAME
	_ZN24QSqlRelationalTableModelD0Ev @ 206 NONAME
	_ZN24QSqlRelationalTableModelD1Ev @ 207 NONAME
	_ZN24QSqlRelationalTableModelD2Ev @ 208 NONAME
	_ZN9QSqlError13setDriverTextERK7QString @ 209 NONAME
	_ZN9QSqlError15setDatabaseTextERK7QString @ 210 NONAME
	_ZN9QSqlError7setTypeENS_9ErrorTypeE @ 211 NONAME
	_ZN9QSqlError9setNumberEi @ 212 NONAME
	_ZN9QSqlErrorC1ERK7QStringS2_NS_9ErrorTypeEi @ 213 NONAME
	_ZN9QSqlErrorC1ERKS_ @ 214 NONAME
	_ZN9QSqlErrorC2ERK7QStringS2_NS_9ErrorTypeEi @ 215 NONAME
	_ZN9QSqlErrorC2ERKS_ @ 216 NONAME
	_ZN9QSqlErrorD1Ev @ 217 NONAME
	_ZN9QSqlErrorD2Ev @ 218 NONAME
	_ZN9QSqlErroraSERKS_ @ 219 NONAME
	_ZN9QSqlField10setSqlTypeEi @ 220 NONAME
	_ZN9QSqlField11setReadOnlyEb @ 221 NONAME
	_ZN9QSqlField12setAutoValueEb @ 222 NONAME
	_ZN9QSqlField12setGeneratedEb @ 223 NONAME
	_ZN9QSqlField12setPrecisionEi @ 224 NONAME
	_ZN9QSqlField15setDefaultValueERK8QVariant @ 225 NONAME
	_ZN9QSqlField17setRequiredStatusENS_14RequiredStatusE @ 226 NONAME
	_ZN9QSqlField5clearEv @ 227 NONAME
	_ZN9QSqlField6detachEv @ 228 NONAME
	_ZN9QSqlField7setNameERK7QString @ 229 NONAME
	_ZN9QSqlField7setTypeEN8QVariant4TypeE @ 230 NONAME
	_ZN9QSqlField8setValueERK8QVariant @ 231 NONAME
	_ZN9QSqlField9setLengthEi @ 232 NONAME
	_ZN9QSqlFieldC1ERK7QString @ 233 NONAME ABSENT
	_ZN9QSqlFieldC1ERK7QStringN8QVariant4TypeE @ 234 NONAME ABSENT
	_ZN9QSqlFieldC1ERKS_ @ 235 NONAME
	_ZN9QSqlFieldC1Ev @ 236 NONAME ABSENT
	_ZN9QSqlFieldC2ERK7QString @ 237 NONAME ABSENT
	_ZN9QSqlFieldC2ERK7QStringN8QVariant4TypeE @ 238 NONAME ABSENT
	_ZN9QSqlFieldC2ERKS_ @ 239 NONAME
	_ZN9QSqlFieldC2Ev @ 240 NONAME ABSENT
	_ZN9QSqlFieldD1Ev @ 241 NONAME
	_ZN9QSqlFieldD2Ev @ 242 NONAME
	_ZN9QSqlFieldaSERKS_ @ 243 NONAME
	_ZN9QSqlIndex13setCursorNameERK7QString @ 244 NONAME
	_ZN9QSqlIndex13setDescendingEib @ 245 NONAME
	_ZN9QSqlIndex6appendERK9QSqlField @ 246 NONAME
	_ZN9QSqlIndex6appendERK9QSqlFieldb @ 247 NONAME
	_ZN9QSqlIndex7setNameERK7QString @ 248 NONAME
	_ZN9QSqlIndexC1ERK7QStringS2_ @ 249 NONAME
	_ZN9QSqlIndexC1ERKS_ @ 250 NONAME
	_ZN9QSqlIndexC2ERK7QStringS2_ @ 251 NONAME
	_ZN9QSqlIndexC2ERKS_ @ 252 NONAME
	_ZN9QSqlIndexD1Ev @ 253 NONAME
	_ZN9QSqlIndexD2Ev @ 254 NONAME
	_ZN9QSqlIndexaSERKS_ @ 255 NONAME
	_ZN9QSqlQuery10nextResultEv @ 256 NONAME
	_ZN9QSqlQuery12addBindValueERK8QVariant6QFlagsIN4QSql13ParamTypeFlagEE @ 257 NONAME
	_ZN9QSqlQuery14setForwardOnlyEb @ 258 NONAME
	_ZN9QSqlQuery27setNumericalPrecisionPolicyEN4QSql24NumericalPrecisionPolicyE @ 259 NONAME
	_ZN9QSqlQuery4execERK7QString @ 260 NONAME
	_ZN9QSqlQuery4execEv @ 261 NONAME
	_ZN9QSqlQuery4lastEv @ 262 NONAME
	_ZN9QSqlQuery4nextEv @ 263 NONAME
	_ZN9QSqlQuery4seekEib @ 264 NONAME
	_ZN9QSqlQuery5clearEv @ 265 NONAME
	_ZN9QSqlQuery5firstEv @ 266 NONAME
	_ZN9QSqlQuery6finishEv @ 267 NONAME
	_ZN9QSqlQuery7prepareERK7QString @ 268 NONAME
	_ZN9QSqlQuery8previousEv @ 269 NONAME
	_ZN9QSqlQuery9bindValueERK7QStringRK8QVariant6QFlagsIN4QSql13ParamTypeFlagEE @ 270 NONAME
	_ZN9QSqlQuery9bindValueEiRK8QVariant6QFlagsIN4QSql13ParamTypeFlagEE @ 271 NONAME
	_ZN9QSqlQuery9execBatchENS_18BatchExecutionModeE @ 272 NONAME
	_ZN9QSqlQueryC1E12QSqlDatabase @ 273 NONAME
	_ZN9QSqlQueryC1EP10QSqlResult @ 274 NONAME
	_ZN9QSqlQueryC1ERK7QString12QSqlDatabase @ 275 NONAME
	_ZN9QSqlQueryC1ERKS_ @ 276 NONAME
	_ZN9QSqlQueryC2E12QSqlDatabase @ 277 NONAME
	_ZN9QSqlQueryC2EP10QSqlResult @ 278 NONAME
	_ZN9QSqlQueryC2ERK7QString12QSqlDatabase @ 279 NONAME
	_ZN9QSqlQueryC2ERKS_ @ 280 NONAME
	_ZN9QSqlQueryD1Ev @ 281 NONAME
	_ZN9QSqlQueryD2Ev @ 282 NONAME
	_ZN9QSqlQueryaSERKS_ @ 283 NONAME
	_ZNK10QSqlDriver10metaObjectEv @ 284 NONAME
	_ZNK10QSqlDriver11formatValueERK9QSqlFieldb @ 285 NONAME
	_ZNK10QSqlDriver11isOpenErrorEv @ 286 NONAME
	_ZNK10QSqlDriver12primaryIndexERK7QString @ 287 NONAME
	_ZNK10QSqlDriver12sqlStatementENS_13StatementTypeERK7QStringRK10QSqlRecordb @ 288 NONAME
	_ZNK10QSqlDriver15stripDelimitersERK7QStringNS_14IdentifierTypeE @ 289 NONAME
	_ZNK10QSqlDriver16escapeIdentifierERK7QStringNS_14IdentifierTypeE @ 290 NONAME
	_ZNK10QSqlDriver19isIdentifierEscapedERK7QStringNS_14IdentifierTypeE @ 291 NONAME
	_ZNK10QSqlDriver25subscribedToNotificationsEv @ 292 NONAME
	_ZNK10QSqlDriver29stripDelimitersImplementationERK7QStringNS_14IdentifierTypeE @ 293 NONAME
	_ZNK10QSqlDriver33isIdentifierEscapedImplementationERK7QStringNS_14IdentifierTypeE @ 294 NONAME
	_ZNK10QSqlDriver39subscribedToNotificationsImplementationEv @ 295 NONAME
	_ZNK10QSqlDriver6handleEv @ 296 NONAME
	_ZNK10QSqlDriver6isOpenEv @ 297 NONAME
	_ZNK10QSqlDriver6recordERK7QString @ 298 NONAME
	_ZNK10QSqlDriver6tablesEN4QSql9TableTypeE @ 299 NONAME
	_ZNK10QSqlDriver9lastErrorEv @ 300 NONAME
	_ZNK10QSqlRecord11isGeneratedERK7QString @ 301 NONAME
	_ZNK10QSqlRecord11isGeneratedEi @ 302 NONAME
	_ZNK10QSqlRecord5countEv @ 303 NONAME
	_ZNK10QSqlRecord5fieldERK7QString @ 304 NONAME
	_ZNK10QSqlRecord5fieldEi @ 305 NONAME
	_ZNK10QSqlRecord5valueERK7QString @ 306 NONAME
	_ZNK10QSqlRecord5valueEi @ 307 NONAME
	_ZNK10QSqlRecord6isNullERK7QString @ 308 NONAME
	_ZNK10QSqlRecord6isNullEi @ 309 NONAME
	_ZNK10QSqlRecord7indexOfERK7QString @ 310 NONAME
	_ZNK10QSqlRecord7isEmptyEv @ 311 NONAME
	_ZNK10QSqlRecord8containsERK7QString @ 312 NONAME
	_ZNK10QSqlRecord9fieldNameEi @ 313 NONAME
	_ZNK10QSqlRecordeqERKS_ @ 314 NONAME
	_ZNK10QSqlResult10boundValueERK7QString @ 315 NONAME
	_ZNK10QSqlResult10boundValueEi @ 316 NONAME
	_ZNK10QSqlResult11boundValuesEv @ 317 NONAME
	_ZNK10QSqlResult12hasOutValuesEv @ 318 NONAME
	_ZNK10QSqlResult12lastInsertIdEv @ 319 NONAME
	_ZNK10QSqlResult13bindValueTypeERK7QString @ 320 NONAME
	_ZNK10QSqlResult13bindValueTypeEi @ 321 NONAME
	_ZNK10QSqlResult13bindingSyntaxEv @ 322 NONAME
	_ZNK10QSqlResult13executedQueryEv @ 323 NONAME
	_ZNK10QSqlResult13isForwardOnlyEv @ 324 NONAME
	_ZNK10QSqlResult14boundValueNameEi @ 325 NONAME
	_ZNK10QSqlResult15boundValueCountEv @ 326 NONAME
	_ZNK10QSqlResult2atEv @ 327 NONAME
	_ZNK10QSqlResult6driverEv @ 328 NONAME
	_ZNK10QSqlResult6handleEv @ 329 NONAME
	_ZNK10QSqlResult6recordEv @ 330 NONAME
	_ZNK10QSqlResult7isValidEv @ 331 NONAME
	_ZNK10QSqlResult8isActiveEv @ 332 NONAME
	_ZNK10QSqlResult8isSelectEv @ 333 NONAME
	_ZNK10QSqlResult9lastErrorEv @ 334 NONAME
	_ZNK10QSqlResult9lastQueryEv @ 335 NONAME
	_ZNK12QSqlDatabase10driverNameEv @ 336 NONAME
	_ZNK12QSqlDatabase11isOpenErrorEv @ 337 NONAME
	_ZNK12QSqlDatabase12databaseNameEv @ 338 NONAME
	_ZNK12QSqlDatabase12primaryIndexERK7QString @ 339 NONAME
	_ZNK12QSqlDatabase14connectOptionsEv @ 340 NONAME
	_ZNK12QSqlDatabase14connectionNameEv @ 341 NONAME
	_ZNK12QSqlDatabase4execERK7QString @ 342 NONAME
	_ZNK12QSqlDatabase4portEv @ 343 NONAME
	_ZNK12QSqlDatabase6driverEv @ 344 NONAME
	_ZNK12QSqlDatabase6isOpenEv @ 345 NONAME
	_ZNK12QSqlDatabase6recordERK7QString @ 346 NONAME
	_ZNK12QSqlDatabase6tablesEN4QSql9TableTypeE @ 347 NONAME
	_ZNK12QSqlDatabase7isValidEv @ 348 NONAME
	_ZNK12QSqlDatabase8hostNameEv @ 349 NONAME
	_ZNK12QSqlDatabase8passwordEv @ 350 NONAME
	_ZNK12QSqlDatabase8userNameEv @ 351 NONAME
	_ZNK12QSqlDatabase9lastErrorEv @ 352 NONAME
	_ZNK13QSQLiteDriver10hasFeatureEN10QSqlDriver13DriverFeatureE @ 353 NONAME
	_ZNK13QSQLiteDriver10metaObjectEv @ 354 NONAME
	_ZNK13QSQLiteDriver12createResultEv @ 355 NONAME
	_ZNK13QSQLiteDriver12primaryIndexERK7QString @ 356 NONAME
	_ZNK13QSQLiteDriver16escapeIdentifierERK7QStringN10QSqlDriver14IdentifierTypeE @ 357 NONAME
	_ZNK13QSQLiteDriver6handleEv @ 358 NONAME
	_ZNK13QSQLiteDriver6recordERK7QString @ 359 NONAME
	_ZNK13QSQLiteDriver6tablesEN4QSql9TableTypeE @ 360 NONAME
	_ZNK14QSqlQueryModel10headerDataEiN2Qt11OrientationEi @ 361 NONAME
	_ZNK14QSqlQueryModel10metaObjectEv @ 362 NONAME
	_ZNK14QSqlQueryModel11columnCountERK11QModelIndex @ 363 NONAME
	_ZNK14QSqlQueryModel12canFetchMoreERK11QModelIndex @ 364 NONAME
	_ZNK14QSqlQueryModel12indexInQueryERK11QModelIndex @ 365 NONAME
	_ZNK14QSqlQueryModel4dataERK11QModelIndexi @ 366 NONAME
	_ZNK14QSqlQueryModel5queryEv @ 367 NONAME
	_ZNK14QSqlQueryModel6recordEi @ 368 NONAME
	_ZNK14QSqlQueryModel6recordEv @ 369 NONAME
	_ZNK14QSqlQueryModel8rowCountERK11QModelIndex @ 370 NONAME
	_ZNK14QSqlQueryModel9lastErrorEv @ 371 NONAME
	_ZNK14QSqlTableModel10fieldIndexERK7QString @ 372 NONAME
	_ZNK14QSqlTableModel10headerDataEiN2Qt11OrientationEi @ 373 NONAME
	_ZNK14QSqlTableModel10metaObjectEv @ 374 NONAME
	_ZNK14QSqlTableModel10primaryKeyEv @ 375 NONAME
	_ZNK14QSqlTableModel12editStrategyEv @ 376 NONAME
	_ZNK14QSqlTableModel12indexInQueryERK11QModelIndex @ 377 NONAME
	_ZNK14QSqlTableModel13orderByClauseEv @ 378 NONAME
	_ZNK14QSqlTableModel15selectStatementEv @ 379 NONAME
	_ZNK14QSqlTableModel4dataERK11QModelIndexi @ 380 NONAME
	_ZNK14QSqlTableModel5flagsERK11QModelIndex @ 381 NONAME
	_ZNK14QSqlTableModel6filterEv @ 382 NONAME
	_ZNK14QSqlTableModel7isDirtyERK11QModelIndex @ 383 NONAME
	_ZNK14QSqlTableModel8databaseEv @ 384 NONAME
	_ZNK14QSqlTableModel8rowCountERK11QModelIndex @ 385 NONAME
	_ZNK14QSqlTableModel9tableNameEv @ 386 NONAME
	_ZNK16QSqlCachedResult8colCountEv @ 387 NONAME
	_ZNK16QSqlDriverPlugin10metaObjectEv @ 388 NONAME
	_ZNK24QSqlRelationalTableModel10metaObjectEv @ 389 NONAME
	_ZNK24QSqlRelationalTableModel13orderByClauseEv @ 390 NONAME
	_ZNK24QSqlRelationalTableModel13relationModelEi @ 391 NONAME
	_ZNK24QSqlRelationalTableModel15selectStatementEv @ 392 NONAME
	_ZNK24QSqlRelationalTableModel4dataERK11QModelIndexi @ 393 NONAME
	_ZNK24QSqlRelationalTableModel8relationEi @ 394 NONAME
	_ZNK9QSqlError10driverTextEv @ 395 NONAME
	_ZNK9QSqlError12databaseTextEv @ 396 NONAME
	_ZNK9QSqlError4textEv @ 397 NONAME
	_ZNK9QSqlError4typeEv @ 398 NONAME
	_ZNK9QSqlError6numberEv @ 399 NONAME
	_ZNK9QSqlError7isValidEv @ 400 NONAME
	_ZNK9QSqlField10isReadOnlyEv @ 401 NONAME
	_ZNK9QSqlField11isAutoValueEv @ 402 NONAME
	_ZNK9QSqlField11isGeneratedEv @ 403 NONAME
	_ZNK9QSqlField12defaultValueEv @ 404 NONAME
	_ZNK9QSqlField14requiredStatusEv @ 405 NONAME
	_ZNK9QSqlField4nameEv @ 406 NONAME
	_ZNK9QSqlField4typeEv @ 407 NONAME
	_ZNK9QSqlField6isNullEv @ 408 NONAME
	_ZNK9QSqlField6lengthEv @ 409 NONAME
	_ZNK9QSqlField6typeIDEv @ 410 NONAME
	_ZNK9QSqlField7isValidEv @ 411 NONAME
	_ZNK9QSqlField9precisionEv @ 412 NONAME
	_ZNK9QSqlFieldeqERKS_ @ 413 NONAME
	_ZNK9QSqlIndex11createFieldEiRK7QStringb @ 414 NONAME
	_ZNK9QSqlIndex12isDescendingEi @ 415 NONAME
	_ZNK9QSqlQuery10boundValueERK7QString @ 416 NONAME
	_ZNK9QSqlQuery10boundValueEi @ 417 NONAME
	_ZNK9QSqlQuery11boundValuesEv @ 418 NONAME
	_ZNK9QSqlQuery12lastInsertIdEv @ 419 NONAME
	_ZNK9QSqlQuery13executedQueryEv @ 420 NONAME
	_ZNK9QSqlQuery13isForwardOnlyEv @ 421 NONAME
	_ZNK9QSqlQuery15numRowsAffectedEv @ 422 NONAME
	_ZNK9QSqlQuery24numericalPrecisionPolicyEv @ 423 NONAME
	_ZNK9QSqlQuery2atEv @ 424 NONAME
	_ZNK9QSqlQuery4sizeEv @ 425 NONAME
	_ZNK9QSqlQuery5valueEi @ 426 NONAME
	_ZNK9QSqlQuery6driverEv @ 427 NONAME
	_ZNK9QSqlQuery6isNullEi @ 428 NONAME
	_ZNK9QSqlQuery6recordEv @ 429 NONAME
	_ZNK9QSqlQuery6resultEv @ 430 NONAME
	_ZNK9QSqlQuery7isValidEv @ 431 NONAME
	_ZNK9QSqlQuery8isActiveEv @ 432 NONAME
	_ZNK9QSqlQuery8isSelectEv @ 433 NONAME
	_ZNK9QSqlQuery9lastErrorEv @ 434 NONAME
	_ZNK9QSqlQuery9lastQueryEv @ 435 NONAME
	_ZTI10QSqlDriver @ 436 NONAME
	_ZTI10QSqlResult @ 437 NONAME
	_ZTI13QSQLiteDriver @ 438 NONAME
	_ZTI13QSQLiteResult @ 439 NONAME ABSENT
	_ZTI14QSqlQueryModel @ 440 NONAME
	_ZTI14QSqlTableModel @ 441 NONAME
	_ZTI16QSqlCachedResult @ 442 NONAME
	_ZTI16QSqlDriverPlugin @ 443 NONAME
	_ZTI17QSqlDriverPrivate @ 444 NONAME ABSENT
	_ZTI21QSqlQueryModelPrivate @ 445 NONAME ABSENT
	_ZTI21QSqlTableModelPrivate @ 446 NONAME ABSENT
	_ZTI24QSqlRelationalTableModel @ 447 NONAME
	_ZTI26QSqlDriverFactoryInterface @ 448 NONAME
	_ZTI31QSqlRelationalTableModelPrivate @ 449 NONAME ABSENT
	_ZTV10QSqlDriver @ 450 NONAME
	_ZTV10QSqlResult @ 451 NONAME
	_ZTV13QSQLiteDriver @ 452 NONAME
	_ZTV13QSQLiteResult @ 453 NONAME ABSENT
	_ZTV14QSqlQueryModel @ 454 NONAME
	_ZTV14QSqlTableModel @ 455 NONAME
	_ZTV16QSqlCachedResult @ 456 NONAME
	_ZTV16QSqlDriverPlugin @ 457 NONAME
	_ZTV17QSqlDriverPrivate @ 458 NONAME ABSENT
	_ZTV21QSqlQueryModelPrivate @ 459 NONAME ABSENT
	_ZTV21QSqlTableModelPrivate @ 460 NONAME ABSENT
	_ZTV24QSqlRelationalTableModel @ 461 NONAME
	_ZTV31QSqlRelationalTableModelPrivate @ 462 NONAME ABSENT
	_ZThn8_N16QSqlDriverPluginD0Ev @ 463 NONAME
	_ZThn8_N16QSqlDriverPluginD1Ev @ 464 NONAME
	_Zls6QDebugRK10QSqlRecord @ 465 NONAME
	_Zls6QDebugRK12QSqlDatabase @ 466 NONAME
	_Zls6QDebugRK9QSqlError @ 467 NONAME
	_Zls6QDebugRK9QSqlField @ 468 NONAME
	_ZN10QSqlDriver27setNumericalPrecisionPolicyEN4QSql24NumericalPrecisionPolicyE @ 469 NONAME
	_ZN12QSqlDatabase27setNumericalPrecisionPolicyEN4QSql24NumericalPrecisionPolicyE @ 470 NONAME
	_ZN16QSqlCachedResult12virtual_hookEiPv @ 471 NONAME
	_ZNK10QSqlDriver24numericalPrecisionPolicyEv @ 472 NONAME
	_ZNK10QSqlResult24numericalPrecisionPolicyEv @ 473 NONAME
	_ZNK12QSqlDatabase24numericalPrecisionPolicyEv @ 474 NONAME

